
build/tests/arm32/vexpress-a9/basic/firmware.elf.patched:     file format elf32-littlearm


Disassembly of section .text:

48000000 <_code_start>:
48000000:	e24f0008 	sub	r0, pc, #8
48000004:	ef019800 	svc	0x00019800
48000008:	ee105fb0 	mrc	15, 0, r5, cr0, cr0, {5}
4800000c:	e2155003 	ands	r5, r5, #3
48000010:	1a000033 	bne	480000e4 <_secondary_loop>
48000014:	e59f1058 	ldr	r1, [pc, #88]	; 48000074 <__code_start>
48000018:	e0406001 	sub	r6, r0, r1
4800001c:	e59f1054 	ldr	r1, [pc, #84]	; 48000078 <__reloc_region_start>
48000020:	e59f2054 	ldr	r2, [pc, #84]	; 4800007c <__reloc_region_end>
48000024:	e0422001 	sub	r2, r2, r1
48000028:	e0810006 	add	r0, r1, r6
4800002c:	eb000019 	bl	48000098 <_reloc_region>
48000030:	e59f1048 	ldr	r1, [pc, #72]	; 48000080 <__zero_region_start>
48000034:	e59f2048 	ldr	r2, [pc, #72]	; 48000084 <__zero_region_end>
48000038:	e3a07000 	mov	r7, #0
4800003c:	e3a08000 	mov	r8, #0
48000040:	e3a09000 	mov	r9, #0
48000044:	e3a0a000 	mov	sl, #0

48000048 <_zeroing_loop>:
48000048:	e1510002 	cmp	r1, r2
4800004c:	aa000001 	bge	48000058 <_zeroing_done>
48000050:	e8a10780 	stmia	r1!, {r7, r8, r9, sl}
48000054:	eafffffb 	b	48000048 <_zeroing_loop>

48000058 <_zeroing_done>:
48000058:	ee110f10 	mrc	15, 0, r0, cr1, cr0, {0}
4800005c:	e59f102c 	ldr	r1, [pc, #44]	; 48000090 <__sctlr_mmu_clear>
48000060:	e59f202c 	ldr	r2, [pc, #44]	; 48000094 <__sctlr_mmu_set>
48000064:	e0000001 	and	r0, r0, r1
48000068:	e1800002 	orr	r0, r0, r2
4800006c:	ee010f10 	mcr	15, 0, r0, cr1, cr0, {0}

48000070 <_jump_to_exec>:
48000070:	e59ff0c8 	ldr	pc, [pc, #200]	; 48000140 <__reset>

48000074 <__code_start>:
48000074:	48000000 	.word	0x48000000

48000078 <__reloc_region_start>:
48000078:	48000000 	.word	0x48000000

4800007c <__reloc_region_end>:
4800007c:	48016d10 	.word	0x48016d10

48000080 <__zero_region_start>:
48000080:	48016d10 	.word	0x48016d10

48000084 <__zero_region_end>:
48000084:	48029824 	.word	0x48029824

48000088 <__heap_start>:
48000088:	48027824 	.word	0x48027824

4800008c <__heap_end>:
4800008c:	48029824 	.word	0x48029824

48000090 <__sctlr_mmu_clear>:
48000090:	fffffffd 	.word	0xfffffffd

48000094 <__sctlr_mmu_set>:
48000094:	00001000 	.word	0x00001000

48000098 <_reloc_region>:
48000098:	e3a03000 	mov	r3, #0
4800009c:	e1500001 	cmp	r0, r1
480000a0:	0a00000e 	beq	480000e0 <_reloc_done>
480000a4:	ba000005 	blt	480000c0 <_rev_copy>

480000a8 <_fwd_loop>:
480000a8:	e1530002 	cmp	r3, r2
480000ac:	aa00000b 	bge	480000e0 <_reloc_done>
480000b0:	e8b00780 	ldm	r0!, {r7, r8, r9, sl}
480000b4:	e8a10780 	stmia	r1!, {r7, r8, r9, sl}
480000b8:	e2833010 	add	r3, r3, #16
480000bc:	eafffff9 	b	480000a8 <_fwd_loop>

480000c0 <_rev_copy>:
480000c0:	e0800002 	add	r0, r0, r2
480000c4:	e0811002 	add	r1, r1, r2

480000c8 <_rev_loop>:
480000c8:	e1530002 	cmp	r3, r2
480000cc:	aa000003 	bge	480000e0 <_reloc_done>
480000d0:	e9300780 	ldmdb	r0!, {r7, r8, r9, sl}
480000d4:	e9210780 	stmdb	r1!, {r7, r8, r9, sl}
480000d8:	e2833010 	add	r3, r3, #16
480000dc:	eafffff9 	b	480000c8 <_rev_loop>

480000e0 <_reloc_done>:
480000e0:	e12fff1e 	bx	lr

480000e4 <_secondary_loop>:
480000e4:	e59f0024 	ldr	r0, [pc, #36]	; 48000110 <_gic_cpu_addr>
480000e8:	e3a01001 	mov	r1, #1
480000ec:	e5801000 	str	r1, [r0]
480000f0:	e3a010ff 	mov	r1, #255	; 0xff
480000f4:	e5801004 	str	r1, [r0, #4]
480000f8:	e59f0014 	ldr	r0, [pc, #20]	; 48000114 <_sys_flags_addr>
480000fc:	ef0c0000 	svc	0x000c0000
48000100:	e5901000 	ldr	r1, [r0]
48000104:	e3310000 	teq	r1, #0
48000108:	0afffffb 	beq	480000fc <_secondary_loop+0x18>
4800010c:	e12fff11 	bx	r1

48000110 <_gic_cpu_addr>:
48000110:	1e000100 	.word	0x1e000100

48000114 <_sys_flags_addr>:
48000114:	10000030 	.word	0x10000030
48000118:	e320f000 	.word	0xe320f000
4800011c:	e320f000 	.word	0xe320f000

48000120 <_start_vect>:
48000120:	e59ff018 	ldr	pc, [pc, #24]	; 48000140 <__reset>
48000124:	e59ff018 	ldr	pc, [pc, #24]	; 48000144 <__undefined_instruction>
48000128:	e59ff018 	ldr	pc, [pc, #24]	; 48000148 <__software_interrupt>
4800012c:	e59ff018 	ldr	pc, [pc, #24]	; 4800014c <__prefetch_abort>
48000130:	e59ff018 	ldr	pc, [pc, #24]	; 48000150 <__data_abort>
48000134:	e59ff018 	ldr	pc, [pc, #24]	; 48000154 <__not_used>
48000138:	e59ff018 	ldr	pc, [pc, #24]	; 48000158 <__irq>
4800013c:	e59ff018 	ldr	pc, [pc, #24]	; 4800015c <__fiq>

48000140 <__reset>:
48000140:	48000178 	.word	0x48000178

48000144 <__undefined_instruction>:
48000144:	480001e0 	.word	0x480001e0

48000148 <__software_interrupt>:
48000148:	48000240 	.word	0x48000240

4800014c <__prefetch_abort>:
4800014c:	480002a0 	.word	0x480002a0

48000150 <__data_abort>:
48000150:	48000300 	.word	0x48000300

48000154 <__not_used>:
48000154:	48000360 	.word	0x48000360

48000158 <__irq>:
48000158:	480003c0 	.word	0x480003c0

4800015c <__fiq>:
4800015c:	48000420 	.word	0x48000420

48000160 <_end_vect>:
48000160:	4802a824 	.word	0x4802a824

48000164 <__und_stack_end>:
48000164:	4802c824 	.word	0x4802c824

48000168 <__abt_stack_end>:
48000168:	4802b824 	.word	0x4802b824

4800016c <__irq_stack_end>:
4800016c:	4802d824 	.word	0x4802d824

48000170 <__fiq_stack_end>:
48000170:	4802e824 	.word	0x4802e824

48000174 <__usr_stack_end>:
48000174:	4802f824 	.word	0x4802f824

48000178 <_reset>:
48000178:	e3a08000 	mov	r8, #0
4800017c:	ef019800 	svc	0x00019800
48000180:	ef0044c0 	svc	0x000044c0
48000184:	e51fd02c 	ldr	sp, [pc, #-44]	; 48000160 <_end_vect>
48000188:	ef0046c0 	svc	0x000046c0
4800018c:	e51fd030 	ldr	sp, [pc, #-48]	; 48000164 <__und_stack_end>
48000190:	ef0045c0 	svc	0x000045c0
48000194:	e51fd034 	ldr	sp, [pc, #-52]	; 48000168 <__abt_stack_end>
48000198:	ef004480 	svc	0x00004480
4800019c:	e51fd038 	ldr	sp, [pc, #-56]	; 4800016c <__irq_stack_end>
480001a0:	ef004440 	svc	0x00004440
480001a4:	e51fd03c 	ldr	sp, [pc, #-60]	; 48000170 <__fiq_stack_end>
480001a8:	ef0047c0 	svc	0x000047c0
480001ac:	e51fd040 	ldr	sp, [pc, #-64]	; 48000174 <__usr_stack_end>
480001b0:	ef0044c0 	svc	0x000044c0
480001b4:	eb001cfb 	bl	480075a8 <arm_init>
480001b8:	eb00243b 	bl	480092ac <arm_main>
480001bc:	eafffffe 	b	480001bc <_reset+0x44>

480001c0 <_switch_to_user_mode>:
480001c0:	e040000d 	sub	r0, r0, sp
480001c4:	e1a0100e 	mov	r1, lr
480001c8:	ef004400 	svc	0x00004400
480001cc:	e1a0d000 	mov	sp, r0
480001d0:	e1a0e001 	mov	lr, r1
480001d4:	e12fff1e 	bx	lr
480001d8:	e320f000 	nop	{0}
480001dc:	e320f000 	nop	{0}

480001e0 <_undefined_instruction>:
480001e0:	e24ee004 	sub	lr, lr, #4
480001e4:	e52de004 	push	{lr}		; (str lr, [sp, #-4]!)
480001e8:	e24dd03c 	sub	sp, sp, #60	; 0x3c
480001ec:	e88d1fff 	stm	sp, {r0, r1, r2, r3, r4, r5, r6, r7, r8, r9, sl, fp, ip}
480001f0:	e28d0034 	add	r0, sp, #52	; 0x34
480001f4:	efa06000 	svc	0x00a06000
480001f8:	e1a00000 	nop			; (mov r0, r0)
480001fc:	ef021000 	svc	0x00021000
48000200:	e52d0004 	push	{r0}		; (str r0, [sp, #-4]!)
48000204:	e1a0000d 	mov	r0, sp
48000208:	eb002461 	bl	48009394 <do_undefined_instruction>
4800020c:	e49d0004 	pop	{r0}		; (ldr r0, [sp], #4)
48000210:	ef072100 	svc	0x00072100
48000214:	ef3d7fff 	svc	0x003d7fff
48000218:	e1a00000 	nop			; (mov r0, r0)
4800021c:	e28dd03c 	add	sp, sp, #60	; 0x3c
48000220:	e49de004 	pop	{lr}		; (ldr lr, [sp], #4)
48000224:	efdd000e 	svc	0x00dd000e
48000228:	e320f000 	nop	{0}
4800022c:	e320f000 	nop	{0}
48000230:	e320f000 	nop	{0}
48000234:	e320f000 	nop	{0}
48000238:	e320f000 	nop	{0}
4800023c:	e320f000 	nop	{0}

48000240 <_software_interrupt>:
48000240:	e24ee004 	sub	lr, lr, #4
48000244:	e52de004 	push	{lr}		; (str lr, [sp, #-4]!)
48000248:	e24dd03c 	sub	sp, sp, #60	; 0x3c
4800024c:	e88d1fff 	stm	sp, {r0, r1, r2, r3, r4, r5, r6, r7, r8, r9, sl, fp, ip}
48000250:	e28d0034 	add	r0, sp, #52	; 0x34
48000254:	efa06000 	svc	0x00a06000
48000258:	e1a00000 	nop			; (mov r0, r0)
4800025c:	ef021000 	svc	0x00021000
48000260:	e52d0004 	push	{r0}		; (str r0, [sp, #-4]!)
48000264:	e1a0000d 	mov	r0, sp
48000268:	eb002450 	bl	480093b0 <do_software_interrupt>
4800026c:	e49d0004 	pop	{r0}		; (ldr r0, [sp], #4)
48000270:	ef072100 	svc	0x00072100
48000274:	ef3d7fff 	svc	0x003d7fff
48000278:	e1a00000 	nop			; (mov r0, r0)
4800027c:	e28dd03c 	add	sp, sp, #60	; 0x3c
48000280:	e49de004 	pop	{lr}		; (ldr lr, [sp], #4)
48000284:	efdd000e 	svc	0x00dd000e
48000288:	e320f000 	nop	{0}
4800028c:	e320f000 	nop	{0}
48000290:	e320f000 	nop	{0}
48000294:	e320f000 	nop	{0}
48000298:	e320f000 	nop	{0}
4800029c:	e320f000 	nop	{0}

480002a0 <_prefetch_abort>:
480002a0:	e24ee004 	sub	lr, lr, #4
480002a4:	e52de004 	push	{lr}		; (str lr, [sp, #-4]!)
480002a8:	e24dd03c 	sub	sp, sp, #60	; 0x3c
480002ac:	e88d1fff 	stm	sp, {r0, r1, r2, r3, r4, r5, r6, r7, r8, r9, sl, fp, ip}
480002b0:	e28d0034 	add	r0, sp, #52	; 0x34
480002b4:	efa06000 	svc	0x00a06000
480002b8:	e1a00000 	nop			; (mov r0, r0)
480002bc:	ef021000 	svc	0x00021000
480002c0:	e52d0004 	push	{r0}		; (str r0, [sp, #-4]!)
480002c4:	e1a0000d 	mov	r0, sp
480002c8:	eb002440 	bl	480093d0 <do_prefetch_abort>
480002cc:	e49d0004 	pop	{r0}		; (ldr r0, [sp], #4)
480002d0:	ef072100 	svc	0x00072100
480002d4:	ef3d7fff 	svc	0x003d7fff
480002d8:	e1a00000 	nop			; (mov r0, r0)
480002dc:	e28dd03c 	add	sp, sp, #60	; 0x3c
480002e0:	e49de004 	pop	{lr}		; (ldr lr, [sp], #4)
480002e4:	efdd000e 	svc	0x00dd000e
480002e8:	e320f000 	nop	{0}
480002ec:	e320f000 	nop	{0}
480002f0:	e320f000 	nop	{0}
480002f4:	e320f000 	nop	{0}
480002f8:	e320f000 	nop	{0}
480002fc:	e320f000 	nop	{0}

48000300 <_data_abort>:
48000300:	e24ee008 	sub	lr, lr, #8
48000304:	e52de004 	push	{lr}		; (str lr, [sp, #-4]!)
48000308:	e24dd03c 	sub	sp, sp, #60	; 0x3c
4800030c:	e88d1fff 	stm	sp, {r0, r1, r2, r3, r4, r5, r6, r7, r8, r9, sl, fp, ip}
48000310:	e28d0034 	add	r0, sp, #52	; 0x34
48000314:	efa06000 	svc	0x00a06000
48000318:	e1a00000 	nop			; (mov r0, r0)
4800031c:	ef021000 	svc	0x00021000
48000320:	e52d0004 	push	{r0}		; (str r0, [sp, #-4]!)
48000324:	e1a0000d 	mov	r0, sp
48000328:	eb002430 	bl	480093f0 <do_data_abort>
4800032c:	e49d0004 	pop	{r0}		; (ldr r0, [sp], #4)
48000330:	ef072100 	svc	0x00072100
48000334:	ef3d7fff 	svc	0x003d7fff
48000338:	e1a00000 	nop			; (mov r0, r0)
4800033c:	e28dd03c 	add	sp, sp, #60	; 0x3c
48000340:	e49de004 	pop	{lr}		; (ldr lr, [sp], #4)
48000344:	efdd000e 	svc	0x00dd000e
48000348:	e320f000 	nop	{0}
4800034c:	e320f000 	nop	{0}
48000350:	e320f000 	nop	{0}
48000354:	e320f000 	nop	{0}
48000358:	e320f000 	nop	{0}
4800035c:	e320f000 	nop	{0}

48000360 <_not_used>:
48000360:	e24ee004 	sub	lr, lr, #4
48000364:	e52de004 	push	{lr}		; (str lr, [sp, #-4]!)
48000368:	e24dd03c 	sub	sp, sp, #60	; 0x3c
4800036c:	e88d1fff 	stm	sp, {r0, r1, r2, r3, r4, r5, r6, r7, r8, r9, sl, fp, ip}
48000370:	e28d0034 	add	r0, sp, #52	; 0x34
48000374:	efa06000 	svc	0x00a06000
48000378:	e1a00000 	nop			; (mov r0, r0)
4800037c:	ef021000 	svc	0x00021000
48000380:	e52d0004 	push	{r0}		; (str r0, [sp, #-4]!)
48000384:	e1a0000d 	mov	r0, sp
48000388:	eb002420 	bl	48009410 <do_not_used>
4800038c:	e49d0004 	pop	{r0}		; (ldr r0, [sp], #4)
48000390:	ef072100 	svc	0x00072100
48000394:	ef3d7fff 	svc	0x003d7fff
48000398:	e1a00000 	nop			; (mov r0, r0)
4800039c:	e28dd03c 	add	sp, sp, #60	; 0x3c
480003a0:	e49de004 	pop	{lr}		; (ldr lr, [sp], #4)
480003a4:	efdd000e 	svc	0x00dd000e
480003a8:	e320f000 	nop	{0}
480003ac:	e320f000 	nop	{0}
480003b0:	e320f000 	nop	{0}
480003b4:	e320f000 	nop	{0}
480003b8:	e320f000 	nop	{0}
480003bc:	e320f000 	nop	{0}

480003c0 <_irq>:
480003c0:	e24ee004 	sub	lr, lr, #4
480003c4:	e52de004 	push	{lr}		; (str lr, [sp, #-4]!)
480003c8:	e24dd03c 	sub	sp, sp, #60	; 0x3c
480003cc:	e88d1fff 	stm	sp, {r0, r1, r2, r3, r4, r5, r6, r7, r8, r9, sl, fp, ip}
480003d0:	e28d0034 	add	r0, sp, #52	; 0x34
480003d4:	efa06000 	svc	0x00a06000
480003d8:	e1a00000 	nop			; (mov r0, r0)
480003dc:	ef021000 	svc	0x00021000
480003e0:	e52d0004 	push	{r0}		; (str r0, [sp, #-4]!)
480003e4:	e1a0000d 	mov	r0, sp
480003e8:	eb00240f 	bl	4800942c <do_irq>
480003ec:	e49d0004 	pop	{r0}		; (ldr r0, [sp], #4)
480003f0:	ef072100 	svc	0x00072100
480003f4:	ef3d7fff 	svc	0x003d7fff
480003f8:	e1a00000 	nop			; (mov r0, r0)
480003fc:	e28dd03c 	add	sp, sp, #60	; 0x3c
48000400:	e49de004 	pop	{lr}		; (ldr lr, [sp], #4)
48000404:	efdd000e 	svc	0x00dd000e
48000408:	e320f000 	nop	{0}
4800040c:	e320f000 	nop	{0}
48000410:	e320f000 	nop	{0}
48000414:	e320f000 	nop	{0}
48000418:	e320f000 	nop	{0}
4800041c:	e320f000 	nop	{0}

48000420 <_fiq>:
48000420:	e24ee004 	sub	lr, lr, #4
48000424:	e52de004 	push	{lr}		; (str lr, [sp, #-4]!)
48000428:	e24dd03c 	sub	sp, sp, #60	; 0x3c
4800042c:	e88d00ff 	stm	sp, {r0, r1, r2, r3, r4, r5, r6, r7}
48000430:	e28d0020 	add	r0, sp, #32
48000434:	efa07f00 	svc	0x00a07f00
48000438:	e1a00000 	nop			; (mov r0, r0)
4800043c:	ef021000 	svc	0x00021000
48000440:	e52d0004 	push	{r0}		; (str r0, [sp, #-4]!)
48000444:	e1a0000d 	mov	r0, sp
48000448:	eb002428 	bl	480094f0 <do_fiq>
4800044c:	e49d0004 	pop	{r0}		; (ldr r0, [sp], #4)
48000450:	ef072100 	svc	0x00072100
48000454:	ef3d7fff 	svc	0x003d7fff
48000458:	e1a00000 	nop			; (mov r0, r0)
4800045c:	e28dd03c 	add	sp, sp, #60	; 0x3c
48000460:	e49de004 	pop	{lr}		; (ldr lr, [sp], #4)
48000464:	efdd000e 	svc	0x00dd000e
48000468:	e320f000 	nop	{0}
4800046c:	e320f000 	nop	{0}
48000470:	e320f000 	nop	{0}
48000474:	e320f000 	nop	{0}
48000478:	e320f000 	nop	{0}
4800047c:	e320f000 	nop	{0}

48000480 <arm_clean_dcache>:
48000480:	e92d03ff 	push	{r0, r1, r2, r3, r4, r5, r6, r7, r8, r9}
48000484:	ee300f30 	mrc	15, 1, r0, cr0, cr0, {1}
48000488:	e2103407 	ands	r3, r0, #117440512	; 0x7000000
4800048c:	e1a03ba3 	lsr	r3, r3, #23
48000490:	0a00001a 	beq	48000500 <arm_clean_dcache+0x80>
48000494:	e3a08000 	mov	r8, #0
48000498:	e08820a8 	add	r2, r8, r8, lsr #1
4800049c:	e1a01230 	lsr	r1, r0, r2
480004a0:	e2011007 	and	r1, r1, #7
480004a4:	e3510002 	cmp	r1, #2
480004a8:	ba000011 	blt	480004f4 <arm_clean_dcache+0x74>
480004ac:	ee408f10 	mcr	15, 2, r8, cr0, cr0, {0}
480004b0:	f57ff06f 	isb	sy
480004b4:	ee301f10 	mrc	15, 1, r1, cr0, cr0, {0}
480004b8:	e2012007 	and	r2, r1, #7
480004bc:	e2822004 	add	r2, r2, #4
480004c0:	e59f4170 	ldr	r4, [pc, #368]	; 48000638 <arm_invalidate_icache+0x18>
480004c4:	e01441a1 	ands	r4, r4, r1, lsr #3
480004c8:	e16f5f14 	clz	r5, r4
480004cc:	e59f6168 	ldr	r6, [pc, #360]	; 4800063c <arm_invalidate_icache+0x1c>
480004d0:	e01666a1 	ands	r6, r6, r1, lsr #13
480004d4:	e1a07004 	mov	r7, r4
480004d8:	e1889517 	orr	r9, r8, r7, lsl r5
480004dc:	e1899216 	orr	r9, r9, r6, lsl r2
480004e0:	ee079f5a 	mcr	15, 0, r9, cr7, cr10, {2}
480004e4:	e2577001 	subs	r7, r7, #1
480004e8:	aafffffa 	bge	480004d8 <arm_clean_dcache+0x58>
480004ec:	e2566001 	subs	r6, r6, #1
480004f0:	aafffff7 	bge	480004d4 <arm_clean_dcache+0x54>
480004f4:	e2888002 	add	r8, r8, #2
480004f8:	e1530008 	cmp	r3, r8
480004fc:	caffffe5 	bgt	48000498 <arm_clean_dcache+0x18>
48000500:	e8bd03ff 	pop	{r0, r1, r2, r3, r4, r5, r6, r7, r8, r9}
48000504:	f57ff04f 	dsb	sy
48000508:	f57ff06f 	isb	sy
4800050c:	e12fff1e 	bx	lr

48000510 <arm_clean_invalidate_dcache>:
48000510:	e92d03ff 	push	{r0, r1, r2, r3, r4, r5, r6, r7, r8, r9}
48000514:	ee300f30 	mrc	15, 1, r0, cr0, cr0, {1}
48000518:	e2103407 	ands	r3, r0, #117440512	; 0x7000000
4800051c:	e1a03ba3 	lsr	r3, r3, #23
48000520:	0a00001a 	beq	48000590 <arm_clean_invalidate_dcache+0x80>
48000524:	e3a08000 	mov	r8, #0
48000528:	e08820a8 	add	r2, r8, r8, lsr #1
4800052c:	e1a01230 	lsr	r1, r0, r2
48000530:	e2011007 	and	r1, r1, #7
48000534:	e3510002 	cmp	r1, #2
48000538:	ba000011 	blt	48000584 <arm_clean_invalidate_dcache+0x74>
4800053c:	ee408f10 	mcr	15, 2, r8, cr0, cr0, {0}
48000540:	f57ff06f 	isb	sy
48000544:	ee301f10 	mrc	15, 1, r1, cr0, cr0, {0}
48000548:	e2012007 	and	r2, r1, #7
4800054c:	e2822004 	add	r2, r2, #4
48000550:	e59f40e0 	ldr	r4, [pc, #224]	; 48000638 <arm_invalidate_icache+0x18>
48000554:	e01441a1 	ands	r4, r4, r1, lsr #3
48000558:	e16f5f14 	clz	r5, r4
4800055c:	e59f60d8 	ldr	r6, [pc, #216]	; 4800063c <arm_invalidate_icache+0x1c>
48000560:	e01666a1 	ands	r6, r6, r1, lsr #13
48000564:	e1a07004 	mov	r7, r4
48000568:	e1889517 	orr	r9, r8, r7, lsl r5
4800056c:	e1899216 	orr	r9, r9, r6, lsl r2
48000570:	ee079f5e 	mcr	15, 0, r9, cr7, cr14, {2}
48000574:	e2577001 	subs	r7, r7, #1
48000578:	aafffffa 	bge	48000568 <arm_clean_invalidate_dcache+0x58>
4800057c:	e2566001 	subs	r6, r6, #1
48000580:	aafffff7 	bge	48000564 <arm_clean_invalidate_dcache+0x54>
48000584:	e2888002 	add	r8, r8, #2
48000588:	e1530008 	cmp	r3, r8
4800058c:	caffffe5 	bgt	48000528 <arm_clean_invalidate_dcache+0x18>
48000590:	e8bd03ff 	pop	{r0, r1, r2, r3, r4, r5, r6, r7, r8, r9}
48000594:	f57ff04f 	dsb	sy
48000598:	f57ff06f 	isb	sy
4800059c:	e12fff1e 	bx	lr

480005a0 <arm_clean_dcache_mva_range>:
480005a0:	e92d000f 	push	{r0, r1, r2, r3}
480005a4:	ee103f30 	mrc	15, 0, r3, cr0, cr0, {1}
480005a8:	e1a03823 	lsr	r3, r3, #16
480005ac:	e203300f 	and	r3, r3, #15
480005b0:	e3a02004 	mov	r2, #4
480005b4:	e1a02312 	lsl	r2, r2, r3
480005b8:	e2423001 	sub	r3, r2, #1
480005bc:	e1c00003 	bic	r0, r0, r3
480005c0:	ee070f3a 	mcr	15, 0, r0, cr7, cr10, {1}
480005c4:	e0800002 	add	r0, r0, r2
480005c8:	e1500001 	cmp	r0, r1
480005cc:	3afffffb 	bcc	480005c0 <arm_clean_dcache_mva_range+0x20>
480005d0:	f57ff04f 	dsb	sy
480005d4:	f57ff06f 	isb	sy
480005d8:	e8bd000f 	pop	{r0, r1, r2, r3}
480005dc:	e12fff1e 	bx	lr

480005e0 <arm_clean_invalidate_dcache_mva_range>:
480005e0:	e92d000f 	push	{r0, r1, r2, r3}
480005e4:	ee103f30 	mrc	15, 0, r3, cr0, cr0, {1}
480005e8:	e1a03823 	lsr	r3, r3, #16
480005ec:	e203300f 	and	r3, r3, #15
480005f0:	e3a02004 	mov	r2, #4
480005f4:	e1a02312 	lsl	r2, r2, r3
480005f8:	e2423001 	sub	r3, r2, #1
480005fc:	e1c00003 	bic	r0, r0, r3
48000600:	ee070f3e 	mcr	15, 0, r0, cr7, cr14, {1}
48000604:	e0800002 	add	r0, r0, r2
48000608:	e1500001 	cmp	r0, r1
4800060c:	3afffffb 	bcc	48000600 <arm_clean_invalidate_dcache_mva_range+0x20>
48000610:	f57ff04f 	dsb	sy
48000614:	f57ff06f 	isb	sy
48000618:	e8bd000f 	pop	{r0, r1, r2, r3}
4800061c:	e12fff1e 	bx	lr

48000620 <arm_invalidate_icache>:
48000620:	e52d0004 	push	{r0}		; (str r0, [sp, #-4]!)
48000624:	e3a00000 	mov	r0, #0
48000628:	ee070f15 	mcr	15, 0, r0, cr7, cr5, {0}
4800062c:	f57ff06f 	isb	sy
48000630:	e49d0004 	pop	{r0}		; (ldr r0, [sp], #4)
48000634:	e12fff1e 	bx	lr
48000638:	000003ff 	.word	0x000003ff
4800063c:	00007fff 	.word	0x00007fff

48000640 <arm_mmu_syscall>:
48000640:	e52db004 	push	{fp}		; (str fp, [sp, #-4]!)
48000644:	e28db000 	add	fp, sp, #0
48000648:	e24dd014 	sub	sp, sp, #20
4800064c:	e50b0010 	str	r0, [fp, #-16]
48000650:	e3a03000 	mov	r3, #0
48000654:	e50b3008 	str	r3, [fp, #-8]
48000658:	e51b3010 	ldr	r3, [fp, #-16]
4800065c:	e5933040 	ldr	r3, [r3, #64]	; 0x40
48000660:	e5933000 	ldr	r3, [r3]
48000664:	e50b3008 	str	r3, [fp, #-8]
48000668:	e51b3008 	ldr	r3, [fp, #-8]
4800066c:	e3c334ff 	bic	r3, r3, #-16777216	; 0xff000000
48000670:	e50b3008 	str	r3, [fp, #-8]
48000674:	e51b3008 	ldr	r3, [fp, #-8]
48000678:	e3530001 	cmp	r3, #1
4800067c:	1a00000e 	bne	480006bc <arm_mmu_syscall+0x7c>
48000680:	e51b3010 	ldr	r3, [fp, #-16]
48000684:	e5933000 	ldr	r3, [r3]
48000688:	e3c3201f 	bic	r2, r3, #31
4800068c:	e51b3010 	ldr	r3, [fp, #-16]
48000690:	e5832000 	str	r2, [r3]
48000694:	e51b3010 	ldr	r3, [fp, #-16]
48000698:	e5933000 	ldr	r3, [r3]
4800069c:	e3832013 	orr	r2, r3, #19
480006a0:	e51b3010 	ldr	r3, [fp, #-16]
480006a4:	e5832000 	str	r2, [r3]
480006a8:	e51b3010 	ldr	r3, [fp, #-16]
480006ac:	e5933040 	ldr	r3, [r3, #64]	; 0x40
480006b0:	e2832004 	add	r2, r3, #4
480006b4:	e51b3010 	ldr	r3, [fp, #-16]
480006b8:	e5832040 	str	r2, [r3, #64]	; 0x40
480006bc:	e24bd000 	sub	sp, fp, #0
480006c0:	e49db004 	pop	{fp}		; (ldr fp, [sp], #4)
480006c4:	e12fff1e 	bx	lr

480006c8 <arm_mmu_prefetch_abort>:
480006c8:	e52db004 	push	{fp}		; (str fp, [sp, #-4]!)
480006cc:	e28db000 	add	fp, sp, #0
480006d0:	e24dd024 	sub	sp, sp, #36	; 0x24
480006d4:	e50b0020 	str	r0, [fp, #-32]
480006d8:	ee153f30 	mrc	15, 0, r3, cr5, cr0, {1}
480006dc:	e50b3008 	str	r3, [fp, #-8]
480006e0:	e51b3008 	ldr	r3, [fp, #-8]
480006e4:	e50b300c 	str	r3, [fp, #-12]
480006e8:	ee163f50 	mrc	15, 0, r3, cr6, cr0, {2}
480006ec:	e50b3010 	str	r3, [fp, #-16]
480006f0:	e51b3010 	ldr	r3, [fp, #-16]
480006f4:	e50b3014 	str	r3, [fp, #-20]
480006f8:	e51b300c 	ldr	r3, [fp, #-12]
480006fc:	e2033b01 	and	r3, r3, #1024	; 0x400
48000700:	e1a03523 	lsr	r3, r3, #10
48000704:	e50b3018 	str	r3, [fp, #-24]
48000708:	e51b3018 	ldr	r3, [fp, #-24]
4800070c:	e1a02203 	lsl	r2, r3, #4
48000710:	e51b300c 	ldr	r3, [fp, #-12]
48000714:	e203300f 	and	r3, r3, #15
48000718:	e1823003 	orr	r3, r2, r3
4800071c:	e50b3018 	str	r3, [fp, #-24]
48000720:	e304300c 	movw	r3, #16396	; 0x400c
48000724:	e3443802 	movt	r3, #18434	; 0x4802
48000728:	e5933000 	ldr	r3, [r3]
4800072c:	e51b2018 	ldr	r2, [fp, #-24]
48000730:	e1520003 	cmp	r2, r3
48000734:	1a000009 	bne	48000760 <arm_mmu_prefetch_abort+0x98>
48000738:	e30c3008 	movw	r3, #49160	; 0xc008
4800073c:	e3443801 	movt	r3, #18433	; 0x4801
48000740:	e5933000 	ldr	r3, [r3]
48000744:	e51b2014 	ldr	r2, [fp, #-20]
48000748:	e1520003 	cmp	r2, r3
4800074c:	1a000003 	bne	48000760 <arm_mmu_prefetch_abort+0x98>
48000750:	e30c3004 	movw	r3, #49156	; 0xc004
48000754:	e3443801 	movt	r3, #18433	; 0x4801
48000758:	e3a02001 	mov	r2, #1
4800075c:	e5832000 	str	r2, [r3]
48000760:	e51b3020 	ldr	r3, [fp, #-32]
48000764:	e5933040 	ldr	r3, [r3, #64]	; 0x40
48000768:	e2832004 	add	r2, r3, #4
4800076c:	e51b3020 	ldr	r3, [fp, #-32]
48000770:	e5832040 	str	r2, [r3, #64]	; 0x40
48000774:	e24bd000 	sub	sp, fp, #0
48000778:	e49db004 	pop	{fp}		; (ldr fp, [sp], #4)
4800077c:	e12fff1e 	bx	lr

48000780 <arm_mmu_data_abort>:
48000780:	e52db004 	push	{fp}		; (str fp, [sp, #-4]!)
48000784:	e28db000 	add	fp, sp, #0
48000788:	e24dd02c 	sub	sp, sp, #44	; 0x2c
4800078c:	e50b0028 	str	r0, [fp, #-40]	; 0x28
48000790:	ee153f10 	mrc	15, 0, r3, cr5, cr0, {0}
48000794:	e50b3008 	str	r3, [fp, #-8]
48000798:	e51b3008 	ldr	r3, [fp, #-8]
4800079c:	e50b300c 	str	r3, [fp, #-12]
480007a0:	ee163f10 	mrc	15, 0, r3, cr6, cr0, {0}
480007a4:	e50b3010 	str	r3, [fp, #-16]
480007a8:	e51b3010 	ldr	r3, [fp, #-16]
480007ac:	e50b3014 	str	r3, [fp, #-20]
480007b0:	e51b300c 	ldr	r3, [fp, #-12]
480007b4:	e2033b01 	and	r3, r3, #1024	; 0x400
480007b8:	e1a03523 	lsr	r3, r3, #10
480007bc:	e50b3018 	str	r3, [fp, #-24]
480007c0:	e51b3018 	ldr	r3, [fp, #-24]
480007c4:	e1a02203 	lsl	r2, r3, #4
480007c8:	e51b300c 	ldr	r3, [fp, #-12]
480007cc:	e203300f 	and	r3, r3, #15
480007d0:	e1823003 	orr	r3, r2, r3
480007d4:	e50b3018 	str	r3, [fp, #-24]
480007d8:	e51b300c 	ldr	r3, [fp, #-12]
480007dc:	e2033b02 	and	r3, r3, #2048	; 0x800
480007e0:	e1a035a3 	lsr	r3, r3, #11
480007e4:	e50b301c 	str	r3, [fp, #-28]
480007e8:	e3043010 	movw	r3, #16400	; 0x4010
480007ec:	e3443802 	movt	r3, #18434	; 0x4802
480007f0:	e5933000 	ldr	r3, [r3]
480007f4:	e50b3020 	str	r3, [fp, #-32]
480007f8:	e3043000 	movw	r3, #16384	; 0x4000
480007fc:	e3443802 	movt	r3, #18434	; 0x4802
48000800:	e5933000 	ldr	r3, [r3]
48000804:	e51b2018 	ldr	r2, [fp, #-24]
48000808:	e1520003 	cmp	r2, r3
4800080c:	1a000015 	bne	48000868 <arm_mmu_data_abort+0xe8>
48000810:	e3043004 	movw	r3, #16388	; 0x4004
48000814:	e3443802 	movt	r3, #18434	; 0x4802
48000818:	e5933000 	ldr	r3, [r3]
4800081c:	e51b2014 	ldr	r2, [fp, #-20]
48000820:	e1520003 	cmp	r2, r3
48000824:	1a00000f 	bne	48000868 <arm_mmu_data_abort+0xe8>
48000828:	e3043008 	movw	r3, #16392	; 0x4008
4800082c:	e3443802 	movt	r3, #18434	; 0x4802
48000830:	e5933000 	ldr	r3, [r3]
48000834:	e51b201c 	ldr	r2, [fp, #-28]
48000838:	e1520003 	cmp	r2, r3
4800083c:	1a000009 	bne	48000868 <arm_mmu_data_abort+0xe8>
48000840:	e3043010 	movw	r3, #16400	; 0x4010
48000844:	e3443802 	movt	r3, #18434	; 0x4802
48000848:	e5933000 	ldr	r3, [r3]
4800084c:	e51b2020 	ldr	r2, [fp, #-32]
48000850:	e1520003 	cmp	r2, r3
48000854:	1a000003 	bne	48000868 <arm_mmu_data_abort+0xe8>
48000858:	e30c3000 	movw	r3, #49152	; 0xc000
4800085c:	e3443801 	movt	r3, #18433	; 0x4801
48000860:	e3a02001 	mov	r2, #1
48000864:	e5832000 	str	r2, [r3]
48000868:	e51b3028 	ldr	r3, [fp, #-40]	; 0x28
4800086c:	e5933040 	ldr	r3, [r3, #64]	; 0x40
48000870:	e2832004 	add	r2, r3, #4
48000874:	e51b3028 	ldr	r3, [fp, #-40]	; 0x28
48000878:	e5832040 	str	r2, [r3, #64]	; 0x40
4800087c:	e24bd000 	sub	sp, fp, #0
48000880:	e49db004 	pop	{fp}		; (ldr fp, [sp], #4)
48000884:	e12fff1e 	bx	lr

48000888 <arm_mmu_section_test_iter>:
48000888:	e92d4800 	push	{fp, lr}
4800088c:	e28db004 	add	fp, sp, #4
48000890:	e24dd050 	sub	sp, sp, #80	; 0x50
48000894:	e50b0048 	str	r0, [fp, #-72]	; 0x48
48000898:	e50b104c 	str	r1, [fp, #-76]	; 0x4c
4800089c:	e50b2050 	str	r2, [fp, #-80]	; 0x50
480008a0:	e50b3054 	str	r3, [fp, #-84]	; 0x54
480008a4:	e3a03000 	mov	r3, #0
480008a8:	e50b3008 	str	r3, [fp, #-8]
480008ac:	e51b3048 	ldr	r3, [fp, #-72]	; 0x48
480008b0:	e1a03a03 	lsl	r3, r3, #20
480008b4:	e50b3008 	str	r3, [fp, #-8]
480008b8:	e3043000 	movw	r3, #16384	; 0x4000
480008bc:	e3443802 	movt	r3, #18434	; 0x4802
480008c0:	e3a02005 	mov	r2, #5
480008c4:	e5832000 	str	r2, [r3]
480008c8:	e51b2008 	ldr	r2, [fp, #-8]
480008cc:	e3043004 	movw	r3, #16388	; 0x4004
480008d0:	e3443802 	movt	r3, #18434	; 0x4802
480008d4:	e5832000 	str	r2, [r3]
480008d8:	e3043008 	movw	r3, #16392	; 0x4008
480008dc:	e3443802 	movt	r3, #18434	; 0x4802
480008e0:	e3a02001 	mov	r2, #1
480008e4:	e5832000 	str	r2, [r3]
480008e8:	e3043010 	movw	r3, #16400	; 0x4010
480008ec:	e3443802 	movt	r3, #18434	; 0x4802
480008f0:	e3a02000 	mov	r2, #0
480008f4:	e5832000 	str	r2, [r3]
480008f8:	e30c3000 	movw	r3, #49152	; 0xc000
480008fc:	e3443801 	movt	r3, #18433	; 0x4801
48000900:	e3a02000 	mov	r2, #0
48000904:	e5832000 	str	r2, [r3]
48000908:	e51b2008 	ldr	r2, [fp, #-8]
4800090c:	e30b3abe 	movw	r3, #47806	; 0xbabe
48000910:	e34c3001 	movt	r3, #49153	; 0xc001
48000914:	e5823000 	str	r3, [r2]
48000918:	e51b3050 	ldr	r3, [fp, #-80]	; 0x50
4800091c:	e5933000 	ldr	r3, [r3]
48000920:	e2832001 	add	r2, r3, #1
48000924:	e51b3050 	ldr	r3, [fp, #-80]	; 0x50
48000928:	e5832000 	str	r2, [r3]
4800092c:	e30c3000 	movw	r3, #49152	; 0xc000
48000930:	e3443801 	movt	r3, #18433	; 0x4801
48000934:	e5933000 	ldr	r3, [r3]
48000938:	e3530000 	cmp	r3, #0
4800093c:	0a000005 	beq	48000958 <arm_mmu_section_test_iter+0xd0>
48000940:	e51b3054 	ldr	r3, [fp, #-84]	; 0x54
48000944:	e5933000 	ldr	r3, [r3]
48000948:	e2832001 	add	r2, r3, #1
4800094c:	e51b3054 	ldr	r3, [fp, #-84]	; 0x54
48000950:	e5832000 	str	r2, [r3]
48000954:	ea000004 	b	4800096c <arm_mmu_section_test_iter+0xe4>
48000958:	e59b3004 	ldr	r3, [fp, #4]
4800095c:	e5933000 	ldr	r3, [r3]
48000960:	e2832001 	add	r2, r3, #1
48000964:	e59b3004 	ldr	r3, [fp, #4]
48000968:	e5832000 	str	r2, [r3]
4800096c:	e3043008 	movw	r3, #16392	; 0x4008
48000970:	e3443802 	movt	r3, #18434	; 0x4802
48000974:	e3a02000 	mov	r2, #0
48000978:	e5832000 	str	r2, [r3]
4800097c:	e30c3000 	movw	r3, #49152	; 0xc000
48000980:	e3443801 	movt	r3, #18433	; 0x4801
48000984:	e3a02000 	mov	r2, #0
48000988:	e5832000 	str	r2, [r3]
4800098c:	e51b3008 	ldr	r3, [fp, #-8]
48000990:	e5933000 	ldr	r3, [r3]
48000994:	e50b300c 	str	r3, [fp, #-12]
48000998:	e51b3050 	ldr	r3, [fp, #-80]	; 0x50
4800099c:	e5933000 	ldr	r3, [r3]
480009a0:	e2832001 	add	r2, r3, #1
480009a4:	e51b3050 	ldr	r3, [fp, #-80]	; 0x50
480009a8:	e5832000 	str	r2, [r3]
480009ac:	e30c3000 	movw	r3, #49152	; 0xc000
480009b0:	e3443801 	movt	r3, #18433	; 0x4801
480009b4:	e5933000 	ldr	r3, [r3]
480009b8:	e3530000 	cmp	r3, #0
480009bc:	0a000005 	beq	480009d8 <arm_mmu_section_test_iter+0x150>
480009c0:	e51b3054 	ldr	r3, [fp, #-84]	; 0x54
480009c4:	e5933000 	ldr	r3, [r3]
480009c8:	e2832001 	add	r2, r3, #1
480009cc:	e51b3054 	ldr	r3, [fp, #-84]	; 0x54
480009d0:	e5832000 	str	r2, [r3]
480009d4:	ea000004 	b	480009ec <arm_mmu_section_test_iter+0x164>
480009d8:	e59b3004 	ldr	r3, [fp, #4]
480009dc:	e5933000 	ldr	r3, [r3]
480009e0:	e2832001 	add	r2, r3, #1
480009e4:	e59b3004 	ldr	r3, [fp, #4]
480009e8:	e5832000 	str	r2, [r3]
480009ec:	e51b3048 	ldr	r3, [fp, #-72]	; 0x48
480009f0:	e1a02a03 	lsl	r2, r3, #20
480009f4:	e30f3ffc 	movw	r3, #65532	; 0xfffc
480009f8:	e3403007 	movt	r3, #7
480009fc:	e0823003 	add	r3, r2, r3
48000a00:	e50b3008 	str	r3, [fp, #-8]
48000a04:	e3043000 	movw	r3, #16384	; 0x4000
48000a08:	e3443802 	movt	r3, #18434	; 0x4802
48000a0c:	e3a02005 	mov	r2, #5
48000a10:	e5832000 	str	r2, [r3]
48000a14:	e51b2008 	ldr	r2, [fp, #-8]
48000a18:	e3043004 	movw	r3, #16388	; 0x4004
48000a1c:	e3443802 	movt	r3, #18434	; 0x4802
48000a20:	e5832000 	str	r2, [r3]
48000a24:	e3043008 	movw	r3, #16392	; 0x4008
48000a28:	e3443802 	movt	r3, #18434	; 0x4802
48000a2c:	e3a02001 	mov	r2, #1
48000a30:	e5832000 	str	r2, [r3]
48000a34:	e3043010 	movw	r3, #16400	; 0x4010
48000a38:	e3443802 	movt	r3, #18434	; 0x4802
48000a3c:	e3a02000 	mov	r2, #0
48000a40:	e5832000 	str	r2, [r3]
48000a44:	e30c3000 	movw	r3, #49152	; 0xc000
48000a48:	e3443801 	movt	r3, #18433	; 0x4801
48000a4c:	e3a02000 	mov	r2, #0
48000a50:	e5832000 	str	r2, [r3]
48000a54:	e51b2008 	ldr	r2, [fp, #-8]
48000a58:	e30b3abe 	movw	r3, #47806	; 0xbabe
48000a5c:	e34c3001 	movt	r3, #49153	; 0xc001
48000a60:	e5823000 	str	r3, [r2]
48000a64:	e51b3050 	ldr	r3, [fp, #-80]	; 0x50
48000a68:	e5933000 	ldr	r3, [r3]
48000a6c:	e2832001 	add	r2, r3, #1
48000a70:	e51b3050 	ldr	r3, [fp, #-80]	; 0x50
48000a74:	e5832000 	str	r2, [r3]
48000a78:	e30c3000 	movw	r3, #49152	; 0xc000
48000a7c:	e3443801 	movt	r3, #18433	; 0x4801
48000a80:	e5933000 	ldr	r3, [r3]
48000a84:	e3530000 	cmp	r3, #0
48000a88:	0a000005 	beq	48000aa4 <arm_mmu_section_test_iter+0x21c>
48000a8c:	e51b3054 	ldr	r3, [fp, #-84]	; 0x54
48000a90:	e5933000 	ldr	r3, [r3]
48000a94:	e2832001 	add	r2, r3, #1
48000a98:	e51b3054 	ldr	r3, [fp, #-84]	; 0x54
48000a9c:	e5832000 	str	r2, [r3]
48000aa0:	ea000004 	b	48000ab8 <arm_mmu_section_test_iter+0x230>
48000aa4:	e59b3004 	ldr	r3, [fp, #4]
48000aa8:	e5933000 	ldr	r3, [r3]
48000aac:	e2832001 	add	r2, r3, #1
48000ab0:	e59b3004 	ldr	r3, [fp, #4]
48000ab4:	e5832000 	str	r2, [r3]
48000ab8:	e3043008 	movw	r3, #16392	; 0x4008
48000abc:	e3443802 	movt	r3, #18434	; 0x4802
48000ac0:	e3a02000 	mov	r2, #0
48000ac4:	e5832000 	str	r2, [r3]
48000ac8:	e30c3000 	movw	r3, #49152	; 0xc000
48000acc:	e3443801 	movt	r3, #18433	; 0x4801
48000ad0:	e3a02000 	mov	r2, #0
48000ad4:	e5832000 	str	r2, [r3]
48000ad8:	e51b3008 	ldr	r3, [fp, #-8]
48000adc:	e5933000 	ldr	r3, [r3]
48000ae0:	e50b300c 	str	r3, [fp, #-12]
48000ae4:	e51b3050 	ldr	r3, [fp, #-80]	; 0x50
48000ae8:	e5933000 	ldr	r3, [r3]
48000aec:	e2832001 	add	r2, r3, #1
48000af0:	e51b3050 	ldr	r3, [fp, #-80]	; 0x50
48000af4:	e5832000 	str	r2, [r3]
48000af8:	e30c3000 	movw	r3, #49152	; 0xc000
48000afc:	e3443801 	movt	r3, #18433	; 0x4801
48000b00:	e5933000 	ldr	r3, [r3]
48000b04:	e3530000 	cmp	r3, #0
48000b08:	0a000005 	beq	48000b24 <arm_mmu_section_test_iter+0x29c>
48000b0c:	e51b3054 	ldr	r3, [fp, #-84]	; 0x54
48000b10:	e5933000 	ldr	r3, [r3]
48000b14:	e2832001 	add	r2, r3, #1
48000b18:	e51b3054 	ldr	r3, [fp, #-84]	; 0x54
48000b1c:	e5832000 	str	r2, [r3]
48000b20:	ea000004 	b	48000b38 <arm_mmu_section_test_iter+0x2b0>
48000b24:	e59b3004 	ldr	r3, [fp, #4]
48000b28:	e5933000 	ldr	r3, [r3]
48000b2c:	e2832001 	add	r2, r3, #1
48000b30:	e59b3004 	ldr	r3, [fp, #4]
48000b34:	e5832000 	str	r2, [r3]
48000b38:	e51b3048 	ldr	r3, [fp, #-72]	; 0x48
48000b3c:	e1a03a03 	lsl	r3, r3, #20
48000b40:	e243324f 	sub	r3, r3, #-268435452	; 0xf0000004
48000b44:	e24336ff 	sub	r3, r3, #267386880	; 0xff00000
48000b48:	e50b3008 	str	r3, [fp, #-8]
48000b4c:	e3043000 	movw	r3, #16384	; 0x4000
48000b50:	e3443802 	movt	r3, #18434	; 0x4802
48000b54:	e3a02005 	mov	r2, #5
48000b58:	e5832000 	str	r2, [r3]
48000b5c:	e51b2008 	ldr	r2, [fp, #-8]
48000b60:	e3043004 	movw	r3, #16388	; 0x4004
48000b64:	e3443802 	movt	r3, #18434	; 0x4802
48000b68:	e5832000 	str	r2, [r3]
48000b6c:	e3043008 	movw	r3, #16392	; 0x4008
48000b70:	e3443802 	movt	r3, #18434	; 0x4802
48000b74:	e3a02001 	mov	r2, #1
48000b78:	e5832000 	str	r2, [r3]
48000b7c:	e3043010 	movw	r3, #16400	; 0x4010
48000b80:	e3443802 	movt	r3, #18434	; 0x4802
48000b84:	e3a02000 	mov	r2, #0
48000b88:	e5832000 	str	r2, [r3]
48000b8c:	e30c3000 	movw	r3, #49152	; 0xc000
48000b90:	e3443801 	movt	r3, #18433	; 0x4801
48000b94:	e3a02000 	mov	r2, #0
48000b98:	e5832000 	str	r2, [r3]
48000b9c:	e51b2008 	ldr	r2, [fp, #-8]
48000ba0:	e30b3abe 	movw	r3, #47806	; 0xbabe
48000ba4:	e34c3001 	movt	r3, #49153	; 0xc001
48000ba8:	e5823000 	str	r3, [r2]
48000bac:	e51b3050 	ldr	r3, [fp, #-80]	; 0x50
48000bb0:	e5933000 	ldr	r3, [r3]
48000bb4:	e2832001 	add	r2, r3, #1
48000bb8:	e51b3050 	ldr	r3, [fp, #-80]	; 0x50
48000bbc:	e5832000 	str	r2, [r3]
48000bc0:	e30c3000 	movw	r3, #49152	; 0xc000
48000bc4:	e3443801 	movt	r3, #18433	; 0x4801
48000bc8:	e5933000 	ldr	r3, [r3]
48000bcc:	e3530000 	cmp	r3, #0
48000bd0:	0a000005 	beq	48000bec <arm_mmu_section_test_iter+0x364>
48000bd4:	e51b3054 	ldr	r3, [fp, #-84]	; 0x54
48000bd8:	e5933000 	ldr	r3, [r3]
48000bdc:	e2832001 	add	r2, r3, #1
48000be0:	e51b3054 	ldr	r3, [fp, #-84]	; 0x54
48000be4:	e5832000 	str	r2, [r3]
48000be8:	ea000004 	b	48000c00 <arm_mmu_section_test_iter+0x378>
48000bec:	e59b3004 	ldr	r3, [fp, #4]
48000bf0:	e5933000 	ldr	r3, [r3]
48000bf4:	e2832001 	add	r2, r3, #1
48000bf8:	e59b3004 	ldr	r3, [fp, #4]
48000bfc:	e5832000 	str	r2, [r3]
48000c00:	e3043008 	movw	r3, #16392	; 0x4008
48000c04:	e3443802 	movt	r3, #18434	; 0x4802
48000c08:	e3a02000 	mov	r2, #0
48000c0c:	e5832000 	str	r2, [r3]
48000c10:	e30c3000 	movw	r3, #49152	; 0xc000
48000c14:	e3443801 	movt	r3, #18433	; 0x4801
48000c18:	e3a02000 	mov	r2, #0
48000c1c:	e5832000 	str	r2, [r3]
48000c20:	e51b3008 	ldr	r3, [fp, #-8]
48000c24:	e5933000 	ldr	r3, [r3]
48000c28:	e50b300c 	str	r3, [fp, #-12]
48000c2c:	e51b3050 	ldr	r3, [fp, #-80]	; 0x50
48000c30:	e5933000 	ldr	r3, [r3]
48000c34:	e2832001 	add	r2, r3, #1
48000c38:	e51b3050 	ldr	r3, [fp, #-80]	; 0x50
48000c3c:	e5832000 	str	r2, [r3]
48000c40:	e30c3000 	movw	r3, #49152	; 0xc000
48000c44:	e3443801 	movt	r3, #18433	; 0x4801
48000c48:	e5933000 	ldr	r3, [r3]
48000c4c:	e3530000 	cmp	r3, #0
48000c50:	0a000005 	beq	48000c6c <arm_mmu_section_test_iter+0x3e4>
48000c54:	e51b3054 	ldr	r3, [fp, #-84]	; 0x54
48000c58:	e5933000 	ldr	r3, [r3]
48000c5c:	e2832001 	add	r2, r3, #1
48000c60:	e51b3054 	ldr	r3, [fp, #-84]	; 0x54
48000c64:	e5832000 	str	r2, [r3]
48000c68:	ea000004 	b	48000c80 <arm_mmu_section_test_iter+0x3f8>
48000c6c:	e59b3004 	ldr	r3, [fp, #4]
48000c70:	e5933000 	ldr	r3, [r3]
48000c74:	e2832001 	add	r2, r3, #1
48000c78:	e59b3004 	ldr	r3, [fp, #4]
48000c7c:	e5832000 	str	r2, [r3]
48000c80:	e3a03000 	mov	r3, #0
48000c84:	e50b300c 	str	r3, [fp, #-12]
48000c88:	e51b300c 	ldr	r3, [fp, #-12]
48000c8c:	e3833b03 	orr	r3, r3, #3072	; 0xc00
48000c90:	e50b300c 	str	r3, [fp, #-12]
48000c94:	e51b300c 	ldr	r3, [fp, #-12]
48000c98:	e3833008 	orr	r3, r3, #8
48000c9c:	e50b300c 	str	r3, [fp, #-12]
48000ca0:	e51b300c 	ldr	r3, [fp, #-12]
48000ca4:	e3833002 	orr	r3, r3, #2
48000ca8:	e50b300c 	str	r3, [fp, #-12]
48000cac:	e30c3808 	movw	r3, #51208	; 0xc808
48000cb0:	e3443801 	movt	r3, #18433	; 0x4801
48000cb4:	e5932000 	ldr	r2, [r3]
48000cb8:	e51b300c 	ldr	r3, [fp, #-12]
48000cbc:	e1821003 	orr	r1, r2, r3
48000cc0:	e3003000 	movw	r3, #0
48000cc4:	e3443802 	movt	r3, #18434	; 0x4802
48000cc8:	e51b2048 	ldr	r2, [fp, #-72]	; 0x48
48000ccc:	e7831102 	str	r1, [r3, r2, lsl #2]
48000cd0:	e30c3808 	movw	r3, #51208	; 0xc808
48000cd4:	e3443801 	movt	r3, #18433	; 0x4801
48000cd8:	e5932000 	ldr	r2, [r3]
48000cdc:	e51b300c 	ldr	r3, [fp, #-12]
48000ce0:	e1821003 	orr	r1, r2, r3
48000ce4:	e3003000 	movw	r3, #0
48000ce8:	e3443802 	movt	r3, #18434	; 0x4802
48000cec:	e51b204c 	ldr	r2, [fp, #-76]	; 0x4c
48000cf0:	e7831102 	str	r1, [r3, r2, lsl #2]
48000cf4:	e51b3048 	ldr	r3, [fp, #-72]	; 0x48
48000cf8:	e1a03a03 	lsl	r3, r3, #20
48000cfc:	e50b3008 	str	r3, [fp, #-8]
48000d00:	e51b2008 	ldr	r2, [fp, #-8]
48000d04:	e30b3abe 	movw	r3, #47806	; 0xbabe
48000d08:	e34c3001 	movt	r3, #49153	; 0xc001
48000d0c:	e5823000 	str	r3, [r2]
48000d10:	e51b3048 	ldr	r3, [fp, #-72]	; 0x48
48000d14:	e1a02a03 	lsl	r2, r3, #20
48000d18:	e30f3ff8 	movw	r3, #65528	; 0xfff8
48000d1c:	e3403007 	movt	r3, #7
48000d20:	e0823003 	add	r3, r2, r3
48000d24:	e50b3008 	str	r3, [fp, #-8]
48000d28:	e51b2008 	ldr	r2, [fp, #-8]
48000d2c:	e30b3abe 	movw	r3, #47806	; 0xbabe
48000d30:	e34c3001 	movt	r3, #49153	; 0xc001
48000d34:	e5823000 	str	r3, [r2]
48000d38:	e51b3048 	ldr	r3, [fp, #-72]	; 0x48
48000d3c:	e1a03a03 	lsl	r3, r3, #20
48000d40:	e243328f 	sub	r3, r3, #-268435448	; 0xf0000008
48000d44:	e24336ff 	sub	r3, r3, #267386880	; 0xff00000
48000d48:	e50b3008 	str	r3, [fp, #-8]
48000d4c:	e51b2008 	ldr	r2, [fp, #-8]
48000d50:	e30b3abe 	movw	r3, #47806	; 0xbabe
48000d54:	e34c3001 	movt	r3, #49153	; 0xc001
48000d58:	e5823000 	str	r3, [r2]
48000d5c:	e51b304c 	ldr	r3, [fp, #-76]	; 0x4c
48000d60:	e1a03a03 	lsl	r3, r3, #20
48000d64:	e50b3008 	str	r3, [fp, #-8]
48000d68:	e51b3008 	ldr	r3, [fp, #-8]
48000d6c:	e2832004 	add	r2, r3, #4
48000d70:	e30f3eed 	movw	r3, #65261	; 0xfeed
48000d74:	e34d300d 	movt	r3, #53261	; 0xd00d
48000d78:	e5823000 	str	r3, [r2]
48000d7c:	e51b304c 	ldr	r3, [fp, #-76]	; 0x4c
48000d80:	e1a02a03 	lsl	r2, r3, #20
48000d84:	e30f3ff8 	movw	r3, #65528	; 0xfff8
48000d88:	e3403007 	movt	r3, #7
48000d8c:	e0823003 	add	r3, r2, r3
48000d90:	e50b3008 	str	r3, [fp, #-8]
48000d94:	e51b3008 	ldr	r3, [fp, #-8]
48000d98:	e2832004 	add	r2, r3, #4
48000d9c:	e30f3eed 	movw	r3, #65261	; 0xfeed
48000da0:	e34d300d 	movt	r3, #53261	; 0xd00d
48000da4:	e5823000 	str	r3, [r2]
48000da8:	e51b304c 	ldr	r3, [fp, #-76]	; 0x4c
48000dac:	e1a03a03 	lsl	r3, r3, #20
48000db0:	e243328f 	sub	r3, r3, #-268435448	; 0xf0000008
48000db4:	e24336ff 	sub	r3, r3, #267386880	; 0xff00000
48000db8:	e50b3008 	str	r3, [fp, #-8]
48000dbc:	e51b3008 	ldr	r3, [fp, #-8]
48000dc0:	e2832004 	add	r2, r3, #4
48000dc4:	e30f3eed 	movw	r3, #65261	; 0xfeed
48000dc8:	e34d300d 	movt	r3, #53261	; 0xd00d
48000dcc:	e5823000 	str	r3, [r2]
48000dd0:	e51b3048 	ldr	r3, [fp, #-72]	; 0x48
48000dd4:	e1a03a03 	lsl	r3, r3, #20
48000dd8:	e50b3008 	str	r3, [fp, #-8]
48000ddc:	e51b3050 	ldr	r3, [fp, #-80]	; 0x50
48000de0:	e5933000 	ldr	r3, [r3]
48000de4:	e2832001 	add	r2, r3, #1
48000de8:	e51b3050 	ldr	r3, [fp, #-80]	; 0x50
48000dec:	e5832000 	str	r2, [r3]
48000df0:	e51b3008 	ldr	r3, [fp, #-8]
48000df4:	e5932000 	ldr	r2, [r3]
48000df8:	e30b3abe 	movw	r3, #47806	; 0xbabe
48000dfc:	e34c3001 	movt	r3, #49153	; 0xc001
48000e00:	e1520003 	cmp	r2, r3
48000e04:	1a00000c 	bne	48000e3c <arm_mmu_section_test_iter+0x5b4>
48000e08:	e51b3008 	ldr	r3, [fp, #-8]
48000e0c:	e2833004 	add	r3, r3, #4
48000e10:	e5932000 	ldr	r2, [r3]
48000e14:	e30f3eed 	movw	r3, #65261	; 0xfeed
48000e18:	e34d300d 	movt	r3, #53261	; 0xd00d
48000e1c:	e1520003 	cmp	r2, r3
48000e20:	1a000005 	bne	48000e3c <arm_mmu_section_test_iter+0x5b4>
48000e24:	e51b3054 	ldr	r3, [fp, #-84]	; 0x54
48000e28:	e5933000 	ldr	r3, [r3]
48000e2c:	e2832001 	add	r2, r3, #1
48000e30:	e51b3054 	ldr	r3, [fp, #-84]	; 0x54
48000e34:	e5832000 	str	r2, [r3]
48000e38:	ea000004 	b	48000e50 <arm_mmu_section_test_iter+0x5c8>
48000e3c:	e59b3004 	ldr	r3, [fp, #4]
48000e40:	e5933000 	ldr	r3, [r3]
48000e44:	e2832001 	add	r2, r3, #1
48000e48:	e59b3004 	ldr	r3, [fp, #4]
48000e4c:	e5832000 	str	r2, [r3]
48000e50:	e51b3048 	ldr	r3, [fp, #-72]	; 0x48
48000e54:	e1a02a03 	lsl	r2, r3, #20
48000e58:	e30f3ff8 	movw	r3, #65528	; 0xfff8
48000e5c:	e3403007 	movt	r3, #7
48000e60:	e0823003 	add	r3, r2, r3
48000e64:	e50b3008 	str	r3, [fp, #-8]
48000e68:	e51b3050 	ldr	r3, [fp, #-80]	; 0x50
48000e6c:	e5933000 	ldr	r3, [r3]
48000e70:	e2832001 	add	r2, r3, #1
48000e74:	e51b3050 	ldr	r3, [fp, #-80]	; 0x50
48000e78:	e5832000 	str	r2, [r3]
48000e7c:	e51b3008 	ldr	r3, [fp, #-8]
48000e80:	e5932000 	ldr	r2, [r3]
48000e84:	e30b3abe 	movw	r3, #47806	; 0xbabe
48000e88:	e34c3001 	movt	r3, #49153	; 0xc001
48000e8c:	e1520003 	cmp	r2, r3
48000e90:	1a00000c 	bne	48000ec8 <arm_mmu_section_test_iter+0x640>
48000e94:	e51b3008 	ldr	r3, [fp, #-8]
48000e98:	e2833004 	add	r3, r3, #4
48000e9c:	e5932000 	ldr	r2, [r3]
48000ea0:	e30f3eed 	movw	r3, #65261	; 0xfeed
48000ea4:	e34d300d 	movt	r3, #53261	; 0xd00d
48000ea8:	e1520003 	cmp	r2, r3
48000eac:	1a000005 	bne	48000ec8 <arm_mmu_section_test_iter+0x640>
48000eb0:	e51b3054 	ldr	r3, [fp, #-84]	; 0x54
48000eb4:	e5933000 	ldr	r3, [r3]
48000eb8:	e2832001 	add	r2, r3, #1
48000ebc:	e51b3054 	ldr	r3, [fp, #-84]	; 0x54
48000ec0:	e5832000 	str	r2, [r3]
48000ec4:	ea000004 	b	48000edc <arm_mmu_section_test_iter+0x654>
48000ec8:	e59b3004 	ldr	r3, [fp, #4]
48000ecc:	e5933000 	ldr	r3, [r3]
48000ed0:	e2832001 	add	r2, r3, #1
48000ed4:	e59b3004 	ldr	r3, [fp, #4]
48000ed8:	e5832000 	str	r2, [r3]
48000edc:	e51b3048 	ldr	r3, [fp, #-72]	; 0x48
48000ee0:	e1a03a03 	lsl	r3, r3, #20
48000ee4:	e243328f 	sub	r3, r3, #-268435448	; 0xf0000008
48000ee8:	e24336ff 	sub	r3, r3, #267386880	; 0xff00000
48000eec:	e50b3008 	str	r3, [fp, #-8]
48000ef0:	e51b3050 	ldr	r3, [fp, #-80]	; 0x50
48000ef4:	e5933000 	ldr	r3, [r3]
48000ef8:	e2832001 	add	r2, r3, #1
48000efc:	e51b3050 	ldr	r3, [fp, #-80]	; 0x50
48000f00:	e5832000 	str	r2, [r3]
48000f04:	e51b3008 	ldr	r3, [fp, #-8]
48000f08:	e5932000 	ldr	r2, [r3]
48000f0c:	e30b3abe 	movw	r3, #47806	; 0xbabe
48000f10:	e34c3001 	movt	r3, #49153	; 0xc001
48000f14:	e1520003 	cmp	r2, r3
48000f18:	1a00000c 	bne	48000f50 <arm_mmu_section_test_iter+0x6c8>
48000f1c:	e51b3008 	ldr	r3, [fp, #-8]
48000f20:	e2833004 	add	r3, r3, #4
48000f24:	e5932000 	ldr	r2, [r3]
48000f28:	e30f3eed 	movw	r3, #65261	; 0xfeed
48000f2c:	e34d300d 	movt	r3, #53261	; 0xd00d
48000f30:	e1520003 	cmp	r2, r3
48000f34:	1a000005 	bne	48000f50 <arm_mmu_section_test_iter+0x6c8>
48000f38:	e51b3054 	ldr	r3, [fp, #-84]	; 0x54
48000f3c:	e5933000 	ldr	r3, [r3]
48000f40:	e2832001 	add	r2, r3, #1
48000f44:	e51b3054 	ldr	r3, [fp, #-84]	; 0x54
48000f48:	e5832000 	str	r2, [r3]
48000f4c:	ea000004 	b	48000f64 <arm_mmu_section_test_iter+0x6dc>
48000f50:	e59b3004 	ldr	r3, [fp, #4]
48000f54:	e5933000 	ldr	r3, [r3]
48000f58:	e2832001 	add	r2, r3, #1
48000f5c:	e59b3004 	ldr	r3, [fp, #4]
48000f60:	e5832000 	str	r2, [r3]
48000f64:	e51b304c 	ldr	r3, [fp, #-76]	; 0x4c
48000f68:	e1a03a03 	lsl	r3, r3, #20
48000f6c:	e50b3008 	str	r3, [fp, #-8]
48000f70:	e51b3050 	ldr	r3, [fp, #-80]	; 0x50
48000f74:	e5933000 	ldr	r3, [r3]
48000f78:	e2832001 	add	r2, r3, #1
48000f7c:	e51b3050 	ldr	r3, [fp, #-80]	; 0x50
48000f80:	e5832000 	str	r2, [r3]
48000f84:	e51b3008 	ldr	r3, [fp, #-8]
48000f88:	e5932000 	ldr	r2, [r3]
48000f8c:	e30b3abe 	movw	r3, #47806	; 0xbabe
48000f90:	e34c3001 	movt	r3, #49153	; 0xc001
48000f94:	e1520003 	cmp	r2, r3
48000f98:	1a00000c 	bne	48000fd0 <arm_mmu_section_test_iter+0x748>
48000f9c:	e51b3008 	ldr	r3, [fp, #-8]
48000fa0:	e2833004 	add	r3, r3, #4
48000fa4:	e5932000 	ldr	r2, [r3]
48000fa8:	e30f3eed 	movw	r3, #65261	; 0xfeed
48000fac:	e34d300d 	movt	r3, #53261	; 0xd00d
48000fb0:	e1520003 	cmp	r2, r3
48000fb4:	1a000005 	bne	48000fd0 <arm_mmu_section_test_iter+0x748>
48000fb8:	e51b3054 	ldr	r3, [fp, #-84]	; 0x54
48000fbc:	e5933000 	ldr	r3, [r3]
48000fc0:	e2832001 	add	r2, r3, #1
48000fc4:	e51b3054 	ldr	r3, [fp, #-84]	; 0x54
48000fc8:	e5832000 	str	r2, [r3]
48000fcc:	ea000004 	b	48000fe4 <arm_mmu_section_test_iter+0x75c>
48000fd0:	e59b3004 	ldr	r3, [fp, #4]
48000fd4:	e5933000 	ldr	r3, [r3]
48000fd8:	e2832001 	add	r2, r3, #1
48000fdc:	e59b3004 	ldr	r3, [fp, #4]
48000fe0:	e5832000 	str	r2, [r3]
48000fe4:	e51b304c 	ldr	r3, [fp, #-76]	; 0x4c
48000fe8:	e1a02a03 	lsl	r2, r3, #20
48000fec:	e30f3ff8 	movw	r3, #65528	; 0xfff8
48000ff0:	e3403007 	movt	r3, #7
48000ff4:	e0823003 	add	r3, r2, r3
48000ff8:	e50b3008 	str	r3, [fp, #-8]
48000ffc:	e51b3050 	ldr	r3, [fp, #-80]	; 0x50
48001000:	e5933000 	ldr	r3, [r3]
48001004:	e2832001 	add	r2, r3, #1
48001008:	e51b3050 	ldr	r3, [fp, #-80]	; 0x50
4800100c:	e5832000 	str	r2, [r3]
48001010:	e51b3008 	ldr	r3, [fp, #-8]
48001014:	e5932000 	ldr	r2, [r3]
48001018:	e30b3abe 	movw	r3, #47806	; 0xbabe
4800101c:	e34c3001 	movt	r3, #49153	; 0xc001
48001020:	e1520003 	cmp	r2, r3
48001024:	1a00000c 	bne	4800105c <arm_mmu_section_test_iter+0x7d4>
48001028:	e51b3008 	ldr	r3, [fp, #-8]
4800102c:	e2833004 	add	r3, r3, #4
48001030:	e5932000 	ldr	r2, [r3]
48001034:	e30f3eed 	movw	r3, #65261	; 0xfeed
48001038:	e34d300d 	movt	r3, #53261	; 0xd00d
4800103c:	e1520003 	cmp	r2, r3
48001040:	1a000005 	bne	4800105c <arm_mmu_section_test_iter+0x7d4>
48001044:	e51b3054 	ldr	r3, [fp, #-84]	; 0x54
48001048:	e5933000 	ldr	r3, [r3]
4800104c:	e2832001 	add	r2, r3, #1
48001050:	e51b3054 	ldr	r3, [fp, #-84]	; 0x54
48001054:	e5832000 	str	r2, [r3]
48001058:	ea000004 	b	48001070 <arm_mmu_section_test_iter+0x7e8>
4800105c:	e59b3004 	ldr	r3, [fp, #4]
48001060:	e5933000 	ldr	r3, [r3]
48001064:	e2832001 	add	r2, r3, #1
48001068:	e59b3004 	ldr	r3, [fp, #4]
4800106c:	e5832000 	str	r2, [r3]
48001070:	e51b304c 	ldr	r3, [fp, #-76]	; 0x4c
48001074:	e1a03a03 	lsl	r3, r3, #20
48001078:	e243328f 	sub	r3, r3, #-268435448	; 0xf0000008
4800107c:	e24336ff 	sub	r3, r3, #267386880	; 0xff00000
48001080:	e50b3008 	str	r3, [fp, #-8]
48001084:	e51b3050 	ldr	r3, [fp, #-80]	; 0x50
48001088:	e5933000 	ldr	r3, [r3]
4800108c:	e2832001 	add	r2, r3, #1
48001090:	e51b3050 	ldr	r3, [fp, #-80]	; 0x50
48001094:	e5832000 	str	r2, [r3]
48001098:	e51b3008 	ldr	r3, [fp, #-8]
4800109c:	e5932000 	ldr	r2, [r3]
480010a0:	e30b3abe 	movw	r3, #47806	; 0xbabe
480010a4:	e34c3001 	movt	r3, #49153	; 0xc001
480010a8:	e1520003 	cmp	r2, r3
480010ac:	1a00000c 	bne	480010e4 <arm_mmu_section_test_iter+0x85c>
480010b0:	e51b3008 	ldr	r3, [fp, #-8]
480010b4:	e2833004 	add	r3, r3, #4
480010b8:	e5932000 	ldr	r2, [r3]
480010bc:	e30f3eed 	movw	r3, #65261	; 0xfeed
480010c0:	e34d300d 	movt	r3, #53261	; 0xd00d
480010c4:	e1520003 	cmp	r2, r3
480010c8:	1a000005 	bne	480010e4 <arm_mmu_section_test_iter+0x85c>
480010cc:	e51b3054 	ldr	r3, [fp, #-84]	; 0x54
480010d0:	e5933000 	ldr	r3, [r3]
480010d4:	e2832001 	add	r2, r3, #1
480010d8:	e51b3054 	ldr	r3, [fp, #-84]	; 0x54
480010dc:	e5832000 	str	r2, [r3]
480010e0:	ea000004 	b	480010f8 <arm_mmu_section_test_iter+0x870>
480010e4:	e59b3004 	ldr	r3, [fp, #4]
480010e8:	e5933000 	ldr	r3, [r3]
480010ec:	e2832001 	add	r2, r3, #1
480010f0:	e59b3004 	ldr	r3, [fp, #4]
480010f4:	e5832000 	str	r2, [r3]
480010f8:	e3003000 	movw	r3, #0
480010fc:	e3443802 	movt	r3, #18434	; 0x4802
48001100:	e51b2048 	ldr	r2, [fp, #-72]	; 0x48
48001104:	e3a01000 	mov	r1, #0
48001108:	e7831102 	str	r1, [r3, r2, lsl #2]
4800110c:	e3003000 	movw	r3, #0
48001110:	e3443802 	movt	r3, #18434	; 0x4802
48001114:	e51b204c 	ldr	r2, [fp, #-76]	; 0x4c
48001118:	e3a01000 	mov	r1, #0
4800111c:	e7831102 	str	r1, [r3, r2, lsl #2]
48001120:	e3a03000 	mov	r3, #0
48001124:	e50b3010 	str	r3, [fp, #-16]
48001128:	ee083f17 	mcr	15, 0, r3, cr8, cr7, {0}
4800112c:	e50b3010 	str	r3, [fp, #-16]
48001130:	e3a03000 	mov	r3, #0
48001134:	e50b300c 	str	r3, [fp, #-12]
48001138:	e51b300c 	ldr	r3, [fp, #-12]
4800113c:	e3833008 	orr	r3, r3, #8
48001140:	e50b300c 	str	r3, [fp, #-12]
48001144:	e51b300c 	ldr	r3, [fp, #-12]
48001148:	e3833002 	orr	r3, r3, #2
4800114c:	e50b300c 	str	r3, [fp, #-12]
48001150:	e30c3808 	movw	r3, #51208	; 0xc808
48001154:	e3443801 	movt	r3, #18433	; 0x4801
48001158:	e5932000 	ldr	r2, [r3]
4800115c:	e51b300c 	ldr	r3, [fp, #-12]
48001160:	e1821003 	orr	r1, r2, r3
48001164:	e3003000 	movw	r3, #0
48001168:	e3443802 	movt	r3, #18434	; 0x4802
4800116c:	e51b2048 	ldr	r2, [fp, #-72]	; 0x48
48001170:	e7831102 	str	r1, [r3, r2, lsl #2]
48001174:	e51b3048 	ldr	r3, [fp, #-72]	; 0x48
48001178:	e1a03a03 	lsl	r3, r3, #20
4800117c:	e50b3008 	str	r3, [fp, #-8]
48001180:	e3043000 	movw	r3, #16384	; 0x4000
48001184:	e3443802 	movt	r3, #18434	; 0x4802
48001188:	e3a0200d 	mov	r2, #13
4800118c:	e5832000 	str	r2, [r3]
48001190:	e51b2008 	ldr	r2, [fp, #-8]
48001194:	e3043004 	movw	r3, #16388	; 0x4004
48001198:	e3443802 	movt	r3, #18434	; 0x4802
4800119c:	e5832000 	str	r2, [r3]
480011a0:	e3043008 	movw	r3, #16392	; 0x4008
480011a4:	e3443802 	movt	r3, #18434	; 0x4802
480011a8:	e3a02001 	mov	r2, #1
480011ac:	e5832000 	str	r2, [r3]
480011b0:	e3043010 	movw	r3, #16400	; 0x4010
480011b4:	e3443802 	movt	r3, #18434	; 0x4802
480011b8:	e3a02000 	mov	r2, #0
480011bc:	e5832000 	str	r2, [r3]
480011c0:	e30c3000 	movw	r3, #49152	; 0xc000
480011c4:	e3443801 	movt	r3, #18433	; 0x4801
480011c8:	e3a02000 	mov	r2, #0
480011cc:	e5832000 	str	r2, [r3]
480011d0:	e51b2008 	ldr	r2, [fp, #-8]
480011d4:	e30b3abe 	movw	r3, #47806	; 0xbabe
480011d8:	e34c3001 	movt	r3, #49153	; 0xc001
480011dc:	e5823000 	str	r3, [r2]
480011e0:	e51b3050 	ldr	r3, [fp, #-80]	; 0x50
480011e4:	e5933000 	ldr	r3, [r3]
480011e8:	e2832001 	add	r2, r3, #1
480011ec:	e51b3050 	ldr	r3, [fp, #-80]	; 0x50
480011f0:	e5832000 	str	r2, [r3]
480011f4:	e30c3000 	movw	r3, #49152	; 0xc000
480011f8:	e3443801 	movt	r3, #18433	; 0x4801
480011fc:	e5933000 	ldr	r3, [r3]
48001200:	e3530000 	cmp	r3, #0
48001204:	0a000005 	beq	48001220 <arm_mmu_section_test_iter+0x998>
48001208:	e51b3054 	ldr	r3, [fp, #-84]	; 0x54
4800120c:	e5933000 	ldr	r3, [r3]
48001210:	e2832001 	add	r2, r3, #1
48001214:	e51b3054 	ldr	r3, [fp, #-84]	; 0x54
48001218:	e5832000 	str	r2, [r3]
4800121c:	ea000004 	b	48001234 <arm_mmu_section_test_iter+0x9ac>
48001220:	e59b3004 	ldr	r3, [fp, #4]
48001224:	e5933000 	ldr	r3, [r3]
48001228:	e2832001 	add	r2, r3, #1
4800122c:	e59b3004 	ldr	r3, [fp, #4]
48001230:	e5832000 	str	r2, [r3]
48001234:	e3043008 	movw	r3, #16392	; 0x4008
48001238:	e3443802 	movt	r3, #18434	; 0x4802
4800123c:	e3a02000 	mov	r2, #0
48001240:	e5832000 	str	r2, [r3]
48001244:	e30c3000 	movw	r3, #49152	; 0xc000
48001248:	e3443801 	movt	r3, #18433	; 0x4801
4800124c:	e3a02000 	mov	r2, #0
48001250:	e5832000 	str	r2, [r3]
48001254:	e51b3008 	ldr	r3, [fp, #-8]
48001258:	e5933000 	ldr	r3, [r3]
4800125c:	e50b300c 	str	r3, [fp, #-12]
48001260:	e51b3050 	ldr	r3, [fp, #-80]	; 0x50
48001264:	e5933000 	ldr	r3, [r3]
48001268:	e2832001 	add	r2, r3, #1
4800126c:	e51b3050 	ldr	r3, [fp, #-80]	; 0x50
48001270:	e5832000 	str	r2, [r3]
48001274:	e30c3000 	movw	r3, #49152	; 0xc000
48001278:	e3443801 	movt	r3, #18433	; 0x4801
4800127c:	e5933000 	ldr	r3, [r3]
48001280:	e3530000 	cmp	r3, #0
48001284:	0a000005 	beq	480012a0 <arm_mmu_section_test_iter+0xa18>
48001288:	e51b3054 	ldr	r3, [fp, #-84]	; 0x54
4800128c:	e5933000 	ldr	r3, [r3]
48001290:	e2832001 	add	r2, r3, #1
48001294:	e51b3054 	ldr	r3, [fp, #-84]	; 0x54
48001298:	e5832000 	str	r2, [r3]
4800129c:	ea000004 	b	480012b4 <arm_mmu_section_test_iter+0xa2c>
480012a0:	e59b3004 	ldr	r3, [fp, #4]
480012a4:	e5933000 	ldr	r3, [r3]
480012a8:	e2832001 	add	r2, r3, #1
480012ac:	e59b3004 	ldr	r3, [fp, #4]
480012b0:	e5832000 	str	r2, [r3]
480012b4:	e3003000 	movw	r3, #0
480012b8:	e3443802 	movt	r3, #18434	; 0x4802
480012bc:	e51b2048 	ldr	r2, [fp, #-72]	; 0x48
480012c0:	e3a01000 	mov	r1, #0
480012c4:	e7831102 	str	r1, [r3, r2, lsl #2]
480012c8:	e3a03000 	mov	r3, #0
480012cc:	e50b3014 	str	r3, [fp, #-20]
480012d0:	ee083f17 	mcr	15, 0, r3, cr8, cr7, {0}
480012d4:	e50b3014 	str	r3, [fp, #-20]
480012d8:	e3a03000 	mov	r3, #0
480012dc:	e50b300c 	str	r3, [fp, #-12]
480012e0:	e51b300c 	ldr	r3, [fp, #-12]
480012e4:	e3833020 	orr	r3, r3, #32
480012e8:	e50b300c 	str	r3, [fp, #-12]
480012ec:	e51b300c 	ldr	r3, [fp, #-12]
480012f0:	e3833008 	orr	r3, r3, #8
480012f4:	e50b300c 	str	r3, [fp, #-12]
480012f8:	e51b300c 	ldr	r3, [fp, #-12]
480012fc:	e3833002 	orr	r3, r3, #2
48001300:	e50b300c 	str	r3, [fp, #-12]
48001304:	e30c3808 	movw	r3, #51208	; 0xc808
48001308:	e3443801 	movt	r3, #18433	; 0x4801
4800130c:	e5932000 	ldr	r2, [r3]
48001310:	e51b300c 	ldr	r3, [fp, #-12]
48001314:	e1821003 	orr	r1, r2, r3
48001318:	e3003000 	movw	r3, #0
4800131c:	e3443802 	movt	r3, #18434	; 0x4802
48001320:	e51b2048 	ldr	r2, [fp, #-72]	; 0x48
48001324:	e7831102 	str	r1, [r3, r2, lsl #2]
48001328:	e51b3048 	ldr	r3, [fp, #-72]	; 0x48
4800132c:	e1a03a03 	lsl	r3, r3, #20
48001330:	e50b3008 	str	r3, [fp, #-8]
48001334:	e51b2008 	ldr	r2, [fp, #-8]
48001338:	e30b3abe 	movw	r3, #47806	; 0xbabe
4800133c:	e34c3001 	movt	r3, #49153	; 0xc001
48001340:	e5823000 	str	r3, [r2]
48001344:	e51b3008 	ldr	r3, [fp, #-8]
48001348:	e2832004 	add	r2, r3, #4
4800134c:	e30f3eed 	movw	r3, #65261	; 0xfeed
48001350:	e34d300d 	movt	r3, #53261	; 0xd00d
48001354:	e5823000 	str	r3, [r2]
48001358:	e51b3048 	ldr	r3, [fp, #-72]	; 0x48
4800135c:	e1a03a03 	lsl	r3, r3, #20
48001360:	e243328f 	sub	r3, r3, #-268435448	; 0xf0000008
48001364:	e24336ff 	sub	r3, r3, #267386880	; 0xff00000
48001368:	e50b3008 	str	r3, [fp, #-8]
4800136c:	e51b2008 	ldr	r2, [fp, #-8]
48001370:	e30b3abe 	movw	r3, #47806	; 0xbabe
48001374:	e34c3001 	movt	r3, #49153	; 0xc001
48001378:	e5823000 	str	r3, [r2]
4800137c:	e51b3008 	ldr	r3, [fp, #-8]
48001380:	e2832004 	add	r2, r3, #4
48001384:	e30f3eed 	movw	r3, #65261	; 0xfeed
48001388:	e34d300d 	movt	r3, #53261	; 0xd00d
4800138c:	e5823000 	str	r3, [r2]
48001390:	e51b3048 	ldr	r3, [fp, #-72]	; 0x48
48001394:	e1a03a03 	lsl	r3, r3, #20
48001398:	e50b3008 	str	r3, [fp, #-8]
4800139c:	e51b3050 	ldr	r3, [fp, #-80]	; 0x50
480013a0:	e5933000 	ldr	r3, [r3]
480013a4:	e2832001 	add	r2, r3, #1
480013a8:	e51b3050 	ldr	r3, [fp, #-80]	; 0x50
480013ac:	e5832000 	str	r2, [r3]
480013b0:	e51b3008 	ldr	r3, [fp, #-8]
480013b4:	e5932000 	ldr	r2, [r3]
480013b8:	e30b3abe 	movw	r3, #47806	; 0xbabe
480013bc:	e34c3001 	movt	r3, #49153	; 0xc001
480013c0:	e1520003 	cmp	r2, r3
480013c4:	1a00000c 	bne	480013fc <arm_mmu_section_test_iter+0xb74>
480013c8:	e51b3008 	ldr	r3, [fp, #-8]
480013cc:	e2833004 	add	r3, r3, #4
480013d0:	e5932000 	ldr	r2, [r3]
480013d4:	e30f3eed 	movw	r3, #65261	; 0xfeed
480013d8:	e34d300d 	movt	r3, #53261	; 0xd00d
480013dc:	e1520003 	cmp	r2, r3
480013e0:	1a000005 	bne	480013fc <arm_mmu_section_test_iter+0xb74>
480013e4:	e51b3054 	ldr	r3, [fp, #-84]	; 0x54
480013e8:	e5933000 	ldr	r3, [r3]
480013ec:	e2832001 	add	r2, r3, #1
480013f0:	e51b3054 	ldr	r3, [fp, #-84]	; 0x54
480013f4:	e5832000 	str	r2, [r3]
480013f8:	ea000004 	b	48001410 <arm_mmu_section_test_iter+0xb88>
480013fc:	e59b3004 	ldr	r3, [fp, #4]
48001400:	e5933000 	ldr	r3, [r3]
48001404:	e2832001 	add	r2, r3, #1
48001408:	e59b3004 	ldr	r3, [fp, #4]
4800140c:	e5832000 	str	r2, [r3]
48001410:	e51b3048 	ldr	r3, [fp, #-72]	; 0x48
48001414:	e1a03a03 	lsl	r3, r3, #20
48001418:	e243328f 	sub	r3, r3, #-268435448	; 0xf0000008
4800141c:	e24336ff 	sub	r3, r3, #267386880	; 0xff00000
48001420:	e50b3008 	str	r3, [fp, #-8]
48001424:	e51b3050 	ldr	r3, [fp, #-80]	; 0x50
48001428:	e5933000 	ldr	r3, [r3]
4800142c:	e2832001 	add	r2, r3, #1
48001430:	e51b3050 	ldr	r3, [fp, #-80]	; 0x50
48001434:	e5832000 	str	r2, [r3]
48001438:	e51b3008 	ldr	r3, [fp, #-8]
4800143c:	e5932000 	ldr	r2, [r3]
48001440:	e30b3abe 	movw	r3, #47806	; 0xbabe
48001444:	e34c3001 	movt	r3, #49153	; 0xc001
48001448:	e1520003 	cmp	r2, r3
4800144c:	1a00000c 	bne	48001484 <arm_mmu_section_test_iter+0xbfc>
48001450:	e51b3008 	ldr	r3, [fp, #-8]
48001454:	e2833004 	add	r3, r3, #4
48001458:	e5932000 	ldr	r2, [r3]
4800145c:	e30f3eed 	movw	r3, #65261	; 0xfeed
48001460:	e34d300d 	movt	r3, #53261	; 0xd00d
48001464:	e1520003 	cmp	r2, r3
48001468:	1a000005 	bne	48001484 <arm_mmu_section_test_iter+0xbfc>
4800146c:	e51b3054 	ldr	r3, [fp, #-84]	; 0x54
48001470:	e5933000 	ldr	r3, [r3]
48001474:	e2832001 	add	r2, r3, #1
48001478:	e51b3054 	ldr	r3, [fp, #-84]	; 0x54
4800147c:	e5832000 	str	r2, [r3]
48001480:	ea000004 	b	48001498 <arm_mmu_section_test_iter+0xc10>
48001484:	e59b3004 	ldr	r3, [fp, #4]
48001488:	e5933000 	ldr	r3, [r3]
4800148c:	e2832001 	add	r2, r3, #1
48001490:	e59b3004 	ldr	r3, [fp, #4]
48001494:	e5832000 	str	r2, [r3]
48001498:	e3003000 	movw	r3, #0
4800149c:	e3443802 	movt	r3, #18434	; 0x4802
480014a0:	e51b2048 	ldr	r2, [fp, #-72]	; 0x48
480014a4:	e3a01000 	mov	r1, #0
480014a8:	e7831102 	str	r1, [r3, r2, lsl #2]
480014ac:	e3a03000 	mov	r3, #0
480014b0:	e50b3018 	str	r3, [fp, #-24]
480014b4:	ee083f17 	mcr	15, 0, r3, cr8, cr7, {0}
480014b8:	e50b3018 	str	r3, [fp, #-24]
480014bc:	e3a03000 	mov	r3, #0
480014c0:	e50b300c 	str	r3, [fp, #-12]
480014c4:	e51b300c 	ldr	r3, [fp, #-12]
480014c8:	e3833040 	orr	r3, r3, #64	; 0x40
480014cc:	e50b300c 	str	r3, [fp, #-12]
480014d0:	e51b300c 	ldr	r3, [fp, #-12]
480014d4:	e3833b03 	orr	r3, r3, #3072	; 0xc00
480014d8:	e50b300c 	str	r3, [fp, #-12]
480014dc:	e51b300c 	ldr	r3, [fp, #-12]
480014e0:	e3833008 	orr	r3, r3, #8
480014e4:	e50b300c 	str	r3, [fp, #-12]
480014e8:	e51b300c 	ldr	r3, [fp, #-12]
480014ec:	e3833002 	orr	r3, r3, #2
480014f0:	e50b300c 	str	r3, [fp, #-12]
480014f4:	e30c3808 	movw	r3, #51208	; 0xc808
480014f8:	e3443801 	movt	r3, #18433	; 0x4801
480014fc:	e5932000 	ldr	r2, [r3]
48001500:	e51b300c 	ldr	r3, [fp, #-12]
48001504:	e1821003 	orr	r1, r2, r3
48001508:	e3003000 	movw	r3, #0
4800150c:	e3443802 	movt	r3, #18434	; 0x4802
48001510:	e51b2048 	ldr	r2, [fp, #-72]	; 0x48
48001514:	e7831102 	str	r1, [r3, r2, lsl #2]
48001518:	e51b3048 	ldr	r3, [fp, #-72]	; 0x48
4800151c:	e1a03a03 	lsl	r3, r3, #20
48001520:	e50b3008 	str	r3, [fp, #-8]
48001524:	e3043000 	movw	r3, #16384	; 0x4000
48001528:	e3443802 	movt	r3, #18434	; 0x4802
4800152c:	e3a02009 	mov	r2, #9
48001530:	e5832000 	str	r2, [r3]
48001534:	e51b2008 	ldr	r2, [fp, #-8]
48001538:	e3043004 	movw	r3, #16388	; 0x4004
4800153c:	e3443802 	movt	r3, #18434	; 0x4802
48001540:	e5832000 	str	r2, [r3]
48001544:	e3043008 	movw	r3, #16392	; 0x4008
48001548:	e3443802 	movt	r3, #18434	; 0x4802
4800154c:	e3a02001 	mov	r2, #1
48001550:	e5832000 	str	r2, [r3]
48001554:	e3043010 	movw	r3, #16400	; 0x4010
48001558:	e3443802 	movt	r3, #18434	; 0x4802
4800155c:	e3a02002 	mov	r2, #2
48001560:	e5832000 	str	r2, [r3]
48001564:	e30c3000 	movw	r3, #49152	; 0xc000
48001568:	e3443801 	movt	r3, #18433	; 0x4801
4800156c:	e3a02000 	mov	r2, #0
48001570:	e5832000 	str	r2, [r3]
48001574:	e51b2008 	ldr	r2, [fp, #-8]
48001578:	e30b3abe 	movw	r3, #47806	; 0xbabe
4800157c:	e34c3001 	movt	r3, #49153	; 0xc001
48001580:	e5823000 	str	r3, [r2]
48001584:	e51b3050 	ldr	r3, [fp, #-80]	; 0x50
48001588:	e5933000 	ldr	r3, [r3]
4800158c:	e2832001 	add	r2, r3, #1
48001590:	e51b3050 	ldr	r3, [fp, #-80]	; 0x50
48001594:	e5832000 	str	r2, [r3]
48001598:	e30c3000 	movw	r3, #49152	; 0xc000
4800159c:	e3443801 	movt	r3, #18433	; 0x4801
480015a0:	e5933000 	ldr	r3, [r3]
480015a4:	e3530000 	cmp	r3, #0
480015a8:	0a000005 	beq	480015c4 <arm_mmu_section_test_iter+0xd3c>
480015ac:	e51b3054 	ldr	r3, [fp, #-84]	; 0x54
480015b0:	e5933000 	ldr	r3, [r3]
480015b4:	e2832001 	add	r2, r3, #1
480015b8:	e51b3054 	ldr	r3, [fp, #-84]	; 0x54
480015bc:	e5832000 	str	r2, [r3]
480015c0:	ea000004 	b	480015d8 <arm_mmu_section_test_iter+0xd50>
480015c4:	e59b3004 	ldr	r3, [fp, #4]
480015c8:	e5933000 	ldr	r3, [r3]
480015cc:	e2832001 	add	r2, r3, #1
480015d0:	e59b3004 	ldr	r3, [fp, #4]
480015d4:	e5832000 	str	r2, [r3]
480015d8:	e3043008 	movw	r3, #16392	; 0x4008
480015dc:	e3443802 	movt	r3, #18434	; 0x4802
480015e0:	e3a02000 	mov	r2, #0
480015e4:	e5832000 	str	r2, [r3]
480015e8:	e30c3000 	movw	r3, #49152	; 0xc000
480015ec:	e3443801 	movt	r3, #18433	; 0x4801
480015f0:	e3a02000 	mov	r2, #0
480015f4:	e5832000 	str	r2, [r3]
480015f8:	e51b3008 	ldr	r3, [fp, #-8]
480015fc:	e5933000 	ldr	r3, [r3]
48001600:	e50b300c 	str	r3, [fp, #-12]
48001604:	e51b3050 	ldr	r3, [fp, #-80]	; 0x50
48001608:	e5933000 	ldr	r3, [r3]
4800160c:	e2832001 	add	r2, r3, #1
48001610:	e51b3050 	ldr	r3, [fp, #-80]	; 0x50
48001614:	e5832000 	str	r2, [r3]
48001618:	e30c3000 	movw	r3, #49152	; 0xc000
4800161c:	e3443801 	movt	r3, #18433	; 0x4801
48001620:	e5933000 	ldr	r3, [r3]
48001624:	e3530000 	cmp	r3, #0
48001628:	0a000005 	beq	48001644 <arm_mmu_section_test_iter+0xdbc>
4800162c:	e51b3054 	ldr	r3, [fp, #-84]	; 0x54
48001630:	e5933000 	ldr	r3, [r3]
48001634:	e2832001 	add	r2, r3, #1
48001638:	e51b3054 	ldr	r3, [fp, #-84]	; 0x54
4800163c:	e5832000 	str	r2, [r3]
48001640:	ea000004 	b	48001658 <arm_mmu_section_test_iter+0xdd0>
48001644:	e59b3004 	ldr	r3, [fp, #4]
48001648:	e5933000 	ldr	r3, [r3]
4800164c:	e2832001 	add	r2, r3, #1
48001650:	e59b3004 	ldr	r3, [fp, #4]
48001654:	e5832000 	str	r2, [r3]
48001658:	e51b3048 	ldr	r3, [fp, #-72]	; 0x48
4800165c:	e1a02a03 	lsl	r2, r3, #20
48001660:	e30f3ff8 	movw	r3, #65528	; 0xfff8
48001664:	e3403007 	movt	r3, #7
48001668:	e0823003 	add	r3, r2, r3
4800166c:	e50b3008 	str	r3, [fp, #-8]
48001670:	e51b2008 	ldr	r2, [fp, #-8]
48001674:	e3043004 	movw	r3, #16388	; 0x4004
48001678:	e3443802 	movt	r3, #18434	; 0x4802
4800167c:	e5832000 	str	r2, [r3]
48001680:	e3043008 	movw	r3, #16392	; 0x4008
48001684:	e3443802 	movt	r3, #18434	; 0x4802
48001688:	e3a02001 	mov	r2, #1
4800168c:	e5832000 	str	r2, [r3]
48001690:	e30c3000 	movw	r3, #49152	; 0xc000
48001694:	e3443801 	movt	r3, #18433	; 0x4801
48001698:	e3a02000 	mov	r2, #0
4800169c:	e5832000 	str	r2, [r3]
480016a0:	e51b2008 	ldr	r2, [fp, #-8]
480016a4:	e30b3abe 	movw	r3, #47806	; 0xbabe
480016a8:	e34c3001 	movt	r3, #49153	; 0xc001
480016ac:	e5823000 	str	r3, [r2]
480016b0:	e51b3050 	ldr	r3, [fp, #-80]	; 0x50
480016b4:	e5933000 	ldr	r3, [r3]
480016b8:	e2832001 	add	r2, r3, #1
480016bc:	e51b3050 	ldr	r3, [fp, #-80]	; 0x50
480016c0:	e5832000 	str	r2, [r3]
480016c4:	e30c3000 	movw	r3, #49152	; 0xc000
480016c8:	e3443801 	movt	r3, #18433	; 0x4801
480016cc:	e5933000 	ldr	r3, [r3]
480016d0:	e3530000 	cmp	r3, #0
480016d4:	0a000005 	beq	480016f0 <arm_mmu_section_test_iter+0xe68>
480016d8:	e51b3054 	ldr	r3, [fp, #-84]	; 0x54
480016dc:	e5933000 	ldr	r3, [r3]
480016e0:	e2832001 	add	r2, r3, #1
480016e4:	e51b3054 	ldr	r3, [fp, #-84]	; 0x54
480016e8:	e5832000 	str	r2, [r3]
480016ec:	ea000004 	b	48001704 <arm_mmu_section_test_iter+0xe7c>
480016f0:	e59b3004 	ldr	r3, [fp, #4]
480016f4:	e5933000 	ldr	r3, [r3]
480016f8:	e2832001 	add	r2, r3, #1
480016fc:	e59b3004 	ldr	r3, [fp, #4]
48001700:	e5832000 	str	r2, [r3]
48001704:	e3043008 	movw	r3, #16392	; 0x4008
48001708:	e3443802 	movt	r3, #18434	; 0x4802
4800170c:	e3a02000 	mov	r2, #0
48001710:	e5832000 	str	r2, [r3]
48001714:	e30c3000 	movw	r3, #49152	; 0xc000
48001718:	e3443801 	movt	r3, #18433	; 0x4801
4800171c:	e3a02000 	mov	r2, #0
48001720:	e5832000 	str	r2, [r3]
48001724:	e51b3008 	ldr	r3, [fp, #-8]
48001728:	e5933000 	ldr	r3, [r3]
4800172c:	e50b300c 	str	r3, [fp, #-12]
48001730:	e51b3050 	ldr	r3, [fp, #-80]	; 0x50
48001734:	e5933000 	ldr	r3, [r3]
48001738:	e2832001 	add	r2, r3, #1
4800173c:	e51b3050 	ldr	r3, [fp, #-80]	; 0x50
48001740:	e5832000 	str	r2, [r3]
48001744:	e30c3000 	movw	r3, #49152	; 0xc000
48001748:	e3443801 	movt	r3, #18433	; 0x4801
4800174c:	e5933000 	ldr	r3, [r3]
48001750:	e3530000 	cmp	r3, #0
48001754:	0a000005 	beq	48001770 <arm_mmu_section_test_iter+0xee8>
48001758:	e51b3054 	ldr	r3, [fp, #-84]	; 0x54
4800175c:	e5933000 	ldr	r3, [r3]
48001760:	e2832001 	add	r2, r3, #1
48001764:	e51b3054 	ldr	r3, [fp, #-84]	; 0x54
48001768:	e5832000 	str	r2, [r3]
4800176c:	ea000004 	b	48001784 <arm_mmu_section_test_iter+0xefc>
48001770:	e59b3004 	ldr	r3, [fp, #4]
48001774:	e5933000 	ldr	r3, [r3]
48001778:	e2832001 	add	r2, r3, #1
4800177c:	e59b3004 	ldr	r3, [fp, #4]
48001780:	e5832000 	str	r2, [r3]
48001784:	e51b3048 	ldr	r3, [fp, #-72]	; 0x48
48001788:	e1a03a03 	lsl	r3, r3, #20
4800178c:	e243328f 	sub	r3, r3, #-268435448	; 0xf0000008
48001790:	e24336ff 	sub	r3, r3, #267386880	; 0xff00000
48001794:	e50b3008 	str	r3, [fp, #-8]
48001798:	e51b2008 	ldr	r2, [fp, #-8]
4800179c:	e3043004 	movw	r3, #16388	; 0x4004
480017a0:	e3443802 	movt	r3, #18434	; 0x4802
480017a4:	e5832000 	str	r2, [r3]
480017a8:	e3043008 	movw	r3, #16392	; 0x4008
480017ac:	e3443802 	movt	r3, #18434	; 0x4802
480017b0:	e3a02001 	mov	r2, #1
480017b4:	e5832000 	str	r2, [r3]
480017b8:	e30c3000 	movw	r3, #49152	; 0xc000
480017bc:	e3443801 	movt	r3, #18433	; 0x4801
480017c0:	e3a02000 	mov	r2, #0
480017c4:	e5832000 	str	r2, [r3]
480017c8:	e51b2008 	ldr	r2, [fp, #-8]
480017cc:	e30b3abe 	movw	r3, #47806	; 0xbabe
480017d0:	e34c3001 	movt	r3, #49153	; 0xc001
480017d4:	e5823000 	str	r3, [r2]
480017d8:	e51b3050 	ldr	r3, [fp, #-80]	; 0x50
480017dc:	e5933000 	ldr	r3, [r3]
480017e0:	e2832001 	add	r2, r3, #1
480017e4:	e51b3050 	ldr	r3, [fp, #-80]	; 0x50
480017e8:	e5832000 	str	r2, [r3]
480017ec:	e30c3000 	movw	r3, #49152	; 0xc000
480017f0:	e3443801 	movt	r3, #18433	; 0x4801
480017f4:	e5933000 	ldr	r3, [r3]
480017f8:	e3530000 	cmp	r3, #0
480017fc:	0a000005 	beq	48001818 <arm_mmu_section_test_iter+0xf90>
48001800:	e51b3054 	ldr	r3, [fp, #-84]	; 0x54
48001804:	e5933000 	ldr	r3, [r3]
48001808:	e2832001 	add	r2, r3, #1
4800180c:	e51b3054 	ldr	r3, [fp, #-84]	; 0x54
48001810:	e5832000 	str	r2, [r3]
48001814:	ea000004 	b	4800182c <arm_mmu_section_test_iter+0xfa4>
48001818:	e59b3004 	ldr	r3, [fp, #4]
4800181c:	e5933000 	ldr	r3, [r3]
48001820:	e2832001 	add	r2, r3, #1
48001824:	e59b3004 	ldr	r3, [fp, #4]
48001828:	e5832000 	str	r2, [r3]
4800182c:	e3043008 	movw	r3, #16392	; 0x4008
48001830:	e3443802 	movt	r3, #18434	; 0x4802
48001834:	e3a02000 	mov	r2, #0
48001838:	e5832000 	str	r2, [r3]
4800183c:	e30c3000 	movw	r3, #49152	; 0xc000
48001840:	e3443801 	movt	r3, #18433	; 0x4801
48001844:	e3a02000 	mov	r2, #0
48001848:	e5832000 	str	r2, [r3]
4800184c:	e51b3008 	ldr	r3, [fp, #-8]
48001850:	e5933000 	ldr	r3, [r3]
48001854:	e50b300c 	str	r3, [fp, #-12]
48001858:	e51b3050 	ldr	r3, [fp, #-80]	; 0x50
4800185c:	e5933000 	ldr	r3, [r3]
48001860:	e2832001 	add	r2, r3, #1
48001864:	e51b3050 	ldr	r3, [fp, #-80]	; 0x50
48001868:	e5832000 	str	r2, [r3]
4800186c:	e30c3000 	movw	r3, #49152	; 0xc000
48001870:	e3443801 	movt	r3, #18433	; 0x4801
48001874:	e5933000 	ldr	r3, [r3]
48001878:	e3530000 	cmp	r3, #0
4800187c:	0a000005 	beq	48001898 <arm_mmu_section_test_iter+0x1010>
48001880:	e51b3054 	ldr	r3, [fp, #-84]	; 0x54
48001884:	e5933000 	ldr	r3, [r3]
48001888:	e2832001 	add	r2, r3, #1
4800188c:	e51b3054 	ldr	r3, [fp, #-84]	; 0x54
48001890:	e5832000 	str	r2, [r3]
48001894:	ea000004 	b	480018ac <arm_mmu_section_test_iter+0x1024>
48001898:	e59b3004 	ldr	r3, [fp, #4]
4800189c:	e5933000 	ldr	r3, [r3]
480018a0:	e2832001 	add	r2, r3, #1
480018a4:	e59b3004 	ldr	r3, [fp, #4]
480018a8:	e5832000 	str	r2, [r3]
480018ac:	e3003000 	movw	r3, #0
480018b0:	e3443802 	movt	r3, #18434	; 0x4802
480018b4:	e51b2048 	ldr	r2, [fp, #-72]	; 0x48
480018b8:	e3a01000 	mov	r1, #0
480018bc:	e7831102 	str	r1, [r3, r2, lsl #2]
480018c0:	e3a03000 	mov	r3, #0
480018c4:	e50b301c 	str	r3, [fp, #-28]
480018c8:	ee083f17 	mcr	15, 0, r3, cr8, cr7, {0}
480018cc:	e50b301c 	str	r3, [fp, #-28]
480018d0:	e3a03000 	mov	r3, #0
480018d4:	e50b300c 	str	r3, [fp, #-12]
480018d8:	e51b300c 	ldr	r3, [fp, #-12]
480018dc:	e3833008 	orr	r3, r3, #8
480018e0:	e50b300c 	str	r3, [fp, #-12]
480018e4:	e51b300c 	ldr	r3, [fp, #-12]
480018e8:	e3833002 	orr	r3, r3, #2
480018ec:	e50b300c 	str	r3, [fp, #-12]
480018f0:	e30c3808 	movw	r3, #51208	; 0xc808
480018f4:	e3443801 	movt	r3, #18433	; 0x4801
480018f8:	e5932000 	ldr	r2, [r3]
480018fc:	e51b300c 	ldr	r3, [fp, #-12]
48001900:	e1821003 	orr	r1, r2, r3
48001904:	e3003000 	movw	r3, #0
48001908:	e3443802 	movt	r3, #18434	; 0x4802
4800190c:	e51b2048 	ldr	r2, [fp, #-72]	; 0x48
48001910:	e7831102 	str	r1, [r3, r2, lsl #2]
48001914:	e51b3048 	ldr	r3, [fp, #-72]	; 0x48
48001918:	e1a03a03 	lsl	r3, r3, #20
4800191c:	e50b3008 	str	r3, [fp, #-8]
48001920:	e3043000 	movw	r3, #16384	; 0x4000
48001924:	e3443802 	movt	r3, #18434	; 0x4802
48001928:	e3a0200d 	mov	r2, #13
4800192c:	e5832000 	str	r2, [r3]
48001930:	e51b2008 	ldr	r2, [fp, #-8]
48001934:	e3043004 	movw	r3, #16388	; 0x4004
48001938:	e3443802 	movt	r3, #18434	; 0x4802
4800193c:	e5832000 	str	r2, [r3]
48001940:	e3043008 	movw	r3, #16392	; 0x4008
48001944:	e3443802 	movt	r3, #18434	; 0x4802
48001948:	e3a02001 	mov	r2, #1
4800194c:	e5832000 	str	r2, [r3]
48001950:	e3043010 	movw	r3, #16400	; 0x4010
48001954:	e3443802 	movt	r3, #18434	; 0x4802
48001958:	e3a02000 	mov	r2, #0
4800195c:	e5832000 	str	r2, [r3]
48001960:	e30c3000 	movw	r3, #49152	; 0xc000
48001964:	e3443801 	movt	r3, #18433	; 0x4801
48001968:	e3a02000 	mov	r2, #0
4800196c:	e5832000 	str	r2, [r3]
48001970:	e51b2008 	ldr	r2, [fp, #-8]
48001974:	e30b3abe 	movw	r3, #47806	; 0xbabe
48001978:	e34c3001 	movt	r3, #49153	; 0xc001
4800197c:	e5823000 	str	r3, [r2]
48001980:	e51b3050 	ldr	r3, [fp, #-80]	; 0x50
48001984:	e5933000 	ldr	r3, [r3]
48001988:	e2832001 	add	r2, r3, #1
4800198c:	e51b3050 	ldr	r3, [fp, #-80]	; 0x50
48001990:	e5832000 	str	r2, [r3]
48001994:	e30c3000 	movw	r3, #49152	; 0xc000
48001998:	e3443801 	movt	r3, #18433	; 0x4801
4800199c:	e5933000 	ldr	r3, [r3]
480019a0:	e3530000 	cmp	r3, #0
480019a4:	0a000005 	beq	480019c0 <arm_mmu_section_test_iter+0x1138>
480019a8:	e51b3054 	ldr	r3, [fp, #-84]	; 0x54
480019ac:	e5933000 	ldr	r3, [r3]
480019b0:	e2832001 	add	r2, r3, #1
480019b4:	e51b3054 	ldr	r3, [fp, #-84]	; 0x54
480019b8:	e5832000 	str	r2, [r3]
480019bc:	ea000004 	b	480019d4 <arm_mmu_section_test_iter+0x114c>
480019c0:	e59b3004 	ldr	r3, [fp, #4]
480019c4:	e5933000 	ldr	r3, [r3]
480019c8:	e2832001 	add	r2, r3, #1
480019cc:	e59b3004 	ldr	r3, [fp, #4]
480019d0:	e5832000 	str	r2, [r3]
480019d4:	e3043008 	movw	r3, #16392	; 0x4008
480019d8:	e3443802 	movt	r3, #18434	; 0x4802
480019dc:	e3a02000 	mov	r2, #0
480019e0:	e5832000 	str	r2, [r3]
480019e4:	e30c3000 	movw	r3, #49152	; 0xc000
480019e8:	e3443801 	movt	r3, #18433	; 0x4801
480019ec:	e3a02000 	mov	r2, #0
480019f0:	e5832000 	str	r2, [r3]
480019f4:	e51b3008 	ldr	r3, [fp, #-8]
480019f8:	e5933000 	ldr	r3, [r3]
480019fc:	e50b300c 	str	r3, [fp, #-12]
48001a00:	e51b3050 	ldr	r3, [fp, #-80]	; 0x50
48001a04:	e5933000 	ldr	r3, [r3]
48001a08:	e2832001 	add	r2, r3, #1
48001a0c:	e51b3050 	ldr	r3, [fp, #-80]	; 0x50
48001a10:	e5832000 	str	r2, [r3]
48001a14:	e30c3000 	movw	r3, #49152	; 0xc000
48001a18:	e3443801 	movt	r3, #18433	; 0x4801
48001a1c:	e5933000 	ldr	r3, [r3]
48001a20:	e3530000 	cmp	r3, #0
48001a24:	0a000005 	beq	48001a40 <arm_mmu_section_test_iter+0x11b8>
48001a28:	e51b3054 	ldr	r3, [fp, #-84]	; 0x54
48001a2c:	e5933000 	ldr	r3, [r3]
48001a30:	e2832001 	add	r2, r3, #1
48001a34:	e51b3054 	ldr	r3, [fp, #-84]	; 0x54
48001a38:	e5832000 	str	r2, [r3]
48001a3c:	ea000004 	b	48001a54 <arm_mmu_section_test_iter+0x11cc>
48001a40:	e59b3004 	ldr	r3, [fp, #4]
48001a44:	e5933000 	ldr	r3, [r3]
48001a48:	e2832001 	add	r2, r3, #1
48001a4c:	e59b3004 	ldr	r3, [fp, #4]
48001a50:	e5832000 	str	r2, [r3]
48001a54:	e3a00000 	mov	r0, #0
48001a58:	e3a01000 	mov	r1, #0
48001a5c:	ebfff9d7 	bl	480001c0 <_switch_to_user_mode>
48001a60:	e3043008 	movw	r3, #16392	; 0x4008
48001a64:	e3443802 	movt	r3, #18434	; 0x4802
48001a68:	e3a02001 	mov	r2, #1
48001a6c:	e5832000 	str	r2, [r3]
48001a70:	e30c3000 	movw	r3, #49152	; 0xc000
48001a74:	e3443801 	movt	r3, #18433	; 0x4801
48001a78:	e3a02000 	mov	r2, #0
48001a7c:	e5832000 	str	r2, [r3]
48001a80:	e51b2008 	ldr	r2, [fp, #-8]
48001a84:	e30b3abe 	movw	r3, #47806	; 0xbabe
48001a88:	e34c3001 	movt	r3, #49153	; 0xc001
48001a8c:	e5823000 	str	r3, [r2]
48001a90:	e51b3050 	ldr	r3, [fp, #-80]	; 0x50
48001a94:	e5933000 	ldr	r3, [r3]
48001a98:	e2832001 	add	r2, r3, #1
48001a9c:	e51b3050 	ldr	r3, [fp, #-80]	; 0x50
48001aa0:	e5832000 	str	r2, [r3]
48001aa4:	e30c3000 	movw	r3, #49152	; 0xc000
48001aa8:	e3443801 	movt	r3, #18433	; 0x4801
48001aac:	e5933000 	ldr	r3, [r3]
48001ab0:	e3530000 	cmp	r3, #0
48001ab4:	0a000005 	beq	48001ad0 <arm_mmu_section_test_iter+0x1248>
48001ab8:	e51b3054 	ldr	r3, [fp, #-84]	; 0x54
48001abc:	e5933000 	ldr	r3, [r3]
48001ac0:	e2832001 	add	r2, r3, #1
48001ac4:	e51b3054 	ldr	r3, [fp, #-84]	; 0x54
48001ac8:	e5832000 	str	r2, [r3]
48001acc:	ea000004 	b	48001ae4 <arm_mmu_section_test_iter+0x125c>
48001ad0:	e59b3004 	ldr	r3, [fp, #4]
48001ad4:	e5933000 	ldr	r3, [r3]
48001ad8:	e2832001 	add	r2, r3, #1
48001adc:	e59b3004 	ldr	r3, [fp, #4]
48001ae0:	e5832000 	str	r2, [r3]
48001ae4:	e3043008 	movw	r3, #16392	; 0x4008
48001ae8:	e3443802 	movt	r3, #18434	; 0x4802
48001aec:	e3a02000 	mov	r2, #0
48001af0:	e5832000 	str	r2, [r3]
48001af4:	e30c3000 	movw	r3, #49152	; 0xc000
48001af8:	e3443801 	movt	r3, #18433	; 0x4801
48001afc:	e3a02000 	mov	r2, #0
48001b00:	e5832000 	str	r2, [r3]
48001b04:	e51b3008 	ldr	r3, [fp, #-8]
48001b08:	e5933000 	ldr	r3, [r3]
48001b0c:	e50b300c 	str	r3, [fp, #-12]
48001b10:	e51b3050 	ldr	r3, [fp, #-80]	; 0x50
48001b14:	e5933000 	ldr	r3, [r3]
48001b18:	e2832001 	add	r2, r3, #1
48001b1c:	e51b3050 	ldr	r3, [fp, #-80]	; 0x50
48001b20:	e5832000 	str	r2, [r3]
48001b24:	e30c3000 	movw	r3, #49152	; 0xc000
48001b28:	e3443801 	movt	r3, #18433	; 0x4801
48001b2c:	e5933000 	ldr	r3, [r3]
48001b30:	e3530000 	cmp	r3, #0
48001b34:	0a000005 	beq	48001b50 <arm_mmu_section_test_iter+0x12c8>
48001b38:	e51b3054 	ldr	r3, [fp, #-84]	; 0x54
48001b3c:	e5933000 	ldr	r3, [r3]
48001b40:	e2832001 	add	r2, r3, #1
48001b44:	e51b3054 	ldr	r3, [fp, #-84]	; 0x54
48001b48:	e5832000 	str	r2, [r3]
48001b4c:	ea000004 	b	48001b64 <arm_mmu_section_test_iter+0x12dc>
48001b50:	e59b3004 	ldr	r3, [fp, #4]
48001b54:	e5933000 	ldr	r3, [r3]
48001b58:	e2832001 	add	r2, r3, #1
48001b5c:	e59b3004 	ldr	r3, [fp, #4]
48001b60:	e5832000 	str	r2, [r3]
48001b64:	ef000001 	svc	0x00000001
48001b68:	e3003000 	movw	r3, #0
48001b6c:	e3443802 	movt	r3, #18434	; 0x4802
48001b70:	e51b2048 	ldr	r2, [fp, #-72]	; 0x48
48001b74:	e3a01000 	mov	r1, #0
48001b78:	e7831102 	str	r1, [r3, r2, lsl #2]
48001b7c:	e3a03000 	mov	r3, #0
48001b80:	e50b3020 	str	r3, [fp, #-32]
48001b84:	ee083f17 	mcr	15, 0, r3, cr8, cr7, {0}
48001b88:	e50b3020 	str	r3, [fp, #-32]
48001b8c:	e3a03000 	mov	r3, #0
48001b90:	e50b300c 	str	r3, [fp, #-12]
48001b94:	e51b300c 	ldr	r3, [fp, #-12]
48001b98:	e3833b01 	orr	r3, r3, #1024	; 0x400
48001b9c:	e50b300c 	str	r3, [fp, #-12]
48001ba0:	e51b300c 	ldr	r3, [fp, #-12]
48001ba4:	e3833008 	orr	r3, r3, #8
48001ba8:	e50b300c 	str	r3, [fp, #-12]
48001bac:	e51b300c 	ldr	r3, [fp, #-12]
48001bb0:	e3833002 	orr	r3, r3, #2
48001bb4:	e50b300c 	str	r3, [fp, #-12]
48001bb8:	e30c3808 	movw	r3, #51208	; 0xc808
48001bbc:	e3443801 	movt	r3, #18433	; 0x4801
48001bc0:	e5932000 	ldr	r2, [r3]
48001bc4:	e51b300c 	ldr	r3, [fp, #-12]
48001bc8:	e1821003 	orr	r1, r2, r3
48001bcc:	e3003000 	movw	r3, #0
48001bd0:	e3443802 	movt	r3, #18434	; 0x4802
48001bd4:	e51b2048 	ldr	r2, [fp, #-72]	; 0x48
48001bd8:	e7831102 	str	r1, [r3, r2, lsl #2]
48001bdc:	e51b3048 	ldr	r3, [fp, #-72]	; 0x48
48001be0:	e1a03a03 	lsl	r3, r3, #20
48001be4:	e50b3008 	str	r3, [fp, #-8]
48001be8:	e51b2008 	ldr	r2, [fp, #-8]
48001bec:	e30b3abe 	movw	r3, #47806	; 0xbabe
48001bf0:	e34c3001 	movt	r3, #49153	; 0xc001
48001bf4:	e5823000 	str	r3, [r2]
48001bf8:	e51b3008 	ldr	r3, [fp, #-8]
48001bfc:	e2832004 	add	r2, r3, #4
48001c00:	e30f3eed 	movw	r3, #65261	; 0xfeed
48001c04:	e34d300d 	movt	r3, #53261	; 0xd00d
48001c08:	e5823000 	str	r3, [r2]
48001c0c:	e51b3050 	ldr	r3, [fp, #-80]	; 0x50
48001c10:	e5933000 	ldr	r3, [r3]
48001c14:	e2832001 	add	r2, r3, #1
48001c18:	e51b3050 	ldr	r3, [fp, #-80]	; 0x50
48001c1c:	e5832000 	str	r2, [r3]
48001c20:	e51b3008 	ldr	r3, [fp, #-8]
48001c24:	e5932000 	ldr	r2, [r3]
48001c28:	e30b3abe 	movw	r3, #47806	; 0xbabe
48001c2c:	e34c3001 	movt	r3, #49153	; 0xc001
48001c30:	e1520003 	cmp	r2, r3
48001c34:	1a00000c 	bne	48001c6c <arm_mmu_section_test_iter+0x13e4>
48001c38:	e51b3008 	ldr	r3, [fp, #-8]
48001c3c:	e2833004 	add	r3, r3, #4
48001c40:	e5932000 	ldr	r2, [r3]
48001c44:	e30f3eed 	movw	r3, #65261	; 0xfeed
48001c48:	e34d300d 	movt	r3, #53261	; 0xd00d
48001c4c:	e1520003 	cmp	r2, r3
48001c50:	1a000005 	bne	48001c6c <arm_mmu_section_test_iter+0x13e4>
48001c54:	e51b3054 	ldr	r3, [fp, #-84]	; 0x54
48001c58:	e5933000 	ldr	r3, [r3]
48001c5c:	e2832001 	add	r2, r3, #1
48001c60:	e51b3054 	ldr	r3, [fp, #-84]	; 0x54
48001c64:	e5832000 	str	r2, [r3]
48001c68:	ea000004 	b	48001c80 <arm_mmu_section_test_iter+0x13f8>
48001c6c:	e59b3004 	ldr	r3, [fp, #4]
48001c70:	e5933000 	ldr	r3, [r3]
48001c74:	e2832001 	add	r2, r3, #1
48001c78:	e59b3004 	ldr	r3, [fp, #4]
48001c7c:	e5832000 	str	r2, [r3]
48001c80:	e51b3008 	ldr	r3, [fp, #-8]
48001c84:	e3a02000 	mov	r2, #0
48001c88:	e5832000 	str	r2, [r3]
48001c8c:	e51b3008 	ldr	r3, [fp, #-8]
48001c90:	e2833004 	add	r3, r3, #4
48001c94:	e3a02000 	mov	r2, #0
48001c98:	e5832000 	str	r2, [r3]
48001c9c:	e51b3050 	ldr	r3, [fp, #-80]	; 0x50
48001ca0:	e5933000 	ldr	r3, [r3]
48001ca4:	e2832001 	add	r2, r3, #1
48001ca8:	e51b3050 	ldr	r3, [fp, #-80]	; 0x50
48001cac:	e5832000 	str	r2, [r3]
48001cb0:	e51b3008 	ldr	r3, [fp, #-8]
48001cb4:	e5933000 	ldr	r3, [r3]
48001cb8:	e3530000 	cmp	r3, #0
48001cbc:	1a00000a 	bne	48001cec <arm_mmu_section_test_iter+0x1464>
48001cc0:	e51b3008 	ldr	r3, [fp, #-8]
48001cc4:	e2833004 	add	r3, r3, #4
48001cc8:	e5933000 	ldr	r3, [r3]
48001ccc:	e3530000 	cmp	r3, #0
48001cd0:	1a000005 	bne	48001cec <arm_mmu_section_test_iter+0x1464>
48001cd4:	e51b3054 	ldr	r3, [fp, #-84]	; 0x54
48001cd8:	e5933000 	ldr	r3, [r3]
48001cdc:	e2832001 	add	r2, r3, #1
48001ce0:	e51b3054 	ldr	r3, [fp, #-84]	; 0x54
48001ce4:	e5832000 	str	r2, [r3]
48001ce8:	ea000004 	b	48001d00 <arm_mmu_section_test_iter+0x1478>
48001cec:	e59b3004 	ldr	r3, [fp, #4]
48001cf0:	e5933000 	ldr	r3, [r3]
48001cf4:	e2832001 	add	r2, r3, #1
48001cf8:	e59b3004 	ldr	r3, [fp, #4]
48001cfc:	e5832000 	str	r2, [r3]
48001d00:	e3a00000 	mov	r0, #0
48001d04:	e3a01000 	mov	r1, #0
48001d08:	ebfff92c 	bl	480001c0 <_switch_to_user_mode>
48001d0c:	e3043000 	movw	r3, #16384	; 0x4000
48001d10:	e3443802 	movt	r3, #18434	; 0x4802
48001d14:	e3a0200d 	mov	r2, #13
48001d18:	e5832000 	str	r2, [r3]
48001d1c:	e51b2008 	ldr	r2, [fp, #-8]
48001d20:	e3043004 	movw	r3, #16388	; 0x4004
48001d24:	e3443802 	movt	r3, #18434	; 0x4802
48001d28:	e5832000 	str	r2, [r3]
48001d2c:	e3043008 	movw	r3, #16392	; 0x4008
48001d30:	e3443802 	movt	r3, #18434	; 0x4802
48001d34:	e3a02001 	mov	r2, #1
48001d38:	e5832000 	str	r2, [r3]
48001d3c:	e3043010 	movw	r3, #16400	; 0x4010
48001d40:	e3443802 	movt	r3, #18434	; 0x4802
48001d44:	e3a02000 	mov	r2, #0
48001d48:	e5832000 	str	r2, [r3]
48001d4c:	e30c3000 	movw	r3, #49152	; 0xc000
48001d50:	e3443801 	movt	r3, #18433	; 0x4801
48001d54:	e3a02000 	mov	r2, #0
48001d58:	e5832000 	str	r2, [r3]
48001d5c:	e51b2008 	ldr	r2, [fp, #-8]
48001d60:	e30b3abe 	movw	r3, #47806	; 0xbabe
48001d64:	e34c3001 	movt	r3, #49153	; 0xc001
48001d68:	e5823000 	str	r3, [r2]
48001d6c:	e51b3050 	ldr	r3, [fp, #-80]	; 0x50
48001d70:	e5933000 	ldr	r3, [r3]
48001d74:	e2832001 	add	r2, r3, #1
48001d78:	e51b3050 	ldr	r3, [fp, #-80]	; 0x50
48001d7c:	e5832000 	str	r2, [r3]
48001d80:	e30c3000 	movw	r3, #49152	; 0xc000
48001d84:	e3443801 	movt	r3, #18433	; 0x4801
48001d88:	e5933000 	ldr	r3, [r3]
48001d8c:	e3530000 	cmp	r3, #0
48001d90:	0a000005 	beq	48001dac <arm_mmu_section_test_iter+0x1524>
48001d94:	e51b3054 	ldr	r3, [fp, #-84]	; 0x54
48001d98:	e5933000 	ldr	r3, [r3]
48001d9c:	e2832001 	add	r2, r3, #1
48001da0:	e51b3054 	ldr	r3, [fp, #-84]	; 0x54
48001da4:	e5832000 	str	r2, [r3]
48001da8:	ea000004 	b	48001dc0 <arm_mmu_section_test_iter+0x1538>
48001dac:	e59b3004 	ldr	r3, [fp, #4]
48001db0:	e5933000 	ldr	r3, [r3]
48001db4:	e2832001 	add	r2, r3, #1
48001db8:	e59b3004 	ldr	r3, [fp, #4]
48001dbc:	e5832000 	str	r2, [r3]
48001dc0:	e3043008 	movw	r3, #16392	; 0x4008
48001dc4:	e3443802 	movt	r3, #18434	; 0x4802
48001dc8:	e3a02000 	mov	r2, #0
48001dcc:	e5832000 	str	r2, [r3]
48001dd0:	e30c3000 	movw	r3, #49152	; 0xc000
48001dd4:	e3443801 	movt	r3, #18433	; 0x4801
48001dd8:	e3a02000 	mov	r2, #0
48001ddc:	e5832000 	str	r2, [r3]
48001de0:	e51b3008 	ldr	r3, [fp, #-8]
48001de4:	e5933000 	ldr	r3, [r3]
48001de8:	e50b300c 	str	r3, [fp, #-12]
48001dec:	e51b3050 	ldr	r3, [fp, #-80]	; 0x50
48001df0:	e5933000 	ldr	r3, [r3]
48001df4:	e2832001 	add	r2, r3, #1
48001df8:	e51b3050 	ldr	r3, [fp, #-80]	; 0x50
48001dfc:	e5832000 	str	r2, [r3]
48001e00:	e30c3000 	movw	r3, #49152	; 0xc000
48001e04:	e3443801 	movt	r3, #18433	; 0x4801
48001e08:	e5933000 	ldr	r3, [r3]
48001e0c:	e3530000 	cmp	r3, #0
48001e10:	0a000005 	beq	48001e2c <arm_mmu_section_test_iter+0x15a4>
48001e14:	e51b3054 	ldr	r3, [fp, #-84]	; 0x54
48001e18:	e5933000 	ldr	r3, [r3]
48001e1c:	e2832001 	add	r2, r3, #1
48001e20:	e51b3054 	ldr	r3, [fp, #-84]	; 0x54
48001e24:	e5832000 	str	r2, [r3]
48001e28:	ea000004 	b	48001e40 <arm_mmu_section_test_iter+0x15b8>
48001e2c:	e59b3004 	ldr	r3, [fp, #4]
48001e30:	e5933000 	ldr	r3, [r3]
48001e34:	e2832001 	add	r2, r3, #1
48001e38:	e59b3004 	ldr	r3, [fp, #4]
48001e3c:	e5832000 	str	r2, [r3]
48001e40:	ef000001 	svc	0x00000001
48001e44:	e3003000 	movw	r3, #0
48001e48:	e3443802 	movt	r3, #18434	; 0x4802
48001e4c:	e51b2048 	ldr	r2, [fp, #-72]	; 0x48
48001e50:	e3a01000 	mov	r1, #0
48001e54:	e7831102 	str	r1, [r3, r2, lsl #2]
48001e58:	e3a03000 	mov	r3, #0
48001e5c:	e50b3024 	str	r3, [fp, #-36]	; 0x24
48001e60:	ee083f17 	mcr	15, 0, r3, cr8, cr7, {0}
48001e64:	e50b3024 	str	r3, [fp, #-36]	; 0x24
48001e68:	e3a03000 	mov	r3, #0
48001e6c:	e50b300c 	str	r3, [fp, #-12]
48001e70:	e51b300c 	ldr	r3, [fp, #-12]
48001e74:	e3833b02 	orr	r3, r3, #2048	; 0x800
48001e78:	e50b300c 	str	r3, [fp, #-12]
48001e7c:	e51b300c 	ldr	r3, [fp, #-12]
48001e80:	e3833008 	orr	r3, r3, #8
48001e84:	e50b300c 	str	r3, [fp, #-12]
48001e88:	e51b300c 	ldr	r3, [fp, #-12]
48001e8c:	e3833002 	orr	r3, r3, #2
48001e90:	e50b300c 	str	r3, [fp, #-12]
48001e94:	e30c3808 	movw	r3, #51208	; 0xc808
48001e98:	e3443801 	movt	r3, #18433	; 0x4801
48001e9c:	e5932000 	ldr	r2, [r3]
48001ea0:	e51b300c 	ldr	r3, [fp, #-12]
48001ea4:	e1821003 	orr	r1, r2, r3
48001ea8:	e3003000 	movw	r3, #0
48001eac:	e3443802 	movt	r3, #18434	; 0x4802
48001eb0:	e51b2048 	ldr	r2, [fp, #-72]	; 0x48
48001eb4:	e7831102 	str	r1, [r3, r2, lsl #2]
48001eb8:	e51b3048 	ldr	r3, [fp, #-72]	; 0x48
48001ebc:	e1a03a03 	lsl	r3, r3, #20
48001ec0:	e50b3008 	str	r3, [fp, #-8]
48001ec4:	e51b3008 	ldr	r3, [fp, #-8]
48001ec8:	e3a02000 	mov	r2, #0
48001ecc:	e5832000 	str	r2, [r3]
48001ed0:	e51b3008 	ldr	r3, [fp, #-8]
48001ed4:	e2833004 	add	r3, r3, #4
48001ed8:	e3a02000 	mov	r2, #0
48001edc:	e5832000 	str	r2, [r3]
48001ee0:	e51b3050 	ldr	r3, [fp, #-80]	; 0x50
48001ee4:	e5933000 	ldr	r3, [r3]
48001ee8:	e2832001 	add	r2, r3, #1
48001eec:	e51b3050 	ldr	r3, [fp, #-80]	; 0x50
48001ef0:	e5832000 	str	r2, [r3]
48001ef4:	e51b3008 	ldr	r3, [fp, #-8]
48001ef8:	e5933000 	ldr	r3, [r3]
48001efc:	e3530000 	cmp	r3, #0
48001f00:	1a00000a 	bne	48001f30 <arm_mmu_section_test_iter+0x16a8>
48001f04:	e51b3008 	ldr	r3, [fp, #-8]
48001f08:	e2833004 	add	r3, r3, #4
48001f0c:	e5933000 	ldr	r3, [r3]
48001f10:	e3530000 	cmp	r3, #0
48001f14:	1a000005 	bne	48001f30 <arm_mmu_section_test_iter+0x16a8>
48001f18:	e51b3054 	ldr	r3, [fp, #-84]	; 0x54
48001f1c:	e5933000 	ldr	r3, [r3]
48001f20:	e2832001 	add	r2, r3, #1
48001f24:	e51b3054 	ldr	r3, [fp, #-84]	; 0x54
48001f28:	e5832000 	str	r2, [r3]
48001f2c:	ea000004 	b	48001f44 <arm_mmu_section_test_iter+0x16bc>
48001f30:	e59b3004 	ldr	r3, [fp, #4]
48001f34:	e5933000 	ldr	r3, [r3]
48001f38:	e2832001 	add	r2, r3, #1
48001f3c:	e59b3004 	ldr	r3, [fp, #4]
48001f40:	e5832000 	str	r2, [r3]
48001f44:	e51b2008 	ldr	r2, [fp, #-8]
48001f48:	e30b3abe 	movw	r3, #47806	; 0xbabe
48001f4c:	e34c3001 	movt	r3, #49153	; 0xc001
48001f50:	e5823000 	str	r3, [r2]
48001f54:	e51b3008 	ldr	r3, [fp, #-8]
48001f58:	e2832004 	add	r2, r3, #4
48001f5c:	e30f3eed 	movw	r3, #65261	; 0xfeed
48001f60:	e34d300d 	movt	r3, #53261	; 0xd00d
48001f64:	e5823000 	str	r3, [r2]
48001f68:	e51b3050 	ldr	r3, [fp, #-80]	; 0x50
48001f6c:	e5933000 	ldr	r3, [r3]
48001f70:	e2832001 	add	r2, r3, #1
48001f74:	e51b3050 	ldr	r3, [fp, #-80]	; 0x50
48001f78:	e5832000 	str	r2, [r3]
48001f7c:	e51b3008 	ldr	r3, [fp, #-8]
48001f80:	e5932000 	ldr	r2, [r3]
48001f84:	e30b3abe 	movw	r3, #47806	; 0xbabe
48001f88:	e34c3001 	movt	r3, #49153	; 0xc001
48001f8c:	e1520003 	cmp	r2, r3
48001f90:	1a00000c 	bne	48001fc8 <arm_mmu_section_test_iter+0x1740>
48001f94:	e51b3008 	ldr	r3, [fp, #-8]
48001f98:	e2833004 	add	r3, r3, #4
48001f9c:	e5932000 	ldr	r2, [r3]
48001fa0:	e30f3eed 	movw	r3, #65261	; 0xfeed
48001fa4:	e34d300d 	movt	r3, #53261	; 0xd00d
48001fa8:	e1520003 	cmp	r2, r3
48001fac:	1a000005 	bne	48001fc8 <arm_mmu_section_test_iter+0x1740>
48001fb0:	e51b3054 	ldr	r3, [fp, #-84]	; 0x54
48001fb4:	e5933000 	ldr	r3, [r3]
48001fb8:	e2832001 	add	r2, r3, #1
48001fbc:	e51b3054 	ldr	r3, [fp, #-84]	; 0x54
48001fc0:	e5832000 	str	r2, [r3]
48001fc4:	ea000004 	b	48001fdc <arm_mmu_section_test_iter+0x1754>
48001fc8:	e59b3004 	ldr	r3, [fp, #4]
48001fcc:	e5933000 	ldr	r3, [r3]
48001fd0:	e2832001 	add	r2, r3, #1
48001fd4:	e59b3004 	ldr	r3, [fp, #4]
48001fd8:	e5832000 	str	r2, [r3]
48001fdc:	e3a00000 	mov	r0, #0
48001fe0:	e3a01000 	mov	r1, #0
48001fe4:	ebfff875 	bl	480001c0 <_switch_to_user_mode>
48001fe8:	e3043000 	movw	r3, #16384	; 0x4000
48001fec:	e3443802 	movt	r3, #18434	; 0x4802
48001ff0:	e3a0200d 	mov	r2, #13
48001ff4:	e5832000 	str	r2, [r3]
48001ff8:	e51b2008 	ldr	r2, [fp, #-8]
48001ffc:	e3043004 	movw	r3, #16388	; 0x4004
48002000:	e3443802 	movt	r3, #18434	; 0x4802
48002004:	e5832000 	str	r2, [r3]
48002008:	e3043008 	movw	r3, #16392	; 0x4008
4800200c:	e3443802 	movt	r3, #18434	; 0x4802
48002010:	e3a02001 	mov	r2, #1
48002014:	e5832000 	str	r2, [r3]
48002018:	e3043010 	movw	r3, #16400	; 0x4010
4800201c:	e3443802 	movt	r3, #18434	; 0x4802
48002020:	e3a02000 	mov	r2, #0
48002024:	e5832000 	str	r2, [r3]
48002028:	e30c3000 	movw	r3, #49152	; 0xc000
4800202c:	e3443801 	movt	r3, #18433	; 0x4801
48002030:	e3a02000 	mov	r2, #0
48002034:	e5832000 	str	r2, [r3]
48002038:	e51b3008 	ldr	r3, [fp, #-8]
4800203c:	e3a02000 	mov	r2, #0
48002040:	e5832000 	str	r2, [r3]
48002044:	e51b3050 	ldr	r3, [fp, #-80]	; 0x50
48002048:	e5933000 	ldr	r3, [r3]
4800204c:	e2832001 	add	r2, r3, #1
48002050:	e51b3050 	ldr	r3, [fp, #-80]	; 0x50
48002054:	e5832000 	str	r2, [r3]
48002058:	e30c3000 	movw	r3, #49152	; 0xc000
4800205c:	e3443801 	movt	r3, #18433	; 0x4801
48002060:	e5933000 	ldr	r3, [r3]
48002064:	e3530000 	cmp	r3, #0
48002068:	0a000005 	beq	48002084 <arm_mmu_section_test_iter+0x17fc>
4800206c:	e51b3054 	ldr	r3, [fp, #-84]	; 0x54
48002070:	e5933000 	ldr	r3, [r3]
48002074:	e2832001 	add	r2, r3, #1
48002078:	e51b3054 	ldr	r3, [fp, #-84]	; 0x54
4800207c:	e5832000 	str	r2, [r3]
48002080:	ea000004 	b	48002098 <arm_mmu_section_test_iter+0x1810>
48002084:	e59b3004 	ldr	r3, [fp, #4]
48002088:	e5933000 	ldr	r3, [r3]
4800208c:	e2832001 	add	r2, r3, #1
48002090:	e59b3004 	ldr	r3, [fp, #4]
48002094:	e5832000 	str	r2, [r3]
48002098:	e51b3050 	ldr	r3, [fp, #-80]	; 0x50
4800209c:	e5933000 	ldr	r3, [r3]
480020a0:	e2832001 	add	r2, r3, #1
480020a4:	e51b3050 	ldr	r3, [fp, #-80]	; 0x50
480020a8:	e5832000 	str	r2, [r3]
480020ac:	e51b3008 	ldr	r3, [fp, #-8]
480020b0:	e5932000 	ldr	r2, [r3]
480020b4:	e30b3abe 	movw	r3, #47806	; 0xbabe
480020b8:	e34c3001 	movt	r3, #49153	; 0xc001
480020bc:	e1520003 	cmp	r2, r3
480020c0:	1a000005 	bne	480020dc <arm_mmu_section_test_iter+0x1854>
480020c4:	e51b3054 	ldr	r3, [fp, #-84]	; 0x54
480020c8:	e5933000 	ldr	r3, [r3]
480020cc:	e2832001 	add	r2, r3, #1
480020d0:	e51b3054 	ldr	r3, [fp, #-84]	; 0x54
480020d4:	e5832000 	str	r2, [r3]
480020d8:	ea000004 	b	480020f0 <arm_mmu_section_test_iter+0x1868>
480020dc:	e59b3004 	ldr	r3, [fp, #4]
480020e0:	e5933000 	ldr	r3, [r3]
480020e4:	e2832001 	add	r2, r3, #1
480020e8:	e59b3004 	ldr	r3, [fp, #4]
480020ec:	e5832000 	str	r2, [r3]
480020f0:	ef000001 	svc	0x00000001
480020f4:	e3003000 	movw	r3, #0
480020f8:	e3443802 	movt	r3, #18434	; 0x4802
480020fc:	e51b2048 	ldr	r2, [fp, #-72]	; 0x48
48002100:	e3a01000 	mov	r1, #0
48002104:	e7831102 	str	r1, [r3, r2, lsl #2]
48002108:	e3a03000 	mov	r3, #0
4800210c:	e50b3028 	str	r3, [fp, #-40]	; 0x28
48002110:	ee083f17 	mcr	15, 0, r3, cr8, cr7, {0}
48002114:	e50b3028 	str	r3, [fp, #-40]	; 0x28
48002118:	e3a03000 	mov	r3, #0
4800211c:	e50b300c 	str	r3, [fp, #-12]
48002120:	e51b300c 	ldr	r3, [fp, #-12]
48002124:	e3833b03 	orr	r3, r3, #3072	; 0xc00
48002128:	e50b300c 	str	r3, [fp, #-12]
4800212c:	e51b300c 	ldr	r3, [fp, #-12]
48002130:	e3833008 	orr	r3, r3, #8
48002134:	e50b300c 	str	r3, [fp, #-12]
48002138:	e51b300c 	ldr	r3, [fp, #-12]
4800213c:	e3833002 	orr	r3, r3, #2
48002140:	e50b300c 	str	r3, [fp, #-12]
48002144:	e30c3808 	movw	r3, #51208	; 0xc808
48002148:	e3443801 	movt	r3, #18433	; 0x4801
4800214c:	e5932000 	ldr	r2, [r3]
48002150:	e51b300c 	ldr	r3, [fp, #-12]
48002154:	e1821003 	orr	r1, r2, r3
48002158:	e3003000 	movw	r3, #0
4800215c:	e3443802 	movt	r3, #18434	; 0x4802
48002160:	e51b2048 	ldr	r2, [fp, #-72]	; 0x48
48002164:	e7831102 	str	r1, [r3, r2, lsl #2]
48002168:	e51b3048 	ldr	r3, [fp, #-72]	; 0x48
4800216c:	e1a03a03 	lsl	r3, r3, #20
48002170:	e50b3008 	str	r3, [fp, #-8]
48002174:	e51b2008 	ldr	r2, [fp, #-8]
48002178:	e30b3abe 	movw	r3, #47806	; 0xbabe
4800217c:	e34c3001 	movt	r3, #49153	; 0xc001
48002180:	e5823000 	str	r3, [r2]
48002184:	e51b3008 	ldr	r3, [fp, #-8]
48002188:	e2832004 	add	r2, r3, #4
4800218c:	e30f3eed 	movw	r3, #65261	; 0xfeed
48002190:	e34d300d 	movt	r3, #53261	; 0xd00d
48002194:	e5823000 	str	r3, [r2]
48002198:	e51b3050 	ldr	r3, [fp, #-80]	; 0x50
4800219c:	e5933000 	ldr	r3, [r3]
480021a0:	e2832001 	add	r2, r3, #1
480021a4:	e51b3050 	ldr	r3, [fp, #-80]	; 0x50
480021a8:	e5832000 	str	r2, [r3]
480021ac:	e51b3008 	ldr	r3, [fp, #-8]
480021b0:	e5932000 	ldr	r2, [r3]
480021b4:	e30b3abe 	movw	r3, #47806	; 0xbabe
480021b8:	e34c3001 	movt	r3, #49153	; 0xc001
480021bc:	e1520003 	cmp	r2, r3
480021c0:	1a00000c 	bne	480021f8 <arm_mmu_section_test_iter+0x1970>
480021c4:	e51b3008 	ldr	r3, [fp, #-8]
480021c8:	e2833004 	add	r3, r3, #4
480021cc:	e5932000 	ldr	r2, [r3]
480021d0:	e30f3eed 	movw	r3, #65261	; 0xfeed
480021d4:	e34d300d 	movt	r3, #53261	; 0xd00d
480021d8:	e1520003 	cmp	r2, r3
480021dc:	1a000005 	bne	480021f8 <arm_mmu_section_test_iter+0x1970>
480021e0:	e51b3054 	ldr	r3, [fp, #-84]	; 0x54
480021e4:	e5933000 	ldr	r3, [r3]
480021e8:	e2832001 	add	r2, r3, #1
480021ec:	e51b3054 	ldr	r3, [fp, #-84]	; 0x54
480021f0:	e5832000 	str	r2, [r3]
480021f4:	ea000004 	b	4800220c <arm_mmu_section_test_iter+0x1984>
480021f8:	e59b3004 	ldr	r3, [fp, #4]
480021fc:	e5933000 	ldr	r3, [r3]
48002200:	e2832001 	add	r2, r3, #1
48002204:	e59b3004 	ldr	r3, [fp, #4]
48002208:	e5832000 	str	r2, [r3]
4800220c:	e51b3008 	ldr	r3, [fp, #-8]
48002210:	e3a02000 	mov	r2, #0
48002214:	e5832000 	str	r2, [r3]
48002218:	e51b3008 	ldr	r3, [fp, #-8]
4800221c:	e2833004 	add	r3, r3, #4
48002220:	e3a02000 	mov	r2, #0
48002224:	e5832000 	str	r2, [r3]
48002228:	e51b3050 	ldr	r3, [fp, #-80]	; 0x50
4800222c:	e5933000 	ldr	r3, [r3]
48002230:	e2832001 	add	r2, r3, #1
48002234:	e51b3050 	ldr	r3, [fp, #-80]	; 0x50
48002238:	e5832000 	str	r2, [r3]
4800223c:	e51b3008 	ldr	r3, [fp, #-8]
48002240:	e5933000 	ldr	r3, [r3]
48002244:	e3530000 	cmp	r3, #0
48002248:	1a00000a 	bne	48002278 <arm_mmu_section_test_iter+0x19f0>
4800224c:	e51b3008 	ldr	r3, [fp, #-8]
48002250:	e2833004 	add	r3, r3, #4
48002254:	e5933000 	ldr	r3, [r3]
48002258:	e3530000 	cmp	r3, #0
4800225c:	1a000005 	bne	48002278 <arm_mmu_section_test_iter+0x19f0>
48002260:	e51b3054 	ldr	r3, [fp, #-84]	; 0x54
48002264:	e5933000 	ldr	r3, [r3]
48002268:	e2832001 	add	r2, r3, #1
4800226c:	e51b3054 	ldr	r3, [fp, #-84]	; 0x54
48002270:	e5832000 	str	r2, [r3]
48002274:	ea000004 	b	4800228c <arm_mmu_section_test_iter+0x1a04>
48002278:	e59b3004 	ldr	r3, [fp, #4]
4800227c:	e5933000 	ldr	r3, [r3]
48002280:	e2832001 	add	r2, r3, #1
48002284:	e59b3004 	ldr	r3, [fp, #4]
48002288:	e5832000 	str	r2, [r3]
4800228c:	e3a00000 	mov	r0, #0
48002290:	e3a01000 	mov	r1, #0
48002294:	ebfff7c9 	bl	480001c0 <_switch_to_user_mode>
48002298:	e51b2008 	ldr	r2, [fp, #-8]
4800229c:	e30b3abe 	movw	r3, #47806	; 0xbabe
480022a0:	e34c3001 	movt	r3, #49153	; 0xc001
480022a4:	e5823000 	str	r3, [r2]
480022a8:	e51b3008 	ldr	r3, [fp, #-8]
480022ac:	e2832004 	add	r2, r3, #4
480022b0:	e30f3eed 	movw	r3, #65261	; 0xfeed
480022b4:	e34d300d 	movt	r3, #53261	; 0xd00d
480022b8:	e5823000 	str	r3, [r2]
480022bc:	e51b3050 	ldr	r3, [fp, #-80]	; 0x50
480022c0:	e5933000 	ldr	r3, [r3]
480022c4:	e2832001 	add	r2, r3, #1
480022c8:	e51b3050 	ldr	r3, [fp, #-80]	; 0x50
480022cc:	e5832000 	str	r2, [r3]
480022d0:	e51b3008 	ldr	r3, [fp, #-8]
480022d4:	e5932000 	ldr	r2, [r3]
480022d8:	e30b3abe 	movw	r3, #47806	; 0xbabe
480022dc:	e34c3001 	movt	r3, #49153	; 0xc001
480022e0:	e1520003 	cmp	r2, r3
480022e4:	1a00000c 	bne	4800231c <arm_mmu_section_test_iter+0x1a94>
480022e8:	e51b3008 	ldr	r3, [fp, #-8]
480022ec:	e2833004 	add	r3, r3, #4
480022f0:	e5932000 	ldr	r2, [r3]
480022f4:	e30f3eed 	movw	r3, #65261	; 0xfeed
480022f8:	e34d300d 	movt	r3, #53261	; 0xd00d
480022fc:	e1520003 	cmp	r2, r3
48002300:	1a000005 	bne	4800231c <arm_mmu_section_test_iter+0x1a94>
48002304:	e51b3054 	ldr	r3, [fp, #-84]	; 0x54
48002308:	e5933000 	ldr	r3, [r3]
4800230c:	e2832001 	add	r2, r3, #1
48002310:	e51b3054 	ldr	r3, [fp, #-84]	; 0x54
48002314:	e5832000 	str	r2, [r3]
48002318:	ea000004 	b	48002330 <arm_mmu_section_test_iter+0x1aa8>
4800231c:	e59b3004 	ldr	r3, [fp, #4]
48002320:	e5933000 	ldr	r3, [r3]
48002324:	e2832001 	add	r2, r3, #1
48002328:	e59b3004 	ldr	r3, [fp, #4]
4800232c:	e5832000 	str	r2, [r3]
48002330:	e51b3008 	ldr	r3, [fp, #-8]
48002334:	e3a02000 	mov	r2, #0
48002338:	e5832000 	str	r2, [r3]
4800233c:	e51b3008 	ldr	r3, [fp, #-8]
48002340:	e2833004 	add	r3, r3, #4
48002344:	e3a02000 	mov	r2, #0
48002348:	e5832000 	str	r2, [r3]
4800234c:	e51b3050 	ldr	r3, [fp, #-80]	; 0x50
48002350:	e5933000 	ldr	r3, [r3]
48002354:	e2832001 	add	r2, r3, #1
48002358:	e51b3050 	ldr	r3, [fp, #-80]	; 0x50
4800235c:	e5832000 	str	r2, [r3]
48002360:	e51b3008 	ldr	r3, [fp, #-8]
48002364:	e5933000 	ldr	r3, [r3]
48002368:	e3530000 	cmp	r3, #0
4800236c:	1a00000a 	bne	4800239c <arm_mmu_section_test_iter+0x1b14>
48002370:	e51b3008 	ldr	r3, [fp, #-8]
48002374:	e2833004 	add	r3, r3, #4
48002378:	e5933000 	ldr	r3, [r3]
4800237c:	e3530000 	cmp	r3, #0
48002380:	1a000005 	bne	4800239c <arm_mmu_section_test_iter+0x1b14>
48002384:	e51b3054 	ldr	r3, [fp, #-84]	; 0x54
48002388:	e5933000 	ldr	r3, [r3]
4800238c:	e2832001 	add	r2, r3, #1
48002390:	e51b3054 	ldr	r3, [fp, #-84]	; 0x54
48002394:	e5832000 	str	r2, [r3]
48002398:	ea000004 	b	480023b0 <arm_mmu_section_test_iter+0x1b28>
4800239c:	e59b3004 	ldr	r3, [fp, #4]
480023a0:	e5933000 	ldr	r3, [r3]
480023a4:	e2832001 	add	r2, r3, #1
480023a8:	e59b3004 	ldr	r3, [fp, #4]
480023ac:	e5832000 	str	r2, [r3]
480023b0:	ef000001 	svc	0x00000001
480023b4:	e3003000 	movw	r3, #0
480023b8:	e3443802 	movt	r3, #18434	; 0x4802
480023bc:	e51b2048 	ldr	r2, [fp, #-72]	; 0x48
480023c0:	e3a01000 	mov	r1, #0
480023c4:	e7831102 	str	r1, [r3, r2, lsl #2]
480023c8:	e3a03000 	mov	r3, #0
480023cc:	e50b302c 	str	r3, [fp, #-44]	; 0x2c
480023d0:	ee083f17 	mcr	15, 0, r3, cr8, cr7, {0}
480023d4:	e50b302c 	str	r3, [fp, #-44]	; 0x2c
480023d8:	e3a03000 	mov	r3, #0
480023dc:	e50b300c 	str	r3, [fp, #-12]
480023e0:	e51b300c 	ldr	r3, [fp, #-12]
480023e4:	e3833b01 	orr	r3, r3, #1024	; 0x400
480023e8:	e50b300c 	str	r3, [fp, #-12]
480023ec:	e51b300c 	ldr	r3, [fp, #-12]
480023f0:	e3833008 	orr	r3, r3, #8
480023f4:	e50b300c 	str	r3, [fp, #-12]
480023f8:	e51b300c 	ldr	r3, [fp, #-12]
480023fc:	e3833002 	orr	r3, r3, #2
48002400:	e50b300c 	str	r3, [fp, #-12]
48002404:	e30c3808 	movw	r3, #51208	; 0xc808
48002408:	e3443801 	movt	r3, #18433	; 0x4801
4800240c:	e5932000 	ldr	r2, [r3]
48002410:	e51b300c 	ldr	r3, [fp, #-12]
48002414:	e1821003 	orr	r1, r2, r3
48002418:	e3003000 	movw	r3, #0
4800241c:	e3443802 	movt	r3, #18434	; 0x4802
48002420:	e51b2048 	ldr	r2, [fp, #-72]	; 0x48
48002424:	e7831102 	str	r1, [r3, r2, lsl #2]
48002428:	e51b3048 	ldr	r3, [fp, #-72]	; 0x48
4800242c:	e1a03a03 	lsl	r3, r3, #20
48002430:	e50b3008 	str	r3, [fp, #-8]
48002434:	e51b2008 	ldr	r2, [fp, #-8]
48002438:	e30b3abe 	movw	r3, #47806	; 0xbabe
4800243c:	e34c3001 	movt	r3, #49153	; 0xc001
48002440:	e5823000 	str	r3, [r2]
48002444:	e3003000 	movw	r3, #0
48002448:	e3443802 	movt	r3, #18434	; 0x4802
4800244c:	e51b2048 	ldr	r2, [fp, #-72]	; 0x48
48002450:	e3a01000 	mov	r1, #0
48002454:	e7831102 	str	r1, [r3, r2, lsl #2]
48002458:	e3a03000 	mov	r3, #0
4800245c:	e50b3030 	str	r3, [fp, #-48]	; 0x30
48002460:	ee083f17 	mcr	15, 0, r3, cr8, cr7, {0}
48002464:	e50b3030 	str	r3, [fp, #-48]	; 0x30
48002468:	e3a03000 	mov	r3, #0
4800246c:	e50b300c 	str	r3, [fp, #-12]
48002470:	e51b300c 	ldr	r3, [fp, #-12]
48002474:	e3833902 	orr	r3, r3, #32768	; 0x8000
48002478:	e50b300c 	str	r3, [fp, #-12]
4800247c:	e51b300c 	ldr	r3, [fp, #-12]
48002480:	e3833b01 	orr	r3, r3, #1024	; 0x400
48002484:	e50b300c 	str	r3, [fp, #-12]
48002488:	e51b300c 	ldr	r3, [fp, #-12]
4800248c:	e3833008 	orr	r3, r3, #8
48002490:	e50b300c 	str	r3, [fp, #-12]
48002494:	e51b300c 	ldr	r3, [fp, #-12]
48002498:	e3833002 	orr	r3, r3, #2
4800249c:	e50b300c 	str	r3, [fp, #-12]
480024a0:	e30c3808 	movw	r3, #51208	; 0xc808
480024a4:	e3443801 	movt	r3, #18433	; 0x4801
480024a8:	e5932000 	ldr	r2, [r3]
480024ac:	e51b300c 	ldr	r3, [fp, #-12]
480024b0:	e1821003 	orr	r1, r2, r3
480024b4:	e3003000 	movw	r3, #0
480024b8:	e3443802 	movt	r3, #18434	; 0x4802
480024bc:	e51b2048 	ldr	r2, [fp, #-72]	; 0x48
480024c0:	e7831102 	str	r1, [r3, r2, lsl #2]
480024c4:	e51b3048 	ldr	r3, [fp, #-72]	; 0x48
480024c8:	e1a03a03 	lsl	r3, r3, #20
480024cc:	e50b3008 	str	r3, [fp, #-8]
480024d0:	e3043000 	movw	r3, #16384	; 0x4000
480024d4:	e3443802 	movt	r3, #18434	; 0x4802
480024d8:	e3a0200d 	mov	r2, #13
480024dc:	e5832000 	str	r2, [r3]
480024e0:	e51b2008 	ldr	r2, [fp, #-8]
480024e4:	e3043004 	movw	r3, #16388	; 0x4004
480024e8:	e3443802 	movt	r3, #18434	; 0x4802
480024ec:	e5832000 	str	r2, [r3]
480024f0:	e3043008 	movw	r3, #16392	; 0x4008
480024f4:	e3443802 	movt	r3, #18434	; 0x4802
480024f8:	e3a02001 	mov	r2, #1
480024fc:	e5832000 	str	r2, [r3]
48002500:	e3043010 	movw	r3, #16400	; 0x4010
48002504:	e3443802 	movt	r3, #18434	; 0x4802
48002508:	e3a02000 	mov	r2, #0
4800250c:	e5832000 	str	r2, [r3]
48002510:	e30c3000 	movw	r3, #49152	; 0xc000
48002514:	e3443801 	movt	r3, #18433	; 0x4801
48002518:	e3a02000 	mov	r2, #0
4800251c:	e5832000 	str	r2, [r3]
48002520:	e51b3008 	ldr	r3, [fp, #-8]
48002524:	e3a02000 	mov	r2, #0
48002528:	e5832000 	str	r2, [r3]
4800252c:	e51b3050 	ldr	r3, [fp, #-80]	; 0x50
48002530:	e5933000 	ldr	r3, [r3]
48002534:	e2832001 	add	r2, r3, #1
48002538:	e51b3050 	ldr	r3, [fp, #-80]	; 0x50
4800253c:	e5832000 	str	r2, [r3]
48002540:	e30c3000 	movw	r3, #49152	; 0xc000
48002544:	e3443801 	movt	r3, #18433	; 0x4801
48002548:	e5933000 	ldr	r3, [r3]
4800254c:	e3530000 	cmp	r3, #0
48002550:	0a000005 	beq	4800256c <arm_mmu_section_test_iter+0x1ce4>
48002554:	e51b3054 	ldr	r3, [fp, #-84]	; 0x54
48002558:	e5933000 	ldr	r3, [r3]
4800255c:	e2832001 	add	r2, r3, #1
48002560:	e51b3054 	ldr	r3, [fp, #-84]	; 0x54
48002564:	e5832000 	str	r2, [r3]
48002568:	ea000004 	b	48002580 <arm_mmu_section_test_iter+0x1cf8>
4800256c:	e59b3004 	ldr	r3, [fp, #4]
48002570:	e5933000 	ldr	r3, [r3]
48002574:	e2832001 	add	r2, r3, #1
48002578:	e59b3004 	ldr	r3, [fp, #4]
4800257c:	e5832000 	str	r2, [r3]
48002580:	e51b3050 	ldr	r3, [fp, #-80]	; 0x50
48002584:	e5933000 	ldr	r3, [r3]
48002588:	e2832001 	add	r2, r3, #1
4800258c:	e51b3050 	ldr	r3, [fp, #-80]	; 0x50
48002590:	e5832000 	str	r2, [r3]
48002594:	e51b3008 	ldr	r3, [fp, #-8]
48002598:	e5932000 	ldr	r2, [r3]
4800259c:	e30b3abe 	movw	r3, #47806	; 0xbabe
480025a0:	e34c3001 	movt	r3, #49153	; 0xc001
480025a4:	e1520003 	cmp	r2, r3
480025a8:	1a000005 	bne	480025c4 <arm_mmu_section_test_iter+0x1d3c>
480025ac:	e51b3054 	ldr	r3, [fp, #-84]	; 0x54
480025b0:	e5933000 	ldr	r3, [r3]
480025b4:	e2832001 	add	r2, r3, #1
480025b8:	e51b3054 	ldr	r3, [fp, #-84]	; 0x54
480025bc:	e5832000 	str	r2, [r3]
480025c0:	ea000004 	b	480025d8 <arm_mmu_section_test_iter+0x1d50>
480025c4:	e59b3004 	ldr	r3, [fp, #4]
480025c8:	e5933000 	ldr	r3, [r3]
480025cc:	e2832001 	add	r2, r3, #1
480025d0:	e59b3004 	ldr	r3, [fp, #4]
480025d4:	e5832000 	str	r2, [r3]
480025d8:	e3a00000 	mov	r0, #0
480025dc:	e3a01000 	mov	r1, #0
480025e0:	ebfff6f6 	bl	480001c0 <_switch_to_user_mode>
480025e4:	e3043000 	movw	r3, #16384	; 0x4000
480025e8:	e3443802 	movt	r3, #18434	; 0x4802
480025ec:	e3a0200d 	mov	r2, #13
480025f0:	e5832000 	str	r2, [r3]
480025f4:	e51b2008 	ldr	r2, [fp, #-8]
480025f8:	e3043004 	movw	r3, #16388	; 0x4004
480025fc:	e3443802 	movt	r3, #18434	; 0x4802
48002600:	e5832000 	str	r2, [r3]
48002604:	e3043008 	movw	r3, #16392	; 0x4008
48002608:	e3443802 	movt	r3, #18434	; 0x4802
4800260c:	e3a02001 	mov	r2, #1
48002610:	e5832000 	str	r2, [r3]
48002614:	e3043010 	movw	r3, #16400	; 0x4010
48002618:	e3443802 	movt	r3, #18434	; 0x4802
4800261c:	e3a02000 	mov	r2, #0
48002620:	e5832000 	str	r2, [r3]
48002624:	e30c3000 	movw	r3, #49152	; 0xc000
48002628:	e3443801 	movt	r3, #18433	; 0x4801
4800262c:	e3a02000 	mov	r2, #0
48002630:	e5832000 	str	r2, [r3]
48002634:	e51b2008 	ldr	r2, [fp, #-8]
48002638:	e30b3abe 	movw	r3, #47806	; 0xbabe
4800263c:	e34c3001 	movt	r3, #49153	; 0xc001
48002640:	e5823000 	str	r3, [r2]
48002644:	e51b3050 	ldr	r3, [fp, #-80]	; 0x50
48002648:	e5933000 	ldr	r3, [r3]
4800264c:	e2832001 	add	r2, r3, #1
48002650:	e51b3050 	ldr	r3, [fp, #-80]	; 0x50
48002654:	e5832000 	str	r2, [r3]
48002658:	e30c3000 	movw	r3, #49152	; 0xc000
4800265c:	e3443801 	movt	r3, #18433	; 0x4801
48002660:	e5933000 	ldr	r3, [r3]
48002664:	e3530000 	cmp	r3, #0
48002668:	0a000005 	beq	48002684 <arm_mmu_section_test_iter+0x1dfc>
4800266c:	e51b3054 	ldr	r3, [fp, #-84]	; 0x54
48002670:	e5933000 	ldr	r3, [r3]
48002674:	e2832001 	add	r2, r3, #1
48002678:	e51b3054 	ldr	r3, [fp, #-84]	; 0x54
4800267c:	e5832000 	str	r2, [r3]
48002680:	ea000004 	b	48002698 <arm_mmu_section_test_iter+0x1e10>
48002684:	e59b3004 	ldr	r3, [fp, #4]
48002688:	e5933000 	ldr	r3, [r3]
4800268c:	e2832001 	add	r2, r3, #1
48002690:	e59b3004 	ldr	r3, [fp, #4]
48002694:	e5832000 	str	r2, [r3]
48002698:	e3043008 	movw	r3, #16392	; 0x4008
4800269c:	e3443802 	movt	r3, #18434	; 0x4802
480026a0:	e3a02000 	mov	r2, #0
480026a4:	e5832000 	str	r2, [r3]
480026a8:	e30c3000 	movw	r3, #49152	; 0xc000
480026ac:	e3443801 	movt	r3, #18433	; 0x4801
480026b0:	e3a02000 	mov	r2, #0
480026b4:	e5832000 	str	r2, [r3]
480026b8:	e51b3008 	ldr	r3, [fp, #-8]
480026bc:	e5933000 	ldr	r3, [r3]
480026c0:	e50b300c 	str	r3, [fp, #-12]
480026c4:	e51b3050 	ldr	r3, [fp, #-80]	; 0x50
480026c8:	e5933000 	ldr	r3, [r3]
480026cc:	e2832001 	add	r2, r3, #1
480026d0:	e51b3050 	ldr	r3, [fp, #-80]	; 0x50
480026d4:	e5832000 	str	r2, [r3]
480026d8:	e30c3000 	movw	r3, #49152	; 0xc000
480026dc:	e3443801 	movt	r3, #18433	; 0x4801
480026e0:	e5933000 	ldr	r3, [r3]
480026e4:	e3530000 	cmp	r3, #0
480026e8:	0a000005 	beq	48002704 <arm_mmu_section_test_iter+0x1e7c>
480026ec:	e51b3054 	ldr	r3, [fp, #-84]	; 0x54
480026f0:	e5933000 	ldr	r3, [r3]
480026f4:	e2832001 	add	r2, r3, #1
480026f8:	e51b3054 	ldr	r3, [fp, #-84]	; 0x54
480026fc:	e5832000 	str	r2, [r3]
48002700:	ea000004 	b	48002718 <arm_mmu_section_test_iter+0x1e90>
48002704:	e59b3004 	ldr	r3, [fp, #4]
48002708:	e5933000 	ldr	r3, [r3]
4800270c:	e2832001 	add	r2, r3, #1
48002710:	e59b3004 	ldr	r3, [fp, #4]
48002714:	e5832000 	str	r2, [r3]
48002718:	ef000001 	svc	0x00000001
4800271c:	e3003000 	movw	r3, #0
48002720:	e3443802 	movt	r3, #18434	; 0x4802
48002724:	e51b2048 	ldr	r2, [fp, #-72]	; 0x48
48002728:	e3a01000 	mov	r1, #0
4800272c:	e7831102 	str	r1, [r3, r2, lsl #2]
48002730:	e3a03000 	mov	r3, #0
48002734:	e50b3034 	str	r3, [fp, #-52]	; 0x34
48002738:	ee083f17 	mcr	15, 0, r3, cr8, cr7, {0}
4800273c:	e50b3034 	str	r3, [fp, #-52]	; 0x34
48002740:	e3a03000 	mov	r3, #0
48002744:	e50b300c 	str	r3, [fp, #-12]
48002748:	e51b300c 	ldr	r3, [fp, #-12]
4800274c:	e3833b01 	orr	r3, r3, #1024	; 0x400
48002750:	e50b300c 	str	r3, [fp, #-12]
48002754:	e51b300c 	ldr	r3, [fp, #-12]
48002758:	e3833008 	orr	r3, r3, #8
4800275c:	e50b300c 	str	r3, [fp, #-12]
48002760:	e51b300c 	ldr	r3, [fp, #-12]
48002764:	e3833002 	orr	r3, r3, #2
48002768:	e50b300c 	str	r3, [fp, #-12]
4800276c:	e30c3808 	movw	r3, #51208	; 0xc808
48002770:	e3443801 	movt	r3, #18433	; 0x4801
48002774:	e5932000 	ldr	r2, [r3]
48002778:	e51b300c 	ldr	r3, [fp, #-12]
4800277c:	e1821003 	orr	r1, r2, r3
48002780:	e3003000 	movw	r3, #0
48002784:	e3443802 	movt	r3, #18434	; 0x4802
48002788:	e51b2048 	ldr	r2, [fp, #-72]	; 0x48
4800278c:	e7831102 	str	r1, [r3, r2, lsl #2]
48002790:	e51b3048 	ldr	r3, [fp, #-72]	; 0x48
48002794:	e1a03a03 	lsl	r3, r3, #20
48002798:	e50b3008 	str	r3, [fp, #-8]
4800279c:	e51b2008 	ldr	r2, [fp, #-8]
480027a0:	e30b3abe 	movw	r3, #47806	; 0xbabe
480027a4:	e34c3001 	movt	r3, #49153	; 0xc001
480027a8:	e5823000 	str	r3, [r2]
480027ac:	e3003000 	movw	r3, #0
480027b0:	e3443802 	movt	r3, #18434	; 0x4802
480027b4:	e51b2048 	ldr	r2, [fp, #-72]	; 0x48
480027b8:	e3a01000 	mov	r1, #0
480027bc:	e7831102 	str	r1, [r3, r2, lsl #2]
480027c0:	e3a03000 	mov	r3, #0
480027c4:	e50b3038 	str	r3, [fp, #-56]	; 0x38
480027c8:	ee083f17 	mcr	15, 0, r3, cr8, cr7, {0}
480027cc:	e50b3038 	str	r3, [fp, #-56]	; 0x38
480027d0:	e3a03000 	mov	r3, #0
480027d4:	e50b300c 	str	r3, [fp, #-12]
480027d8:	e51b300c 	ldr	r3, [fp, #-12]
480027dc:	e3833902 	orr	r3, r3, #32768	; 0x8000
480027e0:	e50b300c 	str	r3, [fp, #-12]
480027e4:	e51b300c 	ldr	r3, [fp, #-12]
480027e8:	e3833b02 	orr	r3, r3, #2048	; 0x800
480027ec:	e50b300c 	str	r3, [fp, #-12]
480027f0:	e51b300c 	ldr	r3, [fp, #-12]
480027f4:	e3833008 	orr	r3, r3, #8
480027f8:	e50b300c 	str	r3, [fp, #-12]
480027fc:	e51b300c 	ldr	r3, [fp, #-12]
48002800:	e3833002 	orr	r3, r3, #2
48002804:	e50b300c 	str	r3, [fp, #-12]
48002808:	e30c3808 	movw	r3, #51208	; 0xc808
4800280c:	e3443801 	movt	r3, #18433	; 0x4801
48002810:	e5932000 	ldr	r2, [r3]
48002814:	e51b300c 	ldr	r3, [fp, #-12]
48002818:	e1821003 	orr	r1, r2, r3
4800281c:	e3003000 	movw	r3, #0
48002820:	e3443802 	movt	r3, #18434	; 0x4802
48002824:	e51b2048 	ldr	r2, [fp, #-72]	; 0x48
48002828:	e7831102 	str	r1, [r3, r2, lsl #2]
4800282c:	e51b3048 	ldr	r3, [fp, #-72]	; 0x48
48002830:	e1a03a03 	lsl	r3, r3, #20
48002834:	e50b3008 	str	r3, [fp, #-8]
48002838:	e3043000 	movw	r3, #16384	; 0x4000
4800283c:	e3443802 	movt	r3, #18434	; 0x4802
48002840:	e3a0200d 	mov	r2, #13
48002844:	e5832000 	str	r2, [r3]
48002848:	e51b2008 	ldr	r2, [fp, #-8]
4800284c:	e3043004 	movw	r3, #16388	; 0x4004
48002850:	e3443802 	movt	r3, #18434	; 0x4802
48002854:	e5832000 	str	r2, [r3]
48002858:	e3043008 	movw	r3, #16392	; 0x4008
4800285c:	e3443802 	movt	r3, #18434	; 0x4802
48002860:	e3a02001 	mov	r2, #1
48002864:	e5832000 	str	r2, [r3]
48002868:	e3043010 	movw	r3, #16400	; 0x4010
4800286c:	e3443802 	movt	r3, #18434	; 0x4802
48002870:	e3a02000 	mov	r2, #0
48002874:	e5832000 	str	r2, [r3]
48002878:	e30c3000 	movw	r3, #49152	; 0xc000
4800287c:	e3443801 	movt	r3, #18433	; 0x4801
48002880:	e3a02000 	mov	r2, #0
48002884:	e5832000 	str	r2, [r3]
48002888:	e51b3008 	ldr	r3, [fp, #-8]
4800288c:	e3a02000 	mov	r2, #0
48002890:	e5832000 	str	r2, [r3]
48002894:	e51b3050 	ldr	r3, [fp, #-80]	; 0x50
48002898:	e5933000 	ldr	r3, [r3]
4800289c:	e2832001 	add	r2, r3, #1
480028a0:	e51b3050 	ldr	r3, [fp, #-80]	; 0x50
480028a4:	e5832000 	str	r2, [r3]
480028a8:	e30c3000 	movw	r3, #49152	; 0xc000
480028ac:	e3443801 	movt	r3, #18433	; 0x4801
480028b0:	e5933000 	ldr	r3, [r3]
480028b4:	e3530000 	cmp	r3, #0
480028b8:	0a000005 	beq	480028d4 <arm_mmu_section_test_iter+0x204c>
480028bc:	e51b3054 	ldr	r3, [fp, #-84]	; 0x54
480028c0:	e5933000 	ldr	r3, [r3]
480028c4:	e2832001 	add	r2, r3, #1
480028c8:	e51b3054 	ldr	r3, [fp, #-84]	; 0x54
480028cc:	e5832000 	str	r2, [r3]
480028d0:	ea000004 	b	480028e8 <arm_mmu_section_test_iter+0x2060>
480028d4:	e59b3004 	ldr	r3, [fp, #4]
480028d8:	e5933000 	ldr	r3, [r3]
480028dc:	e2832001 	add	r2, r3, #1
480028e0:	e59b3004 	ldr	r3, [fp, #4]
480028e4:	e5832000 	str	r2, [r3]
480028e8:	e51b3050 	ldr	r3, [fp, #-80]	; 0x50
480028ec:	e5933000 	ldr	r3, [r3]
480028f0:	e2832001 	add	r2, r3, #1
480028f4:	e51b3050 	ldr	r3, [fp, #-80]	; 0x50
480028f8:	e5832000 	str	r2, [r3]
480028fc:	e51b3008 	ldr	r3, [fp, #-8]
48002900:	e5932000 	ldr	r2, [r3]
48002904:	e30b3abe 	movw	r3, #47806	; 0xbabe
48002908:	e34c3001 	movt	r3, #49153	; 0xc001
4800290c:	e1520003 	cmp	r2, r3
48002910:	1a000005 	bne	4800292c <arm_mmu_section_test_iter+0x20a4>
48002914:	e51b3054 	ldr	r3, [fp, #-84]	; 0x54
48002918:	e5933000 	ldr	r3, [r3]
4800291c:	e2832001 	add	r2, r3, #1
48002920:	e51b3054 	ldr	r3, [fp, #-84]	; 0x54
48002924:	e5832000 	str	r2, [r3]
48002928:	ea000004 	b	48002940 <arm_mmu_section_test_iter+0x20b8>
4800292c:	e59b3004 	ldr	r3, [fp, #4]
48002930:	e5933000 	ldr	r3, [r3]
48002934:	e2832001 	add	r2, r3, #1
48002938:	e59b3004 	ldr	r3, [fp, #4]
4800293c:	e5832000 	str	r2, [r3]
48002940:	e3a00000 	mov	r0, #0
48002944:	e3a01000 	mov	r1, #0
48002948:	ebfff61c 	bl	480001c0 <_switch_to_user_mode>
4800294c:	e3043000 	movw	r3, #16384	; 0x4000
48002950:	e3443802 	movt	r3, #18434	; 0x4802
48002954:	e3a0200d 	mov	r2, #13
48002958:	e5832000 	str	r2, [r3]
4800295c:	e51b2008 	ldr	r2, [fp, #-8]
48002960:	e3043004 	movw	r3, #16388	; 0x4004
48002964:	e3443802 	movt	r3, #18434	; 0x4802
48002968:	e5832000 	str	r2, [r3]
4800296c:	e3043008 	movw	r3, #16392	; 0x4008
48002970:	e3443802 	movt	r3, #18434	; 0x4802
48002974:	e3a02001 	mov	r2, #1
48002978:	e5832000 	str	r2, [r3]
4800297c:	e3043010 	movw	r3, #16400	; 0x4010
48002980:	e3443802 	movt	r3, #18434	; 0x4802
48002984:	e3a02000 	mov	r2, #0
48002988:	e5832000 	str	r2, [r3]
4800298c:	e30c3000 	movw	r3, #49152	; 0xc000
48002990:	e3443801 	movt	r3, #18433	; 0x4801
48002994:	e3a02000 	mov	r2, #0
48002998:	e5832000 	str	r2, [r3]
4800299c:	e51b2008 	ldr	r2, [fp, #-8]
480029a0:	e30b3abe 	movw	r3, #47806	; 0xbabe
480029a4:	e34c3001 	movt	r3, #49153	; 0xc001
480029a8:	e5823000 	str	r3, [r2]
480029ac:	e51b3050 	ldr	r3, [fp, #-80]	; 0x50
480029b0:	e5933000 	ldr	r3, [r3]
480029b4:	e2832001 	add	r2, r3, #1
480029b8:	e51b3050 	ldr	r3, [fp, #-80]	; 0x50
480029bc:	e5832000 	str	r2, [r3]
480029c0:	e30c3000 	movw	r3, #49152	; 0xc000
480029c4:	e3443801 	movt	r3, #18433	; 0x4801
480029c8:	e5933000 	ldr	r3, [r3]
480029cc:	e3530000 	cmp	r3, #0
480029d0:	0a000005 	beq	480029ec <arm_mmu_section_test_iter+0x2164>
480029d4:	e51b3054 	ldr	r3, [fp, #-84]	; 0x54
480029d8:	e5933000 	ldr	r3, [r3]
480029dc:	e2832001 	add	r2, r3, #1
480029e0:	e51b3054 	ldr	r3, [fp, #-84]	; 0x54
480029e4:	e5832000 	str	r2, [r3]
480029e8:	ea000004 	b	48002a00 <arm_mmu_section_test_iter+0x2178>
480029ec:	e59b3004 	ldr	r3, [fp, #4]
480029f0:	e5933000 	ldr	r3, [r3]
480029f4:	e2832001 	add	r2, r3, #1
480029f8:	e59b3004 	ldr	r3, [fp, #4]
480029fc:	e5832000 	str	r2, [r3]
48002a00:	e51b3050 	ldr	r3, [fp, #-80]	; 0x50
48002a04:	e5933000 	ldr	r3, [r3]
48002a08:	e2832001 	add	r2, r3, #1
48002a0c:	e51b3050 	ldr	r3, [fp, #-80]	; 0x50
48002a10:	e5832000 	str	r2, [r3]
48002a14:	e51b3008 	ldr	r3, [fp, #-8]
48002a18:	e5932000 	ldr	r2, [r3]
48002a1c:	e30b3abe 	movw	r3, #47806	; 0xbabe
48002a20:	e34c3001 	movt	r3, #49153	; 0xc001
48002a24:	e1520003 	cmp	r2, r3
48002a28:	1a000005 	bne	48002a44 <arm_mmu_section_test_iter+0x21bc>
48002a2c:	e51b3054 	ldr	r3, [fp, #-84]	; 0x54
48002a30:	e5933000 	ldr	r3, [r3]
48002a34:	e2832001 	add	r2, r3, #1
48002a38:	e51b3054 	ldr	r3, [fp, #-84]	; 0x54
48002a3c:	e5832000 	str	r2, [r3]
48002a40:	ea000004 	b	48002a58 <arm_mmu_section_test_iter+0x21d0>
48002a44:	e59b3004 	ldr	r3, [fp, #4]
48002a48:	e5933000 	ldr	r3, [r3]
48002a4c:	e2832001 	add	r2, r3, #1
48002a50:	e59b3004 	ldr	r3, [fp, #4]
48002a54:	e5832000 	str	r2, [r3]
48002a58:	ef000001 	svc	0x00000001
48002a5c:	e3003000 	movw	r3, #0
48002a60:	e3443802 	movt	r3, #18434	; 0x4802
48002a64:	e51b2048 	ldr	r2, [fp, #-72]	; 0x48
48002a68:	e3a01000 	mov	r1, #0
48002a6c:	e7831102 	str	r1, [r3, r2, lsl #2]
48002a70:	e3a03000 	mov	r3, #0
48002a74:	e50b303c 	str	r3, [fp, #-60]	; 0x3c
48002a78:	ee083f17 	mcr	15, 0, r3, cr8, cr7, {0}
48002a7c:	e50b303c 	str	r3, [fp, #-60]	; 0x3c
48002a80:	e3a03000 	mov	r3, #0
48002a84:	e50b300c 	str	r3, [fp, #-12]
48002a88:	e51b300c 	ldr	r3, [fp, #-12]
48002a8c:	e3833b01 	orr	r3, r3, #1024	; 0x400
48002a90:	e50b300c 	str	r3, [fp, #-12]
48002a94:	e51b300c 	ldr	r3, [fp, #-12]
48002a98:	e3833008 	orr	r3, r3, #8
48002a9c:	e50b300c 	str	r3, [fp, #-12]
48002aa0:	e51b300c 	ldr	r3, [fp, #-12]
48002aa4:	e3833002 	orr	r3, r3, #2
48002aa8:	e50b300c 	str	r3, [fp, #-12]
48002aac:	e30c3808 	movw	r3, #51208	; 0xc808
48002ab0:	e3443801 	movt	r3, #18433	; 0x4801
48002ab4:	e5932000 	ldr	r2, [r3]
48002ab8:	e51b300c 	ldr	r3, [fp, #-12]
48002abc:	e1821003 	orr	r1, r2, r3
48002ac0:	e3003000 	movw	r3, #0
48002ac4:	e3443802 	movt	r3, #18434	; 0x4802
48002ac8:	e51b2048 	ldr	r2, [fp, #-72]	; 0x48
48002acc:	e7831102 	str	r1, [r3, r2, lsl #2]
48002ad0:	e51b3048 	ldr	r3, [fp, #-72]	; 0x48
48002ad4:	e1a03a03 	lsl	r3, r3, #20
48002ad8:	e50b3008 	str	r3, [fp, #-8]
48002adc:	e51b2008 	ldr	r2, [fp, #-8]
48002ae0:	e30b3abe 	movw	r3, #47806	; 0xbabe
48002ae4:	e34c3001 	movt	r3, #49153	; 0xc001
48002ae8:	e5823000 	str	r3, [r2]
48002aec:	e3003000 	movw	r3, #0
48002af0:	e3443802 	movt	r3, #18434	; 0x4802
48002af4:	e51b2048 	ldr	r2, [fp, #-72]	; 0x48
48002af8:	e3a01000 	mov	r1, #0
48002afc:	e7831102 	str	r1, [r3, r2, lsl #2]
48002b00:	e3a03000 	mov	r3, #0
48002b04:	e50b3040 	str	r3, [fp, #-64]	; 0x40
48002b08:	ee083f17 	mcr	15, 0, r3, cr8, cr7, {0}
48002b0c:	e50b3040 	str	r3, [fp, #-64]	; 0x40
48002b10:	e3a03000 	mov	r3, #0
48002b14:	e50b300c 	str	r3, [fp, #-12]
48002b18:	e51b300c 	ldr	r3, [fp, #-12]
48002b1c:	e3833902 	orr	r3, r3, #32768	; 0x8000
48002b20:	e50b300c 	str	r3, [fp, #-12]
48002b24:	e51b300c 	ldr	r3, [fp, #-12]
48002b28:	e3833b03 	orr	r3, r3, #3072	; 0xc00
48002b2c:	e50b300c 	str	r3, [fp, #-12]
48002b30:	e51b300c 	ldr	r3, [fp, #-12]
48002b34:	e3833008 	orr	r3, r3, #8
48002b38:	e50b300c 	str	r3, [fp, #-12]
48002b3c:	e51b300c 	ldr	r3, [fp, #-12]
48002b40:	e3833002 	orr	r3, r3, #2
48002b44:	e50b300c 	str	r3, [fp, #-12]
48002b48:	e30c3808 	movw	r3, #51208	; 0xc808
48002b4c:	e3443801 	movt	r3, #18433	; 0x4801
48002b50:	e5932000 	ldr	r2, [r3]
48002b54:	e51b300c 	ldr	r3, [fp, #-12]
48002b58:	e1821003 	orr	r1, r2, r3
48002b5c:	e3003000 	movw	r3, #0
48002b60:	e3443802 	movt	r3, #18434	; 0x4802
48002b64:	e51b2048 	ldr	r2, [fp, #-72]	; 0x48
48002b68:	e7831102 	str	r1, [r3, r2, lsl #2]
48002b6c:	e51b3048 	ldr	r3, [fp, #-72]	; 0x48
48002b70:	e1a03a03 	lsl	r3, r3, #20
48002b74:	e50b3008 	str	r3, [fp, #-8]
48002b78:	e3043000 	movw	r3, #16384	; 0x4000
48002b7c:	e3443802 	movt	r3, #18434	; 0x4802
48002b80:	e3a0200d 	mov	r2, #13
48002b84:	e5832000 	str	r2, [r3]
48002b88:	e51b2008 	ldr	r2, [fp, #-8]
48002b8c:	e3043004 	movw	r3, #16388	; 0x4004
48002b90:	e3443802 	movt	r3, #18434	; 0x4802
48002b94:	e5832000 	str	r2, [r3]
48002b98:	e3043008 	movw	r3, #16392	; 0x4008
48002b9c:	e3443802 	movt	r3, #18434	; 0x4802
48002ba0:	e3a02001 	mov	r2, #1
48002ba4:	e5832000 	str	r2, [r3]
48002ba8:	e3043010 	movw	r3, #16400	; 0x4010
48002bac:	e3443802 	movt	r3, #18434	; 0x4802
48002bb0:	e3a02000 	mov	r2, #0
48002bb4:	e5832000 	str	r2, [r3]
48002bb8:	e30c3000 	movw	r3, #49152	; 0xc000
48002bbc:	e3443801 	movt	r3, #18433	; 0x4801
48002bc0:	e3a02000 	mov	r2, #0
48002bc4:	e5832000 	str	r2, [r3]
48002bc8:	e51b3008 	ldr	r3, [fp, #-8]
48002bcc:	e3a02000 	mov	r2, #0
48002bd0:	e5832000 	str	r2, [r3]
48002bd4:	e51b3050 	ldr	r3, [fp, #-80]	; 0x50
48002bd8:	e5933000 	ldr	r3, [r3]
48002bdc:	e2832001 	add	r2, r3, #1
48002be0:	e51b3050 	ldr	r3, [fp, #-80]	; 0x50
48002be4:	e5832000 	str	r2, [r3]
48002be8:	e30c3000 	movw	r3, #49152	; 0xc000
48002bec:	e3443801 	movt	r3, #18433	; 0x4801
48002bf0:	e5933000 	ldr	r3, [r3]
48002bf4:	e3530000 	cmp	r3, #0
48002bf8:	0a000005 	beq	48002c14 <arm_mmu_section_test_iter+0x238c>
48002bfc:	e51b3054 	ldr	r3, [fp, #-84]	; 0x54
48002c00:	e5933000 	ldr	r3, [r3]
48002c04:	e2832001 	add	r2, r3, #1
48002c08:	e51b3054 	ldr	r3, [fp, #-84]	; 0x54
48002c0c:	e5832000 	str	r2, [r3]
48002c10:	ea000004 	b	48002c28 <arm_mmu_section_test_iter+0x23a0>
48002c14:	e59b3004 	ldr	r3, [fp, #4]
48002c18:	e5933000 	ldr	r3, [r3]
48002c1c:	e2832001 	add	r2, r3, #1
48002c20:	e59b3004 	ldr	r3, [fp, #4]
48002c24:	e5832000 	str	r2, [r3]
48002c28:	e51b3050 	ldr	r3, [fp, #-80]	; 0x50
48002c2c:	e5933000 	ldr	r3, [r3]
48002c30:	e2832001 	add	r2, r3, #1
48002c34:	e51b3050 	ldr	r3, [fp, #-80]	; 0x50
48002c38:	e5832000 	str	r2, [r3]
48002c3c:	e51b3008 	ldr	r3, [fp, #-8]
48002c40:	e5932000 	ldr	r2, [r3]
48002c44:	e30b3abe 	movw	r3, #47806	; 0xbabe
48002c48:	e34c3001 	movt	r3, #49153	; 0xc001
48002c4c:	e1520003 	cmp	r2, r3
48002c50:	1a000005 	bne	48002c6c <arm_mmu_section_test_iter+0x23e4>
48002c54:	e51b3054 	ldr	r3, [fp, #-84]	; 0x54
48002c58:	e5933000 	ldr	r3, [r3]
48002c5c:	e2832001 	add	r2, r3, #1
48002c60:	e51b3054 	ldr	r3, [fp, #-84]	; 0x54
48002c64:	e5832000 	str	r2, [r3]
48002c68:	ea000004 	b	48002c80 <arm_mmu_section_test_iter+0x23f8>
48002c6c:	e59b3004 	ldr	r3, [fp, #4]
48002c70:	e5933000 	ldr	r3, [r3]
48002c74:	e2832001 	add	r2, r3, #1
48002c78:	e59b3004 	ldr	r3, [fp, #4]
48002c7c:	e5832000 	str	r2, [r3]
48002c80:	e3a00000 	mov	r0, #0
48002c84:	e3a01000 	mov	r1, #0
48002c88:	ebfff54c 	bl	480001c0 <_switch_to_user_mode>
48002c8c:	e3043000 	movw	r3, #16384	; 0x4000
48002c90:	e3443802 	movt	r3, #18434	; 0x4802
48002c94:	e3a0200d 	mov	r2, #13
48002c98:	e5832000 	str	r2, [r3]
48002c9c:	e51b2008 	ldr	r2, [fp, #-8]
48002ca0:	e3043004 	movw	r3, #16388	; 0x4004
48002ca4:	e3443802 	movt	r3, #18434	; 0x4802
48002ca8:	e5832000 	str	r2, [r3]
48002cac:	e3043008 	movw	r3, #16392	; 0x4008
48002cb0:	e3443802 	movt	r3, #18434	; 0x4802
48002cb4:	e3a02001 	mov	r2, #1
48002cb8:	e5832000 	str	r2, [r3]
48002cbc:	e3043010 	movw	r3, #16400	; 0x4010
48002cc0:	e3443802 	movt	r3, #18434	; 0x4802
48002cc4:	e3a02000 	mov	r2, #0
48002cc8:	e5832000 	str	r2, [r3]
48002ccc:	e30c3000 	movw	r3, #49152	; 0xc000
48002cd0:	e3443801 	movt	r3, #18433	; 0x4801
48002cd4:	e3a02000 	mov	r2, #0
48002cd8:	e5832000 	str	r2, [r3]
48002cdc:	e51b2008 	ldr	r2, [fp, #-8]
48002ce0:	e30b3abe 	movw	r3, #47806	; 0xbabe
48002ce4:	e34c3001 	movt	r3, #49153	; 0xc001
48002ce8:	e5823000 	str	r3, [r2]
48002cec:	e51b3050 	ldr	r3, [fp, #-80]	; 0x50
48002cf0:	e5933000 	ldr	r3, [r3]
48002cf4:	e2832001 	add	r2, r3, #1
48002cf8:	e51b3050 	ldr	r3, [fp, #-80]	; 0x50
48002cfc:	e5832000 	str	r2, [r3]
48002d00:	e30c3000 	movw	r3, #49152	; 0xc000
48002d04:	e3443801 	movt	r3, #18433	; 0x4801
48002d08:	e5933000 	ldr	r3, [r3]
48002d0c:	e3530000 	cmp	r3, #0
48002d10:	0a000005 	beq	48002d2c <arm_mmu_section_test_iter+0x24a4>
48002d14:	e51b3054 	ldr	r3, [fp, #-84]	; 0x54
48002d18:	e5933000 	ldr	r3, [r3]
48002d1c:	e2832001 	add	r2, r3, #1
48002d20:	e51b3054 	ldr	r3, [fp, #-84]	; 0x54
48002d24:	e5832000 	str	r2, [r3]
48002d28:	ea000004 	b	48002d40 <arm_mmu_section_test_iter+0x24b8>
48002d2c:	e59b3004 	ldr	r3, [fp, #4]
48002d30:	e5933000 	ldr	r3, [r3]
48002d34:	e2832001 	add	r2, r3, #1
48002d38:	e59b3004 	ldr	r3, [fp, #4]
48002d3c:	e5832000 	str	r2, [r3]
48002d40:	e51b3050 	ldr	r3, [fp, #-80]	; 0x50
48002d44:	e5933000 	ldr	r3, [r3]
48002d48:	e2832001 	add	r2, r3, #1
48002d4c:	e51b3050 	ldr	r3, [fp, #-80]	; 0x50
48002d50:	e5832000 	str	r2, [r3]
48002d54:	e51b3008 	ldr	r3, [fp, #-8]
48002d58:	e5932000 	ldr	r2, [r3]
48002d5c:	e30b3abe 	movw	r3, #47806	; 0xbabe
48002d60:	e34c3001 	movt	r3, #49153	; 0xc001
48002d64:	e1520003 	cmp	r2, r3
48002d68:	1a000005 	bne	48002d84 <arm_mmu_section_test_iter+0x24fc>
48002d6c:	e51b3054 	ldr	r3, [fp, #-84]	; 0x54
48002d70:	e5933000 	ldr	r3, [r3]
48002d74:	e2832001 	add	r2, r3, #1
48002d78:	e51b3054 	ldr	r3, [fp, #-84]	; 0x54
48002d7c:	e5832000 	str	r2, [r3]
48002d80:	ea000004 	b	48002d98 <arm_mmu_section_test_iter+0x2510>
48002d84:	e59b3004 	ldr	r3, [fp, #4]
48002d88:	e5933000 	ldr	r3, [r3]
48002d8c:	e2832001 	add	r2, r3, #1
48002d90:	e59b3004 	ldr	r3, [fp, #4]
48002d94:	e5832000 	str	r2, [r3]
48002d98:	ef000001 	svc	0x00000001
48002d9c:	e3003000 	movw	r3, #0
48002da0:	e3443802 	movt	r3, #18434	; 0x4802
48002da4:	e51b2048 	ldr	r2, [fp, #-72]	; 0x48
48002da8:	e3a01000 	mov	r1, #0
48002dac:	e7831102 	str	r1, [r3, r2, lsl #2]
48002db0:	e3a03000 	mov	r3, #0
48002db4:	e50b3044 	str	r3, [fp, #-68]	; 0x44
48002db8:	ee083f17 	mcr	15, 0, r3, cr8, cr7, {0}
48002dbc:	e50b3044 	str	r3, [fp, #-68]	; 0x44
48002dc0:	e1a00000 	nop			; (mov r0, r0)
48002dc4:	e24bd004 	sub	sp, fp, #4
48002dc8:	e8bd8800 	pop	{fp, pc}

48002dcc <arm_mmu_page_test_iter>:
48002dcc:	e92d4800 	push	{fp, lr}
48002dd0:	e28db004 	add	fp, sp, #4
48002dd4:	e24dd058 	sub	sp, sp, #88	; 0x58
48002dd8:	e50b0050 	str	r0, [fp, #-80]	; 0x50
48002ddc:	e50b1054 	str	r1, [fp, #-84]	; 0x54
48002de0:	e50b2058 	str	r2, [fp, #-88]	; 0x58
48002de4:	e50b305c 	str	r3, [fp, #-92]	; 0x5c
48002de8:	e3a03000 	mov	r3, #0
48002dec:	e50b3008 	str	r3, [fp, #-8]
48002df0:	e51b3050 	ldr	r3, [fp, #-80]	; 0x50
48002df4:	e1a03603 	lsl	r3, r3, #12
48002df8:	e50b3008 	str	r3, [fp, #-8]
48002dfc:	e51b2008 	ldr	r2, [fp, #-8]
48002e00:	e30c3800 	movw	r3, #51200	; 0xc800
48002e04:	e3443801 	movt	r3, #18433	; 0x4801
48002e08:	e5933000 	ldr	r3, [r3]
48002e0c:	e0823003 	add	r3, r2, r3
48002e10:	e50b3008 	str	r3, [fp, #-8]
48002e14:	e3043000 	movw	r3, #16384	; 0x4000
48002e18:	e3443802 	movt	r3, #18434	; 0x4802
48002e1c:	e3a02007 	mov	r2, #7
48002e20:	e5832000 	str	r2, [r3]
48002e24:	e51b2008 	ldr	r2, [fp, #-8]
48002e28:	e3043004 	movw	r3, #16388	; 0x4004
48002e2c:	e3443802 	movt	r3, #18434	; 0x4802
48002e30:	e5832000 	str	r2, [r3]
48002e34:	e3043008 	movw	r3, #16392	; 0x4008
48002e38:	e3443802 	movt	r3, #18434	; 0x4802
48002e3c:	e3a02001 	mov	r2, #1
48002e40:	e5832000 	str	r2, [r3]
48002e44:	e3043010 	movw	r3, #16400	; 0x4010
48002e48:	e3443802 	movt	r3, #18434	; 0x4802
48002e4c:	e3a02000 	mov	r2, #0
48002e50:	e5832000 	str	r2, [r3]
48002e54:	e30c3000 	movw	r3, #49152	; 0xc000
48002e58:	e3443801 	movt	r3, #18433	; 0x4801
48002e5c:	e3a02000 	mov	r2, #0
48002e60:	e5832000 	str	r2, [r3]
48002e64:	e51b2008 	ldr	r2, [fp, #-8]
48002e68:	e30b3abe 	movw	r3, #47806	; 0xbabe
48002e6c:	e34c3001 	movt	r3, #49153	; 0xc001
48002e70:	e5823000 	str	r3, [r2]
48002e74:	e51b3058 	ldr	r3, [fp, #-88]	; 0x58
48002e78:	e5933000 	ldr	r3, [r3]
48002e7c:	e2832001 	add	r2, r3, #1
48002e80:	e51b3058 	ldr	r3, [fp, #-88]	; 0x58
48002e84:	e5832000 	str	r2, [r3]
48002e88:	e30c3000 	movw	r3, #49152	; 0xc000
48002e8c:	e3443801 	movt	r3, #18433	; 0x4801
48002e90:	e5933000 	ldr	r3, [r3]
48002e94:	e3530000 	cmp	r3, #0
48002e98:	0a000005 	beq	48002eb4 <arm_mmu_page_test_iter+0xe8>
48002e9c:	e51b305c 	ldr	r3, [fp, #-92]	; 0x5c
48002ea0:	e5933000 	ldr	r3, [r3]
48002ea4:	e2832001 	add	r2, r3, #1
48002ea8:	e51b305c 	ldr	r3, [fp, #-92]	; 0x5c
48002eac:	e5832000 	str	r2, [r3]
48002eb0:	ea000004 	b	48002ec8 <arm_mmu_page_test_iter+0xfc>
48002eb4:	e59b3004 	ldr	r3, [fp, #4]
48002eb8:	e5933000 	ldr	r3, [r3]
48002ebc:	e2832001 	add	r2, r3, #1
48002ec0:	e59b3004 	ldr	r3, [fp, #4]
48002ec4:	e5832000 	str	r2, [r3]
48002ec8:	e3043008 	movw	r3, #16392	; 0x4008
48002ecc:	e3443802 	movt	r3, #18434	; 0x4802
48002ed0:	e3a02000 	mov	r2, #0
48002ed4:	e5832000 	str	r2, [r3]
48002ed8:	e30c3000 	movw	r3, #49152	; 0xc000
48002edc:	e3443801 	movt	r3, #18433	; 0x4801
48002ee0:	e3a02000 	mov	r2, #0
48002ee4:	e5832000 	str	r2, [r3]
48002ee8:	e51b3008 	ldr	r3, [fp, #-8]
48002eec:	e5933000 	ldr	r3, [r3]
48002ef0:	e50b300c 	str	r3, [fp, #-12]
48002ef4:	e51b3058 	ldr	r3, [fp, #-88]	; 0x58
48002ef8:	e5933000 	ldr	r3, [r3]
48002efc:	e2832001 	add	r2, r3, #1
48002f00:	e51b3058 	ldr	r3, [fp, #-88]	; 0x58
48002f04:	e5832000 	str	r2, [r3]
48002f08:	e30c3000 	movw	r3, #49152	; 0xc000
48002f0c:	e3443801 	movt	r3, #18433	; 0x4801
48002f10:	e5933000 	ldr	r3, [r3]
48002f14:	e3530000 	cmp	r3, #0
48002f18:	0a000005 	beq	48002f34 <arm_mmu_page_test_iter+0x168>
48002f1c:	e51b305c 	ldr	r3, [fp, #-92]	; 0x5c
48002f20:	e5933000 	ldr	r3, [r3]
48002f24:	e2832001 	add	r2, r3, #1
48002f28:	e51b305c 	ldr	r3, [fp, #-92]	; 0x5c
48002f2c:	e5832000 	str	r2, [r3]
48002f30:	ea000004 	b	48002f48 <arm_mmu_page_test_iter+0x17c>
48002f34:	e59b3004 	ldr	r3, [fp, #4]
48002f38:	e5933000 	ldr	r3, [r3]
48002f3c:	e2832001 	add	r2, r3, #1
48002f40:	e59b3004 	ldr	r3, [fp, #4]
48002f44:	e5832000 	str	r2, [r3]
48002f48:	e51b3050 	ldr	r3, [fp, #-80]	; 0x50
48002f4c:	e1a03603 	lsl	r3, r3, #12
48002f50:	e2833e7f 	add	r3, r3, #2032	; 0x7f0
48002f54:	e283300c 	add	r3, r3, #12
48002f58:	e50b3008 	str	r3, [fp, #-8]
48002f5c:	e51b2008 	ldr	r2, [fp, #-8]
48002f60:	e30c3800 	movw	r3, #51200	; 0xc800
48002f64:	e3443801 	movt	r3, #18433	; 0x4801
48002f68:	e5933000 	ldr	r3, [r3]
48002f6c:	e0823003 	add	r3, r2, r3
48002f70:	e50b3008 	str	r3, [fp, #-8]
48002f74:	e3043000 	movw	r3, #16384	; 0x4000
48002f78:	e3443802 	movt	r3, #18434	; 0x4802
48002f7c:	e3a02007 	mov	r2, #7
48002f80:	e5832000 	str	r2, [r3]
48002f84:	e51b2008 	ldr	r2, [fp, #-8]
48002f88:	e3043004 	movw	r3, #16388	; 0x4004
48002f8c:	e3443802 	movt	r3, #18434	; 0x4802
48002f90:	e5832000 	str	r2, [r3]
48002f94:	e3043008 	movw	r3, #16392	; 0x4008
48002f98:	e3443802 	movt	r3, #18434	; 0x4802
48002f9c:	e3a02001 	mov	r2, #1
48002fa0:	e5832000 	str	r2, [r3]
48002fa4:	e3043010 	movw	r3, #16400	; 0x4010
48002fa8:	e3443802 	movt	r3, #18434	; 0x4802
48002fac:	e3a02000 	mov	r2, #0
48002fb0:	e5832000 	str	r2, [r3]
48002fb4:	e30c3000 	movw	r3, #49152	; 0xc000
48002fb8:	e3443801 	movt	r3, #18433	; 0x4801
48002fbc:	e3a02000 	mov	r2, #0
48002fc0:	e5832000 	str	r2, [r3]
48002fc4:	e51b2008 	ldr	r2, [fp, #-8]
48002fc8:	e30b3abe 	movw	r3, #47806	; 0xbabe
48002fcc:	e34c3001 	movt	r3, #49153	; 0xc001
48002fd0:	e5823000 	str	r3, [r2]
48002fd4:	e51b3058 	ldr	r3, [fp, #-88]	; 0x58
48002fd8:	e5933000 	ldr	r3, [r3]
48002fdc:	e2832001 	add	r2, r3, #1
48002fe0:	e51b3058 	ldr	r3, [fp, #-88]	; 0x58
48002fe4:	e5832000 	str	r2, [r3]
48002fe8:	e30c3000 	movw	r3, #49152	; 0xc000
48002fec:	e3443801 	movt	r3, #18433	; 0x4801
48002ff0:	e5933000 	ldr	r3, [r3]
48002ff4:	e3530000 	cmp	r3, #0
48002ff8:	0a000005 	beq	48003014 <arm_mmu_page_test_iter+0x248>
48002ffc:	e51b305c 	ldr	r3, [fp, #-92]	; 0x5c
48003000:	e5933000 	ldr	r3, [r3]
48003004:	e2832001 	add	r2, r3, #1
48003008:	e51b305c 	ldr	r3, [fp, #-92]	; 0x5c
4800300c:	e5832000 	str	r2, [r3]
48003010:	ea000004 	b	48003028 <arm_mmu_page_test_iter+0x25c>
48003014:	e59b3004 	ldr	r3, [fp, #4]
48003018:	e5933000 	ldr	r3, [r3]
4800301c:	e2832001 	add	r2, r3, #1
48003020:	e59b3004 	ldr	r3, [fp, #4]
48003024:	e5832000 	str	r2, [r3]
48003028:	e3043008 	movw	r3, #16392	; 0x4008
4800302c:	e3443802 	movt	r3, #18434	; 0x4802
48003030:	e3a02000 	mov	r2, #0
48003034:	e5832000 	str	r2, [r3]
48003038:	e30c3000 	movw	r3, #49152	; 0xc000
4800303c:	e3443801 	movt	r3, #18433	; 0x4801
48003040:	e3a02000 	mov	r2, #0
48003044:	e5832000 	str	r2, [r3]
48003048:	e51b3008 	ldr	r3, [fp, #-8]
4800304c:	e5933000 	ldr	r3, [r3]
48003050:	e50b300c 	str	r3, [fp, #-12]
48003054:	e51b3058 	ldr	r3, [fp, #-88]	; 0x58
48003058:	e5933000 	ldr	r3, [r3]
4800305c:	e2832001 	add	r2, r3, #1
48003060:	e51b3058 	ldr	r3, [fp, #-88]	; 0x58
48003064:	e5832000 	str	r2, [r3]
48003068:	e30c3000 	movw	r3, #49152	; 0xc000
4800306c:	e3443801 	movt	r3, #18433	; 0x4801
48003070:	e5933000 	ldr	r3, [r3]
48003074:	e3530000 	cmp	r3, #0
48003078:	0a000005 	beq	48003094 <arm_mmu_page_test_iter+0x2c8>
4800307c:	e51b305c 	ldr	r3, [fp, #-92]	; 0x5c
48003080:	e5933000 	ldr	r3, [r3]
48003084:	e2832001 	add	r2, r3, #1
48003088:	e51b305c 	ldr	r3, [fp, #-92]	; 0x5c
4800308c:	e5832000 	str	r2, [r3]
48003090:	ea000004 	b	480030a8 <arm_mmu_page_test_iter+0x2dc>
48003094:	e59b3004 	ldr	r3, [fp, #4]
48003098:	e5933000 	ldr	r3, [r3]
4800309c:	e2832001 	add	r2, r3, #1
480030a0:	e59b3004 	ldr	r3, [fp, #4]
480030a4:	e5832000 	str	r2, [r3]
480030a8:	e51b3050 	ldr	r3, [fp, #-80]	; 0x50
480030ac:	e1a03603 	lsl	r3, r3, #12
480030b0:	e2833eff 	add	r3, r3, #4080	; 0xff0
480030b4:	e283300c 	add	r3, r3, #12
480030b8:	e50b3008 	str	r3, [fp, #-8]
480030bc:	e51b2008 	ldr	r2, [fp, #-8]
480030c0:	e30c3800 	movw	r3, #51200	; 0xc800
480030c4:	e3443801 	movt	r3, #18433	; 0x4801
480030c8:	e5933000 	ldr	r3, [r3]
480030cc:	e0823003 	add	r3, r2, r3
480030d0:	e50b3008 	str	r3, [fp, #-8]
480030d4:	e3043000 	movw	r3, #16384	; 0x4000
480030d8:	e3443802 	movt	r3, #18434	; 0x4802
480030dc:	e3a02007 	mov	r2, #7
480030e0:	e5832000 	str	r2, [r3]
480030e4:	e51b2008 	ldr	r2, [fp, #-8]
480030e8:	e3043004 	movw	r3, #16388	; 0x4004
480030ec:	e3443802 	movt	r3, #18434	; 0x4802
480030f0:	e5832000 	str	r2, [r3]
480030f4:	e3043008 	movw	r3, #16392	; 0x4008
480030f8:	e3443802 	movt	r3, #18434	; 0x4802
480030fc:	e3a02001 	mov	r2, #1
48003100:	e5832000 	str	r2, [r3]
48003104:	e3043010 	movw	r3, #16400	; 0x4010
48003108:	e3443802 	movt	r3, #18434	; 0x4802
4800310c:	e3a02000 	mov	r2, #0
48003110:	e5832000 	str	r2, [r3]
48003114:	e30c3000 	movw	r3, #49152	; 0xc000
48003118:	e3443801 	movt	r3, #18433	; 0x4801
4800311c:	e3a02000 	mov	r2, #0
48003120:	e5832000 	str	r2, [r3]
48003124:	e51b2008 	ldr	r2, [fp, #-8]
48003128:	e30b3abe 	movw	r3, #47806	; 0xbabe
4800312c:	e34c3001 	movt	r3, #49153	; 0xc001
48003130:	e5823000 	str	r3, [r2]
48003134:	e51b3058 	ldr	r3, [fp, #-88]	; 0x58
48003138:	e5933000 	ldr	r3, [r3]
4800313c:	e2832001 	add	r2, r3, #1
48003140:	e51b3058 	ldr	r3, [fp, #-88]	; 0x58
48003144:	e5832000 	str	r2, [r3]
48003148:	e30c3000 	movw	r3, #49152	; 0xc000
4800314c:	e3443801 	movt	r3, #18433	; 0x4801
48003150:	e5933000 	ldr	r3, [r3]
48003154:	e3530000 	cmp	r3, #0
48003158:	0a000005 	beq	48003174 <arm_mmu_page_test_iter+0x3a8>
4800315c:	e51b305c 	ldr	r3, [fp, #-92]	; 0x5c
48003160:	e5933000 	ldr	r3, [r3]
48003164:	e2832001 	add	r2, r3, #1
48003168:	e51b305c 	ldr	r3, [fp, #-92]	; 0x5c
4800316c:	e5832000 	str	r2, [r3]
48003170:	ea000004 	b	48003188 <arm_mmu_page_test_iter+0x3bc>
48003174:	e59b3004 	ldr	r3, [fp, #4]
48003178:	e5933000 	ldr	r3, [r3]
4800317c:	e2832001 	add	r2, r3, #1
48003180:	e59b3004 	ldr	r3, [fp, #4]
48003184:	e5832000 	str	r2, [r3]
48003188:	e3043008 	movw	r3, #16392	; 0x4008
4800318c:	e3443802 	movt	r3, #18434	; 0x4802
48003190:	e3a02000 	mov	r2, #0
48003194:	e5832000 	str	r2, [r3]
48003198:	e30c3000 	movw	r3, #49152	; 0xc000
4800319c:	e3443801 	movt	r3, #18433	; 0x4801
480031a0:	e3a02000 	mov	r2, #0
480031a4:	e5832000 	str	r2, [r3]
480031a8:	e51b3008 	ldr	r3, [fp, #-8]
480031ac:	e5933000 	ldr	r3, [r3]
480031b0:	e50b300c 	str	r3, [fp, #-12]
480031b4:	e51b3058 	ldr	r3, [fp, #-88]	; 0x58
480031b8:	e5933000 	ldr	r3, [r3]
480031bc:	e2832001 	add	r2, r3, #1
480031c0:	e51b3058 	ldr	r3, [fp, #-88]	; 0x58
480031c4:	e5832000 	str	r2, [r3]
480031c8:	e30c3000 	movw	r3, #49152	; 0xc000
480031cc:	e3443801 	movt	r3, #18433	; 0x4801
480031d0:	e5933000 	ldr	r3, [r3]
480031d4:	e3530000 	cmp	r3, #0
480031d8:	0a000005 	beq	480031f4 <arm_mmu_page_test_iter+0x428>
480031dc:	e51b305c 	ldr	r3, [fp, #-92]	; 0x5c
480031e0:	e5933000 	ldr	r3, [r3]
480031e4:	e2832001 	add	r2, r3, #1
480031e8:	e51b305c 	ldr	r3, [fp, #-92]	; 0x5c
480031ec:	e5832000 	str	r2, [r3]
480031f0:	ea000004 	b	48003208 <arm_mmu_page_test_iter+0x43c>
480031f4:	e59b3004 	ldr	r3, [fp, #4]
480031f8:	e5933000 	ldr	r3, [r3]
480031fc:	e2832001 	add	r2, r3, #1
48003200:	e59b3004 	ldr	r3, [fp, #4]
48003204:	e5832000 	str	r2, [r3]
48003208:	e3a03000 	mov	r3, #0
4800320c:	e50b300c 	str	r3, [fp, #-12]
48003210:	e51b300c 	ldr	r3, [fp, #-12]
48003214:	e3833030 	orr	r3, r3, #48	; 0x30
48003218:	e50b300c 	str	r3, [fp, #-12]
4800321c:	e51b300c 	ldr	r3, [fp, #-12]
48003220:	e3833008 	orr	r3, r3, #8
48003224:	e50b300c 	str	r3, [fp, #-12]
48003228:	e51b300c 	ldr	r3, [fp, #-12]
4800322c:	e3833003 	orr	r3, r3, #3
48003230:	e50b300c 	str	r3, [fp, #-12]
48003234:	e30c3808 	movw	r3, #51208	; 0xc808
48003238:	e3443801 	movt	r3, #18433	; 0x4801
4800323c:	e5932000 	ldr	r2, [r3]
48003240:	e51b300c 	ldr	r3, [fp, #-12]
48003244:	e1821003 	orr	r1, r2, r3
48003248:	e30c3400 	movw	r3, #50176	; 0xc400
4800324c:	e3443801 	movt	r3, #18433	; 0x4801
48003250:	e51b2050 	ldr	r2, [fp, #-80]	; 0x50
48003254:	e7831102 	str	r1, [r3, r2, lsl #2]
48003258:	e30c3808 	movw	r3, #51208	; 0xc808
4800325c:	e3443801 	movt	r3, #18433	; 0x4801
48003260:	e5932000 	ldr	r2, [r3]
48003264:	e51b300c 	ldr	r3, [fp, #-12]
48003268:	e1821003 	orr	r1, r2, r3
4800326c:	e30c3400 	movw	r3, #50176	; 0xc400
48003270:	e3443801 	movt	r3, #18433	; 0x4801
48003274:	e51b2054 	ldr	r2, [fp, #-84]	; 0x54
48003278:	e7831102 	str	r1, [r3, r2, lsl #2]
4800327c:	e51b3050 	ldr	r3, [fp, #-80]	; 0x50
48003280:	e1a03603 	lsl	r3, r3, #12
48003284:	e50b3008 	str	r3, [fp, #-8]
48003288:	e51b2008 	ldr	r2, [fp, #-8]
4800328c:	e30c3800 	movw	r3, #51200	; 0xc800
48003290:	e3443801 	movt	r3, #18433	; 0x4801
48003294:	e5933000 	ldr	r3, [r3]
48003298:	e0823003 	add	r3, r2, r3
4800329c:	e50b3008 	str	r3, [fp, #-8]
480032a0:	e51b2008 	ldr	r2, [fp, #-8]
480032a4:	e30b3abe 	movw	r3, #47806	; 0xbabe
480032a8:	e34c3001 	movt	r3, #49153	; 0xc001
480032ac:	e5823000 	str	r3, [r2]
480032b0:	e51b3050 	ldr	r3, [fp, #-80]	; 0x50
480032b4:	e1a03603 	lsl	r3, r3, #12
480032b8:	e2833e7f 	add	r3, r3, #2032	; 0x7f0
480032bc:	e2833008 	add	r3, r3, #8
480032c0:	e50b3008 	str	r3, [fp, #-8]
480032c4:	e51b2008 	ldr	r2, [fp, #-8]
480032c8:	e30c3800 	movw	r3, #51200	; 0xc800
480032cc:	e3443801 	movt	r3, #18433	; 0x4801
480032d0:	e5933000 	ldr	r3, [r3]
480032d4:	e0823003 	add	r3, r2, r3
480032d8:	e50b3008 	str	r3, [fp, #-8]
480032dc:	e51b2008 	ldr	r2, [fp, #-8]
480032e0:	e30b3abe 	movw	r3, #47806	; 0xbabe
480032e4:	e34c3001 	movt	r3, #49153	; 0xc001
480032e8:	e5823000 	str	r3, [r2]
480032ec:	e51b3050 	ldr	r3, [fp, #-80]	; 0x50
480032f0:	e1a03603 	lsl	r3, r3, #12
480032f4:	e2833eff 	add	r3, r3, #4080	; 0xff0
480032f8:	e2833008 	add	r3, r3, #8
480032fc:	e50b3008 	str	r3, [fp, #-8]
48003300:	e51b2008 	ldr	r2, [fp, #-8]
48003304:	e30c3800 	movw	r3, #51200	; 0xc800
48003308:	e3443801 	movt	r3, #18433	; 0x4801
4800330c:	e5933000 	ldr	r3, [r3]
48003310:	e0823003 	add	r3, r2, r3
48003314:	e50b3008 	str	r3, [fp, #-8]
48003318:	e51b2008 	ldr	r2, [fp, #-8]
4800331c:	e30b3abe 	movw	r3, #47806	; 0xbabe
48003320:	e34c3001 	movt	r3, #49153	; 0xc001
48003324:	e5823000 	str	r3, [r2]
48003328:	e51b3054 	ldr	r3, [fp, #-84]	; 0x54
4800332c:	e1a03603 	lsl	r3, r3, #12
48003330:	e50b3008 	str	r3, [fp, #-8]
48003334:	e51b2008 	ldr	r2, [fp, #-8]
48003338:	e30c3800 	movw	r3, #51200	; 0xc800
4800333c:	e3443801 	movt	r3, #18433	; 0x4801
48003340:	e5933000 	ldr	r3, [r3]
48003344:	e0823003 	add	r3, r2, r3
48003348:	e50b3008 	str	r3, [fp, #-8]
4800334c:	e51b3008 	ldr	r3, [fp, #-8]
48003350:	e2832004 	add	r2, r3, #4
48003354:	e30f3eed 	movw	r3, #65261	; 0xfeed
48003358:	e34d300d 	movt	r3, #53261	; 0xd00d
4800335c:	e5823000 	str	r3, [r2]
48003360:	e51b3054 	ldr	r3, [fp, #-84]	; 0x54
48003364:	e1a03603 	lsl	r3, r3, #12
48003368:	e2833e7f 	add	r3, r3, #2032	; 0x7f0
4800336c:	e2833008 	add	r3, r3, #8
48003370:	e50b3008 	str	r3, [fp, #-8]
48003374:	e51b2008 	ldr	r2, [fp, #-8]
48003378:	e30c3800 	movw	r3, #51200	; 0xc800
4800337c:	e3443801 	movt	r3, #18433	; 0x4801
48003380:	e5933000 	ldr	r3, [r3]
48003384:	e0823003 	add	r3, r2, r3
48003388:	e50b3008 	str	r3, [fp, #-8]
4800338c:	e51b3008 	ldr	r3, [fp, #-8]
48003390:	e2832004 	add	r2, r3, #4
48003394:	e30f3eed 	movw	r3, #65261	; 0xfeed
48003398:	e34d300d 	movt	r3, #53261	; 0xd00d
4800339c:	e5823000 	str	r3, [r2]
480033a0:	e51b3054 	ldr	r3, [fp, #-84]	; 0x54
480033a4:	e1a03603 	lsl	r3, r3, #12
480033a8:	e2833eff 	add	r3, r3, #4080	; 0xff0
480033ac:	e2833008 	add	r3, r3, #8
480033b0:	e50b3008 	str	r3, [fp, #-8]
480033b4:	e51b2008 	ldr	r2, [fp, #-8]
480033b8:	e30c3800 	movw	r3, #51200	; 0xc800
480033bc:	e3443801 	movt	r3, #18433	; 0x4801
480033c0:	e5933000 	ldr	r3, [r3]
480033c4:	e0823003 	add	r3, r2, r3
480033c8:	e50b3008 	str	r3, [fp, #-8]
480033cc:	e51b3008 	ldr	r3, [fp, #-8]
480033d0:	e2832004 	add	r2, r3, #4
480033d4:	e30f3eed 	movw	r3, #65261	; 0xfeed
480033d8:	e34d300d 	movt	r3, #53261	; 0xd00d
480033dc:	e5823000 	str	r3, [r2]
480033e0:	e51b3050 	ldr	r3, [fp, #-80]	; 0x50
480033e4:	e1a03603 	lsl	r3, r3, #12
480033e8:	e50b3008 	str	r3, [fp, #-8]
480033ec:	e51b2008 	ldr	r2, [fp, #-8]
480033f0:	e30c3800 	movw	r3, #51200	; 0xc800
480033f4:	e3443801 	movt	r3, #18433	; 0x4801
480033f8:	e5933000 	ldr	r3, [r3]
480033fc:	e0823003 	add	r3, r2, r3
48003400:	e50b3008 	str	r3, [fp, #-8]
48003404:	e51b3058 	ldr	r3, [fp, #-88]	; 0x58
48003408:	e5933000 	ldr	r3, [r3]
4800340c:	e2832001 	add	r2, r3, #1
48003410:	e51b3058 	ldr	r3, [fp, #-88]	; 0x58
48003414:	e5832000 	str	r2, [r3]
48003418:	e51b3008 	ldr	r3, [fp, #-8]
4800341c:	e5932000 	ldr	r2, [r3]
48003420:	e30b3abe 	movw	r3, #47806	; 0xbabe
48003424:	e34c3001 	movt	r3, #49153	; 0xc001
48003428:	e1520003 	cmp	r2, r3
4800342c:	1a00000c 	bne	48003464 <arm_mmu_page_test_iter+0x698>
48003430:	e51b3008 	ldr	r3, [fp, #-8]
48003434:	e2833004 	add	r3, r3, #4
48003438:	e5932000 	ldr	r2, [r3]
4800343c:	e30f3eed 	movw	r3, #65261	; 0xfeed
48003440:	e34d300d 	movt	r3, #53261	; 0xd00d
48003444:	e1520003 	cmp	r2, r3
48003448:	1a000005 	bne	48003464 <arm_mmu_page_test_iter+0x698>
4800344c:	e51b305c 	ldr	r3, [fp, #-92]	; 0x5c
48003450:	e5933000 	ldr	r3, [r3]
48003454:	e2832001 	add	r2, r3, #1
48003458:	e51b305c 	ldr	r3, [fp, #-92]	; 0x5c
4800345c:	e5832000 	str	r2, [r3]
48003460:	ea000004 	b	48003478 <arm_mmu_page_test_iter+0x6ac>
48003464:	e59b3004 	ldr	r3, [fp, #4]
48003468:	e5933000 	ldr	r3, [r3]
4800346c:	e2832001 	add	r2, r3, #1
48003470:	e59b3004 	ldr	r3, [fp, #4]
48003474:	e5832000 	str	r2, [r3]
48003478:	e51b3050 	ldr	r3, [fp, #-80]	; 0x50
4800347c:	e1a03603 	lsl	r3, r3, #12
48003480:	e2833e7f 	add	r3, r3, #2032	; 0x7f0
48003484:	e2833008 	add	r3, r3, #8
48003488:	e50b3008 	str	r3, [fp, #-8]
4800348c:	e51b2008 	ldr	r2, [fp, #-8]
48003490:	e30c3800 	movw	r3, #51200	; 0xc800
48003494:	e3443801 	movt	r3, #18433	; 0x4801
48003498:	e5933000 	ldr	r3, [r3]
4800349c:	e0823003 	add	r3, r2, r3
480034a0:	e50b3008 	str	r3, [fp, #-8]
480034a4:	e51b3058 	ldr	r3, [fp, #-88]	; 0x58
480034a8:	e5933000 	ldr	r3, [r3]
480034ac:	e2832001 	add	r2, r3, #1
480034b0:	e51b3058 	ldr	r3, [fp, #-88]	; 0x58
480034b4:	e5832000 	str	r2, [r3]
480034b8:	e51b3008 	ldr	r3, [fp, #-8]
480034bc:	e5932000 	ldr	r2, [r3]
480034c0:	e30b3abe 	movw	r3, #47806	; 0xbabe
480034c4:	e34c3001 	movt	r3, #49153	; 0xc001
480034c8:	e1520003 	cmp	r2, r3
480034cc:	1a00000c 	bne	48003504 <arm_mmu_page_test_iter+0x738>
480034d0:	e51b3008 	ldr	r3, [fp, #-8]
480034d4:	e2833004 	add	r3, r3, #4
480034d8:	e5932000 	ldr	r2, [r3]
480034dc:	e30f3eed 	movw	r3, #65261	; 0xfeed
480034e0:	e34d300d 	movt	r3, #53261	; 0xd00d
480034e4:	e1520003 	cmp	r2, r3
480034e8:	1a000005 	bne	48003504 <arm_mmu_page_test_iter+0x738>
480034ec:	e51b305c 	ldr	r3, [fp, #-92]	; 0x5c
480034f0:	e5933000 	ldr	r3, [r3]
480034f4:	e2832001 	add	r2, r3, #1
480034f8:	e51b305c 	ldr	r3, [fp, #-92]	; 0x5c
480034fc:	e5832000 	str	r2, [r3]
48003500:	ea000004 	b	48003518 <arm_mmu_page_test_iter+0x74c>
48003504:	e59b3004 	ldr	r3, [fp, #4]
48003508:	e5933000 	ldr	r3, [r3]
4800350c:	e2832001 	add	r2, r3, #1
48003510:	e59b3004 	ldr	r3, [fp, #4]
48003514:	e5832000 	str	r2, [r3]
48003518:	e51b3050 	ldr	r3, [fp, #-80]	; 0x50
4800351c:	e1a03603 	lsl	r3, r3, #12
48003520:	e2833eff 	add	r3, r3, #4080	; 0xff0
48003524:	e2833008 	add	r3, r3, #8
48003528:	e50b3008 	str	r3, [fp, #-8]
4800352c:	e51b2008 	ldr	r2, [fp, #-8]
48003530:	e30c3800 	movw	r3, #51200	; 0xc800
48003534:	e3443801 	movt	r3, #18433	; 0x4801
48003538:	e5933000 	ldr	r3, [r3]
4800353c:	e0823003 	add	r3, r2, r3
48003540:	e50b3008 	str	r3, [fp, #-8]
48003544:	e51b3058 	ldr	r3, [fp, #-88]	; 0x58
48003548:	e5933000 	ldr	r3, [r3]
4800354c:	e2832001 	add	r2, r3, #1
48003550:	e51b3058 	ldr	r3, [fp, #-88]	; 0x58
48003554:	e5832000 	str	r2, [r3]
48003558:	e51b3008 	ldr	r3, [fp, #-8]
4800355c:	e5932000 	ldr	r2, [r3]
48003560:	e30b3abe 	movw	r3, #47806	; 0xbabe
48003564:	e34c3001 	movt	r3, #49153	; 0xc001
48003568:	e1520003 	cmp	r2, r3
4800356c:	1a00000c 	bne	480035a4 <arm_mmu_page_test_iter+0x7d8>
48003570:	e51b3008 	ldr	r3, [fp, #-8]
48003574:	e2833004 	add	r3, r3, #4
48003578:	e5932000 	ldr	r2, [r3]
4800357c:	e30f3eed 	movw	r3, #65261	; 0xfeed
48003580:	e34d300d 	movt	r3, #53261	; 0xd00d
48003584:	e1520003 	cmp	r2, r3
48003588:	1a000005 	bne	480035a4 <arm_mmu_page_test_iter+0x7d8>
4800358c:	e51b305c 	ldr	r3, [fp, #-92]	; 0x5c
48003590:	e5933000 	ldr	r3, [r3]
48003594:	e2832001 	add	r2, r3, #1
48003598:	e51b305c 	ldr	r3, [fp, #-92]	; 0x5c
4800359c:	e5832000 	str	r2, [r3]
480035a0:	ea000004 	b	480035b8 <arm_mmu_page_test_iter+0x7ec>
480035a4:	e59b3004 	ldr	r3, [fp, #4]
480035a8:	e5933000 	ldr	r3, [r3]
480035ac:	e2832001 	add	r2, r3, #1
480035b0:	e59b3004 	ldr	r3, [fp, #4]
480035b4:	e5832000 	str	r2, [r3]
480035b8:	e51b3054 	ldr	r3, [fp, #-84]	; 0x54
480035bc:	e1a03603 	lsl	r3, r3, #12
480035c0:	e50b3008 	str	r3, [fp, #-8]
480035c4:	e51b2008 	ldr	r2, [fp, #-8]
480035c8:	e30c3800 	movw	r3, #51200	; 0xc800
480035cc:	e3443801 	movt	r3, #18433	; 0x4801
480035d0:	e5933000 	ldr	r3, [r3]
480035d4:	e0823003 	add	r3, r2, r3
480035d8:	e50b3008 	str	r3, [fp, #-8]
480035dc:	e51b3058 	ldr	r3, [fp, #-88]	; 0x58
480035e0:	e5933000 	ldr	r3, [r3]
480035e4:	e2832001 	add	r2, r3, #1
480035e8:	e51b3058 	ldr	r3, [fp, #-88]	; 0x58
480035ec:	e5832000 	str	r2, [r3]
480035f0:	e51b3008 	ldr	r3, [fp, #-8]
480035f4:	e5932000 	ldr	r2, [r3]
480035f8:	e30b3abe 	movw	r3, #47806	; 0xbabe
480035fc:	e34c3001 	movt	r3, #49153	; 0xc001
48003600:	e1520003 	cmp	r2, r3
48003604:	1a00000c 	bne	4800363c <arm_mmu_page_test_iter+0x870>
48003608:	e51b3008 	ldr	r3, [fp, #-8]
4800360c:	e2833004 	add	r3, r3, #4
48003610:	e5932000 	ldr	r2, [r3]
48003614:	e30f3eed 	movw	r3, #65261	; 0xfeed
48003618:	e34d300d 	movt	r3, #53261	; 0xd00d
4800361c:	e1520003 	cmp	r2, r3
48003620:	1a000005 	bne	4800363c <arm_mmu_page_test_iter+0x870>
48003624:	e51b305c 	ldr	r3, [fp, #-92]	; 0x5c
48003628:	e5933000 	ldr	r3, [r3]
4800362c:	e2832001 	add	r2, r3, #1
48003630:	e51b305c 	ldr	r3, [fp, #-92]	; 0x5c
48003634:	e5832000 	str	r2, [r3]
48003638:	ea000004 	b	48003650 <arm_mmu_page_test_iter+0x884>
4800363c:	e59b3004 	ldr	r3, [fp, #4]
48003640:	e5933000 	ldr	r3, [r3]
48003644:	e2832001 	add	r2, r3, #1
48003648:	e59b3004 	ldr	r3, [fp, #4]
4800364c:	e5832000 	str	r2, [r3]
48003650:	e51b3054 	ldr	r3, [fp, #-84]	; 0x54
48003654:	e1a03603 	lsl	r3, r3, #12
48003658:	e2833e7f 	add	r3, r3, #2032	; 0x7f0
4800365c:	e2833008 	add	r3, r3, #8
48003660:	e50b3008 	str	r3, [fp, #-8]
48003664:	e51b2008 	ldr	r2, [fp, #-8]
48003668:	e30c3800 	movw	r3, #51200	; 0xc800
4800366c:	e3443801 	movt	r3, #18433	; 0x4801
48003670:	e5933000 	ldr	r3, [r3]
48003674:	e0823003 	add	r3, r2, r3
48003678:	e50b3008 	str	r3, [fp, #-8]
4800367c:	e51b3058 	ldr	r3, [fp, #-88]	; 0x58
48003680:	e5933000 	ldr	r3, [r3]
48003684:	e2832001 	add	r2, r3, #1
48003688:	e51b3058 	ldr	r3, [fp, #-88]	; 0x58
4800368c:	e5832000 	str	r2, [r3]
48003690:	e51b3008 	ldr	r3, [fp, #-8]
48003694:	e5932000 	ldr	r2, [r3]
48003698:	e30b3abe 	movw	r3, #47806	; 0xbabe
4800369c:	e34c3001 	movt	r3, #49153	; 0xc001
480036a0:	e1520003 	cmp	r2, r3
480036a4:	1a00000c 	bne	480036dc <arm_mmu_page_test_iter+0x910>
480036a8:	e51b3008 	ldr	r3, [fp, #-8]
480036ac:	e2833004 	add	r3, r3, #4
480036b0:	e5932000 	ldr	r2, [r3]
480036b4:	e30f3eed 	movw	r3, #65261	; 0xfeed
480036b8:	e34d300d 	movt	r3, #53261	; 0xd00d
480036bc:	e1520003 	cmp	r2, r3
480036c0:	1a000005 	bne	480036dc <arm_mmu_page_test_iter+0x910>
480036c4:	e51b305c 	ldr	r3, [fp, #-92]	; 0x5c
480036c8:	e5933000 	ldr	r3, [r3]
480036cc:	e2832001 	add	r2, r3, #1
480036d0:	e51b305c 	ldr	r3, [fp, #-92]	; 0x5c
480036d4:	e5832000 	str	r2, [r3]
480036d8:	ea000004 	b	480036f0 <arm_mmu_page_test_iter+0x924>
480036dc:	e59b3004 	ldr	r3, [fp, #4]
480036e0:	e5933000 	ldr	r3, [r3]
480036e4:	e2832001 	add	r2, r3, #1
480036e8:	e59b3004 	ldr	r3, [fp, #4]
480036ec:	e5832000 	str	r2, [r3]
480036f0:	e51b3054 	ldr	r3, [fp, #-84]	; 0x54
480036f4:	e1a03603 	lsl	r3, r3, #12
480036f8:	e2833eff 	add	r3, r3, #4080	; 0xff0
480036fc:	e2833008 	add	r3, r3, #8
48003700:	e50b3008 	str	r3, [fp, #-8]
48003704:	e51b2008 	ldr	r2, [fp, #-8]
48003708:	e30c3800 	movw	r3, #51200	; 0xc800
4800370c:	e3443801 	movt	r3, #18433	; 0x4801
48003710:	e5933000 	ldr	r3, [r3]
48003714:	e0823003 	add	r3, r2, r3
48003718:	e50b3008 	str	r3, [fp, #-8]
4800371c:	e51b3058 	ldr	r3, [fp, #-88]	; 0x58
48003720:	e5933000 	ldr	r3, [r3]
48003724:	e2832001 	add	r2, r3, #1
48003728:	e51b3058 	ldr	r3, [fp, #-88]	; 0x58
4800372c:	e5832000 	str	r2, [r3]
48003730:	e51b3008 	ldr	r3, [fp, #-8]
48003734:	e5932000 	ldr	r2, [r3]
48003738:	e30b3abe 	movw	r3, #47806	; 0xbabe
4800373c:	e34c3001 	movt	r3, #49153	; 0xc001
48003740:	e1520003 	cmp	r2, r3
48003744:	1a00000c 	bne	4800377c <arm_mmu_page_test_iter+0x9b0>
48003748:	e51b3008 	ldr	r3, [fp, #-8]
4800374c:	e2833004 	add	r3, r3, #4
48003750:	e5932000 	ldr	r2, [r3]
48003754:	e30f3eed 	movw	r3, #65261	; 0xfeed
48003758:	e34d300d 	movt	r3, #53261	; 0xd00d
4800375c:	e1520003 	cmp	r2, r3
48003760:	1a000005 	bne	4800377c <arm_mmu_page_test_iter+0x9b0>
48003764:	e51b305c 	ldr	r3, [fp, #-92]	; 0x5c
48003768:	e5933000 	ldr	r3, [r3]
4800376c:	e2832001 	add	r2, r3, #1
48003770:	e51b305c 	ldr	r3, [fp, #-92]	; 0x5c
48003774:	e5832000 	str	r2, [r3]
48003778:	ea000004 	b	48003790 <arm_mmu_page_test_iter+0x9c4>
4800377c:	e59b3004 	ldr	r3, [fp, #4]
48003780:	e5933000 	ldr	r3, [r3]
48003784:	e2832001 	add	r2, r3, #1
48003788:	e59b3004 	ldr	r3, [fp, #4]
4800378c:	e5832000 	str	r2, [r3]
48003790:	e30c3400 	movw	r3, #50176	; 0xc400
48003794:	e3443801 	movt	r3, #18433	; 0x4801
48003798:	e51b2050 	ldr	r2, [fp, #-80]	; 0x50
4800379c:	e3a01000 	mov	r1, #0
480037a0:	e7831102 	str	r1, [r3, r2, lsl #2]
480037a4:	e30c3400 	movw	r3, #50176	; 0xc400
480037a8:	e3443801 	movt	r3, #18433	; 0x4801
480037ac:	e51b2054 	ldr	r2, [fp, #-84]	; 0x54
480037b0:	e3a01000 	mov	r1, #0
480037b4:	e7831102 	str	r1, [r3, r2, lsl #2]
480037b8:	e3a03000 	mov	r3, #0
480037bc:	e50b3010 	str	r3, [fp, #-16]
480037c0:	ee083f17 	mcr	15, 0, r3, cr8, cr7, {0}
480037c4:	e50b3010 	str	r3, [fp, #-16]
480037c8:	e30c3800 	movw	r3, #51200	; 0xc800
480037cc:	e3443801 	movt	r3, #18433	; 0x4801
480037d0:	e5933000 	ldr	r3, [r3]
480037d4:	e1a02a23 	lsr	r2, r3, #20
480037d8:	e3003000 	movw	r3, #0
480037dc:	e3443802 	movt	r3, #18434	; 0x4802
480037e0:	e7933102 	ldr	r3, [r3, r2, lsl #2]
480037e4:	e50b3014 	str	r3, [fp, #-20]
480037e8:	e30c3800 	movw	r3, #51200	; 0xc800
480037ec:	e3443801 	movt	r3, #18433	; 0x4801
480037f0:	e5933000 	ldr	r3, [r3]
480037f4:	e1a02a23 	lsr	r2, r3, #20
480037f8:	e3003000 	movw	r3, #0
480037fc:	e3443802 	movt	r3, #18434	; 0x4802
48003800:	e7933102 	ldr	r3, [r3, r2, lsl #2]
48003804:	e50b300c 	str	r3, [fp, #-12]
48003808:	e51b300c 	ldr	r3, [fp, #-12]
4800380c:	e3c33e1e 	bic	r3, r3, #480	; 0x1e0
48003810:	e50b300c 	str	r3, [fp, #-12]
48003814:	e30c3800 	movw	r3, #51200	; 0xc800
48003818:	e3443801 	movt	r3, #18433	; 0x4801
4800381c:	e5933000 	ldr	r3, [r3]
48003820:	e1a02a23 	lsr	r2, r3, #20
48003824:	e3003000 	movw	r3, #0
48003828:	e3443802 	movt	r3, #18434	; 0x4802
4800382c:	e51b100c 	ldr	r1, [fp, #-12]
48003830:	e7831102 	str	r1, [r3, r2, lsl #2]
48003834:	e3a03000 	mov	r3, #0
48003838:	e50b300c 	str	r3, [fp, #-12]
4800383c:	e51b300c 	ldr	r3, [fp, #-12]
48003840:	e3833008 	orr	r3, r3, #8
48003844:	e50b300c 	str	r3, [fp, #-12]
48003848:	e51b300c 	ldr	r3, [fp, #-12]
4800384c:	e3833003 	orr	r3, r3, #3
48003850:	e50b300c 	str	r3, [fp, #-12]
48003854:	e30c3808 	movw	r3, #51208	; 0xc808
48003858:	e3443801 	movt	r3, #18433	; 0x4801
4800385c:	e5932000 	ldr	r2, [r3]
48003860:	e51b300c 	ldr	r3, [fp, #-12]
48003864:	e1821003 	orr	r1, r2, r3
48003868:	e30c3400 	movw	r3, #50176	; 0xc400
4800386c:	e3443801 	movt	r3, #18433	; 0x4801
48003870:	e51b2050 	ldr	r2, [fp, #-80]	; 0x50
48003874:	e7831102 	str	r1, [r3, r2, lsl #2]
48003878:	e51b3050 	ldr	r3, [fp, #-80]	; 0x50
4800387c:	e1a03603 	lsl	r3, r3, #12
48003880:	e50b3008 	str	r3, [fp, #-8]
48003884:	e51b2008 	ldr	r2, [fp, #-8]
48003888:	e30c3800 	movw	r3, #51200	; 0xc800
4800388c:	e3443801 	movt	r3, #18433	; 0x4801
48003890:	e5933000 	ldr	r3, [r3]
48003894:	e0823003 	add	r3, r2, r3
48003898:	e50b3008 	str	r3, [fp, #-8]
4800389c:	e3043000 	movw	r3, #16384	; 0x4000
480038a0:	e3443802 	movt	r3, #18434	; 0x4802
480038a4:	e3a0200f 	mov	r2, #15
480038a8:	e5832000 	str	r2, [r3]
480038ac:	e51b2008 	ldr	r2, [fp, #-8]
480038b0:	e3043004 	movw	r3, #16388	; 0x4004
480038b4:	e3443802 	movt	r3, #18434	; 0x4802
480038b8:	e5832000 	str	r2, [r3]
480038bc:	e3043008 	movw	r3, #16392	; 0x4008
480038c0:	e3443802 	movt	r3, #18434	; 0x4802
480038c4:	e3a02001 	mov	r2, #1
480038c8:	e5832000 	str	r2, [r3]
480038cc:	e3043010 	movw	r3, #16400	; 0x4010
480038d0:	e3443802 	movt	r3, #18434	; 0x4802
480038d4:	e3a02000 	mov	r2, #0
480038d8:	e5832000 	str	r2, [r3]
480038dc:	e30c3000 	movw	r3, #49152	; 0xc000
480038e0:	e3443801 	movt	r3, #18433	; 0x4801
480038e4:	e3a02000 	mov	r2, #0
480038e8:	e5832000 	str	r2, [r3]
480038ec:	e51b2008 	ldr	r2, [fp, #-8]
480038f0:	e30b3abe 	movw	r3, #47806	; 0xbabe
480038f4:	e34c3001 	movt	r3, #49153	; 0xc001
480038f8:	e5823000 	str	r3, [r2]
480038fc:	e51b3058 	ldr	r3, [fp, #-88]	; 0x58
48003900:	e5933000 	ldr	r3, [r3]
48003904:	e2832001 	add	r2, r3, #1
48003908:	e51b3058 	ldr	r3, [fp, #-88]	; 0x58
4800390c:	e5832000 	str	r2, [r3]
48003910:	e30c3000 	movw	r3, #49152	; 0xc000
48003914:	e3443801 	movt	r3, #18433	; 0x4801
48003918:	e5933000 	ldr	r3, [r3]
4800391c:	e3530000 	cmp	r3, #0
48003920:	0a000005 	beq	4800393c <arm_mmu_page_test_iter+0xb70>
48003924:	e51b305c 	ldr	r3, [fp, #-92]	; 0x5c
48003928:	e5933000 	ldr	r3, [r3]
4800392c:	e2832001 	add	r2, r3, #1
48003930:	e51b305c 	ldr	r3, [fp, #-92]	; 0x5c
48003934:	e5832000 	str	r2, [r3]
48003938:	ea000004 	b	48003950 <arm_mmu_page_test_iter+0xb84>
4800393c:	e59b3004 	ldr	r3, [fp, #4]
48003940:	e5933000 	ldr	r3, [r3]
48003944:	e2832001 	add	r2, r3, #1
48003948:	e59b3004 	ldr	r3, [fp, #4]
4800394c:	e5832000 	str	r2, [r3]
48003950:	e3043008 	movw	r3, #16392	; 0x4008
48003954:	e3443802 	movt	r3, #18434	; 0x4802
48003958:	e3a02000 	mov	r2, #0
4800395c:	e5832000 	str	r2, [r3]
48003960:	e30c3000 	movw	r3, #49152	; 0xc000
48003964:	e3443801 	movt	r3, #18433	; 0x4801
48003968:	e3a02000 	mov	r2, #0
4800396c:	e5832000 	str	r2, [r3]
48003970:	e51b3008 	ldr	r3, [fp, #-8]
48003974:	e5933000 	ldr	r3, [r3]
48003978:	e50b300c 	str	r3, [fp, #-12]
4800397c:	e51b3058 	ldr	r3, [fp, #-88]	; 0x58
48003980:	e5933000 	ldr	r3, [r3]
48003984:	e2832001 	add	r2, r3, #1
48003988:	e51b3058 	ldr	r3, [fp, #-88]	; 0x58
4800398c:	e5832000 	str	r2, [r3]
48003990:	e30c3000 	movw	r3, #49152	; 0xc000
48003994:	e3443801 	movt	r3, #18433	; 0x4801
48003998:	e5933000 	ldr	r3, [r3]
4800399c:	e3530000 	cmp	r3, #0
480039a0:	0a000005 	beq	480039bc <arm_mmu_page_test_iter+0xbf0>
480039a4:	e51b305c 	ldr	r3, [fp, #-92]	; 0x5c
480039a8:	e5933000 	ldr	r3, [r3]
480039ac:	e2832001 	add	r2, r3, #1
480039b0:	e51b305c 	ldr	r3, [fp, #-92]	; 0x5c
480039b4:	e5832000 	str	r2, [r3]
480039b8:	ea000004 	b	480039d0 <arm_mmu_page_test_iter+0xc04>
480039bc:	e59b3004 	ldr	r3, [fp, #4]
480039c0:	e5933000 	ldr	r3, [r3]
480039c4:	e2832001 	add	r2, r3, #1
480039c8:	e59b3004 	ldr	r3, [fp, #4]
480039cc:	e5832000 	str	r2, [r3]
480039d0:	e30c3800 	movw	r3, #51200	; 0xc800
480039d4:	e3443801 	movt	r3, #18433	; 0x4801
480039d8:	e5933000 	ldr	r3, [r3]
480039dc:	e1a02a23 	lsr	r2, r3, #20
480039e0:	e3003000 	movw	r3, #0
480039e4:	e3443802 	movt	r3, #18434	; 0x4802
480039e8:	e51b1014 	ldr	r1, [fp, #-20]
480039ec:	e7831102 	str	r1, [r3, r2, lsl #2]
480039f0:	e30c3400 	movw	r3, #50176	; 0xc400
480039f4:	e3443801 	movt	r3, #18433	; 0x4801
480039f8:	e51b2050 	ldr	r2, [fp, #-80]	; 0x50
480039fc:	e3a01000 	mov	r1, #0
48003a00:	e7831102 	str	r1, [r3, r2, lsl #2]
48003a04:	e3a03000 	mov	r3, #0
48003a08:	e50b3018 	str	r3, [fp, #-24]
48003a0c:	ee083f17 	mcr	15, 0, r3, cr8, cr7, {0}
48003a10:	e50b3018 	str	r3, [fp, #-24]
48003a14:	e30c3800 	movw	r3, #51200	; 0xc800
48003a18:	e3443801 	movt	r3, #18433	; 0x4801
48003a1c:	e5933000 	ldr	r3, [r3]
48003a20:	e1a02a23 	lsr	r2, r3, #20
48003a24:	e3003000 	movw	r3, #0
48003a28:	e3443802 	movt	r3, #18434	; 0x4802
48003a2c:	e7933102 	ldr	r3, [r3, r2, lsl #2]
48003a30:	e50b300c 	str	r3, [fp, #-12]
48003a34:	e51b300c 	ldr	r3, [fp, #-12]
48003a38:	e3c33e1e 	bic	r3, r3, #480	; 0x1e0
48003a3c:	e50b300c 	str	r3, [fp, #-12]
48003a40:	e51b300c 	ldr	r3, [fp, #-12]
48003a44:	e3833020 	orr	r3, r3, #32
48003a48:	e50b300c 	str	r3, [fp, #-12]
48003a4c:	e30c3800 	movw	r3, #51200	; 0xc800
48003a50:	e3443801 	movt	r3, #18433	; 0x4801
48003a54:	e5933000 	ldr	r3, [r3]
48003a58:	e1a02a23 	lsr	r2, r3, #20
48003a5c:	e3003000 	movw	r3, #0
48003a60:	e3443802 	movt	r3, #18434	; 0x4802
48003a64:	e51b100c 	ldr	r1, [fp, #-12]
48003a68:	e7831102 	str	r1, [r3, r2, lsl #2]
48003a6c:	e3a03000 	mov	r3, #0
48003a70:	e50b300c 	str	r3, [fp, #-12]
48003a74:	e51b300c 	ldr	r3, [fp, #-12]
48003a78:	e3833008 	orr	r3, r3, #8
48003a7c:	e50b300c 	str	r3, [fp, #-12]
48003a80:	e51b300c 	ldr	r3, [fp, #-12]
48003a84:	e3833003 	orr	r3, r3, #3
48003a88:	e50b300c 	str	r3, [fp, #-12]
48003a8c:	e30c3808 	movw	r3, #51208	; 0xc808
48003a90:	e3443801 	movt	r3, #18433	; 0x4801
48003a94:	e5932000 	ldr	r2, [r3]
48003a98:	e51b300c 	ldr	r3, [fp, #-12]
48003a9c:	e1821003 	orr	r1, r2, r3
48003aa0:	e30c3400 	movw	r3, #50176	; 0xc400
48003aa4:	e3443801 	movt	r3, #18433	; 0x4801
48003aa8:	e51b2050 	ldr	r2, [fp, #-80]	; 0x50
48003aac:	e7831102 	str	r1, [r3, r2, lsl #2]
48003ab0:	e51b3050 	ldr	r3, [fp, #-80]	; 0x50
48003ab4:	e1a03603 	lsl	r3, r3, #12
48003ab8:	e50b3008 	str	r3, [fp, #-8]
48003abc:	e51b2008 	ldr	r2, [fp, #-8]
48003ac0:	e30c3800 	movw	r3, #51200	; 0xc800
48003ac4:	e3443801 	movt	r3, #18433	; 0x4801
48003ac8:	e5933000 	ldr	r3, [r3]
48003acc:	e0823003 	add	r3, r2, r3
48003ad0:	e50b3008 	str	r3, [fp, #-8]
48003ad4:	e51b2008 	ldr	r2, [fp, #-8]
48003ad8:	e30b3abe 	movw	r3, #47806	; 0xbabe
48003adc:	e34c3001 	movt	r3, #49153	; 0xc001
48003ae0:	e5823000 	str	r3, [r2]
48003ae4:	e51b3008 	ldr	r3, [fp, #-8]
48003ae8:	e2832004 	add	r2, r3, #4
48003aec:	e30f3eed 	movw	r3, #65261	; 0xfeed
48003af0:	e34d300d 	movt	r3, #53261	; 0xd00d
48003af4:	e5823000 	str	r3, [r2]
48003af8:	e51b3050 	ldr	r3, [fp, #-80]	; 0x50
48003afc:	e1a03603 	lsl	r3, r3, #12
48003b00:	e2833eff 	add	r3, r3, #4080	; 0xff0
48003b04:	e2833008 	add	r3, r3, #8
48003b08:	e50b3008 	str	r3, [fp, #-8]
48003b0c:	e51b2008 	ldr	r2, [fp, #-8]
48003b10:	e30c3800 	movw	r3, #51200	; 0xc800
48003b14:	e3443801 	movt	r3, #18433	; 0x4801
48003b18:	e5933000 	ldr	r3, [r3]
48003b1c:	e0823003 	add	r3, r2, r3
48003b20:	e50b3008 	str	r3, [fp, #-8]
48003b24:	e51b2008 	ldr	r2, [fp, #-8]
48003b28:	e30b3abe 	movw	r3, #47806	; 0xbabe
48003b2c:	e34c3001 	movt	r3, #49153	; 0xc001
48003b30:	e5823000 	str	r3, [r2]
48003b34:	e51b3008 	ldr	r3, [fp, #-8]
48003b38:	e2832004 	add	r2, r3, #4
48003b3c:	e30f3eed 	movw	r3, #65261	; 0xfeed
48003b40:	e34d300d 	movt	r3, #53261	; 0xd00d
48003b44:	e5823000 	str	r3, [r2]
48003b48:	e51b3050 	ldr	r3, [fp, #-80]	; 0x50
48003b4c:	e1a03603 	lsl	r3, r3, #12
48003b50:	e50b3008 	str	r3, [fp, #-8]
48003b54:	e51b2008 	ldr	r2, [fp, #-8]
48003b58:	e30c3800 	movw	r3, #51200	; 0xc800
48003b5c:	e3443801 	movt	r3, #18433	; 0x4801
48003b60:	e5933000 	ldr	r3, [r3]
48003b64:	e0823003 	add	r3, r2, r3
48003b68:	e50b3008 	str	r3, [fp, #-8]
48003b6c:	e51b3058 	ldr	r3, [fp, #-88]	; 0x58
48003b70:	e5933000 	ldr	r3, [r3]
48003b74:	e2832001 	add	r2, r3, #1
48003b78:	e51b3058 	ldr	r3, [fp, #-88]	; 0x58
48003b7c:	e5832000 	str	r2, [r3]
48003b80:	e51b3008 	ldr	r3, [fp, #-8]
48003b84:	e5932000 	ldr	r2, [r3]
48003b88:	e30b3abe 	movw	r3, #47806	; 0xbabe
48003b8c:	e34c3001 	movt	r3, #49153	; 0xc001
48003b90:	e1520003 	cmp	r2, r3
48003b94:	1a00000c 	bne	48003bcc <arm_mmu_page_test_iter+0xe00>
48003b98:	e51b3008 	ldr	r3, [fp, #-8]
48003b9c:	e2833004 	add	r3, r3, #4
48003ba0:	e5932000 	ldr	r2, [r3]
48003ba4:	e30f3eed 	movw	r3, #65261	; 0xfeed
48003ba8:	e34d300d 	movt	r3, #53261	; 0xd00d
48003bac:	e1520003 	cmp	r2, r3
48003bb0:	1a000005 	bne	48003bcc <arm_mmu_page_test_iter+0xe00>
48003bb4:	e51b305c 	ldr	r3, [fp, #-92]	; 0x5c
48003bb8:	e5933000 	ldr	r3, [r3]
48003bbc:	e2832001 	add	r2, r3, #1
48003bc0:	e51b305c 	ldr	r3, [fp, #-92]	; 0x5c
48003bc4:	e5832000 	str	r2, [r3]
48003bc8:	ea000004 	b	48003be0 <arm_mmu_page_test_iter+0xe14>
48003bcc:	e59b3004 	ldr	r3, [fp, #4]
48003bd0:	e5933000 	ldr	r3, [r3]
48003bd4:	e2832001 	add	r2, r3, #1
48003bd8:	e59b3004 	ldr	r3, [fp, #4]
48003bdc:	e5832000 	str	r2, [r3]
48003be0:	e51b3050 	ldr	r3, [fp, #-80]	; 0x50
48003be4:	e1a03603 	lsl	r3, r3, #12
48003be8:	e2833eff 	add	r3, r3, #4080	; 0xff0
48003bec:	e2833008 	add	r3, r3, #8
48003bf0:	e50b3008 	str	r3, [fp, #-8]
48003bf4:	e51b2008 	ldr	r2, [fp, #-8]
48003bf8:	e30c3800 	movw	r3, #51200	; 0xc800
48003bfc:	e3443801 	movt	r3, #18433	; 0x4801
48003c00:	e5933000 	ldr	r3, [r3]
48003c04:	e0823003 	add	r3, r2, r3
48003c08:	e50b3008 	str	r3, [fp, #-8]
48003c0c:	e51b3058 	ldr	r3, [fp, #-88]	; 0x58
48003c10:	e5933000 	ldr	r3, [r3]
48003c14:	e2832001 	add	r2, r3, #1
48003c18:	e51b3058 	ldr	r3, [fp, #-88]	; 0x58
48003c1c:	e5832000 	str	r2, [r3]
48003c20:	e51b3008 	ldr	r3, [fp, #-8]
48003c24:	e5932000 	ldr	r2, [r3]
48003c28:	e30b3abe 	movw	r3, #47806	; 0xbabe
48003c2c:	e34c3001 	movt	r3, #49153	; 0xc001
48003c30:	e1520003 	cmp	r2, r3
48003c34:	1a00000c 	bne	48003c6c <arm_mmu_page_test_iter+0xea0>
48003c38:	e51b3008 	ldr	r3, [fp, #-8]
48003c3c:	e2833004 	add	r3, r3, #4
48003c40:	e5932000 	ldr	r2, [r3]
48003c44:	e30f3eed 	movw	r3, #65261	; 0xfeed
48003c48:	e34d300d 	movt	r3, #53261	; 0xd00d
48003c4c:	e1520003 	cmp	r2, r3
48003c50:	1a000005 	bne	48003c6c <arm_mmu_page_test_iter+0xea0>
48003c54:	e51b305c 	ldr	r3, [fp, #-92]	; 0x5c
48003c58:	e5933000 	ldr	r3, [r3]
48003c5c:	e2832001 	add	r2, r3, #1
48003c60:	e51b305c 	ldr	r3, [fp, #-92]	; 0x5c
48003c64:	e5832000 	str	r2, [r3]
48003c68:	ea000004 	b	48003c80 <arm_mmu_page_test_iter+0xeb4>
48003c6c:	e59b3004 	ldr	r3, [fp, #4]
48003c70:	e5933000 	ldr	r3, [r3]
48003c74:	e2832001 	add	r2, r3, #1
48003c78:	e59b3004 	ldr	r3, [fp, #4]
48003c7c:	e5832000 	str	r2, [r3]
48003c80:	e30c3800 	movw	r3, #51200	; 0xc800
48003c84:	e3443801 	movt	r3, #18433	; 0x4801
48003c88:	e5933000 	ldr	r3, [r3]
48003c8c:	e1a02a23 	lsr	r2, r3, #20
48003c90:	e3003000 	movw	r3, #0
48003c94:	e3443802 	movt	r3, #18434	; 0x4802
48003c98:	e51b1014 	ldr	r1, [fp, #-20]
48003c9c:	e7831102 	str	r1, [r3, r2, lsl #2]
48003ca0:	e30c3400 	movw	r3, #50176	; 0xc400
48003ca4:	e3443801 	movt	r3, #18433	; 0x4801
48003ca8:	e51b2050 	ldr	r2, [fp, #-80]	; 0x50
48003cac:	e3a01000 	mov	r1, #0
48003cb0:	e7831102 	str	r1, [r3, r2, lsl #2]
48003cb4:	e3a03000 	mov	r3, #0
48003cb8:	e50b301c 	str	r3, [fp, #-28]
48003cbc:	ee083f17 	mcr	15, 0, r3, cr8, cr7, {0}
48003cc0:	e50b301c 	str	r3, [fp, #-28]
48003cc4:	e30c3800 	movw	r3, #51200	; 0xc800
48003cc8:	e3443801 	movt	r3, #18433	; 0x4801
48003ccc:	e5933000 	ldr	r3, [r3]
48003cd0:	e1a02a23 	lsr	r2, r3, #20
48003cd4:	e3003000 	movw	r3, #0
48003cd8:	e3443802 	movt	r3, #18434	; 0x4802
48003cdc:	e7933102 	ldr	r3, [r3, r2, lsl #2]
48003ce0:	e50b300c 	str	r3, [fp, #-12]
48003ce4:	e51b300c 	ldr	r3, [fp, #-12]
48003ce8:	e3c33e1e 	bic	r3, r3, #480	; 0x1e0
48003cec:	e50b300c 	str	r3, [fp, #-12]
48003cf0:	e51b300c 	ldr	r3, [fp, #-12]
48003cf4:	e3833040 	orr	r3, r3, #64	; 0x40
48003cf8:	e50b300c 	str	r3, [fp, #-12]
48003cfc:	e30c3800 	movw	r3, #51200	; 0xc800
48003d00:	e3443801 	movt	r3, #18433	; 0x4801
48003d04:	e5933000 	ldr	r3, [r3]
48003d08:	e1a02a23 	lsr	r2, r3, #20
48003d0c:	e3003000 	movw	r3, #0
48003d10:	e3443802 	movt	r3, #18434	; 0x4802
48003d14:	e51b100c 	ldr	r1, [fp, #-12]
48003d18:	e7831102 	str	r1, [r3, r2, lsl #2]
48003d1c:	e3a03000 	mov	r3, #0
48003d20:	e50b300c 	str	r3, [fp, #-12]
48003d24:	e51b300c 	ldr	r3, [fp, #-12]
48003d28:	e3833030 	orr	r3, r3, #48	; 0x30
48003d2c:	e50b300c 	str	r3, [fp, #-12]
48003d30:	e51b300c 	ldr	r3, [fp, #-12]
48003d34:	e3833008 	orr	r3, r3, #8
48003d38:	e50b300c 	str	r3, [fp, #-12]
48003d3c:	e51b300c 	ldr	r3, [fp, #-12]
48003d40:	e3833003 	orr	r3, r3, #3
48003d44:	e50b300c 	str	r3, [fp, #-12]
48003d48:	e30c3808 	movw	r3, #51208	; 0xc808
48003d4c:	e3443801 	movt	r3, #18433	; 0x4801
48003d50:	e5932000 	ldr	r2, [r3]
48003d54:	e51b300c 	ldr	r3, [fp, #-12]
48003d58:	e1821003 	orr	r1, r2, r3
48003d5c:	e30c3400 	movw	r3, #50176	; 0xc400
48003d60:	e3443801 	movt	r3, #18433	; 0x4801
48003d64:	e51b2050 	ldr	r2, [fp, #-80]	; 0x50
48003d68:	e7831102 	str	r1, [r3, r2, lsl #2]
48003d6c:	e51b3050 	ldr	r3, [fp, #-80]	; 0x50
48003d70:	e1a03603 	lsl	r3, r3, #12
48003d74:	e50b3008 	str	r3, [fp, #-8]
48003d78:	e51b2008 	ldr	r2, [fp, #-8]
48003d7c:	e30c3800 	movw	r3, #51200	; 0xc800
48003d80:	e3443801 	movt	r3, #18433	; 0x4801
48003d84:	e5933000 	ldr	r3, [r3]
48003d88:	e0823003 	add	r3, r2, r3
48003d8c:	e50b3008 	str	r3, [fp, #-8]
48003d90:	e3043000 	movw	r3, #16384	; 0x4000
48003d94:	e3443802 	movt	r3, #18434	; 0x4802
48003d98:	e3a0200b 	mov	r2, #11
48003d9c:	e5832000 	str	r2, [r3]
48003da0:	e51b2008 	ldr	r2, [fp, #-8]
48003da4:	e3043004 	movw	r3, #16388	; 0x4004
48003da8:	e3443802 	movt	r3, #18434	; 0x4802
48003dac:	e5832000 	str	r2, [r3]
48003db0:	e3043008 	movw	r3, #16392	; 0x4008
48003db4:	e3443802 	movt	r3, #18434	; 0x4802
48003db8:	e3a02001 	mov	r2, #1
48003dbc:	e5832000 	str	r2, [r3]
48003dc0:	e3043010 	movw	r3, #16400	; 0x4010
48003dc4:	e3443802 	movt	r3, #18434	; 0x4802
48003dc8:	e3a02002 	mov	r2, #2
48003dcc:	e5832000 	str	r2, [r3]
48003dd0:	e30c3000 	movw	r3, #49152	; 0xc000
48003dd4:	e3443801 	movt	r3, #18433	; 0x4801
48003dd8:	e3a02000 	mov	r2, #0
48003ddc:	e5832000 	str	r2, [r3]
48003de0:	e51b2008 	ldr	r2, [fp, #-8]
48003de4:	e30b3abe 	movw	r3, #47806	; 0xbabe
48003de8:	e34c3001 	movt	r3, #49153	; 0xc001
48003dec:	e5823000 	str	r3, [r2]
48003df0:	e51b3058 	ldr	r3, [fp, #-88]	; 0x58
48003df4:	e5933000 	ldr	r3, [r3]
48003df8:	e2832001 	add	r2, r3, #1
48003dfc:	e51b3058 	ldr	r3, [fp, #-88]	; 0x58
48003e00:	e5832000 	str	r2, [r3]
48003e04:	e30c3000 	movw	r3, #49152	; 0xc000
48003e08:	e3443801 	movt	r3, #18433	; 0x4801
48003e0c:	e5933000 	ldr	r3, [r3]
48003e10:	e3530000 	cmp	r3, #0
48003e14:	0a000005 	beq	48003e30 <arm_mmu_page_test_iter+0x1064>
48003e18:	e51b305c 	ldr	r3, [fp, #-92]	; 0x5c
48003e1c:	e5933000 	ldr	r3, [r3]
48003e20:	e2832001 	add	r2, r3, #1
48003e24:	e51b305c 	ldr	r3, [fp, #-92]	; 0x5c
48003e28:	e5832000 	str	r2, [r3]
48003e2c:	ea000004 	b	48003e44 <arm_mmu_page_test_iter+0x1078>
48003e30:	e59b3004 	ldr	r3, [fp, #4]
48003e34:	e5933000 	ldr	r3, [r3]
48003e38:	e2832001 	add	r2, r3, #1
48003e3c:	e59b3004 	ldr	r3, [fp, #4]
48003e40:	e5832000 	str	r2, [r3]
48003e44:	e3043008 	movw	r3, #16392	; 0x4008
48003e48:	e3443802 	movt	r3, #18434	; 0x4802
48003e4c:	e3a02000 	mov	r2, #0
48003e50:	e5832000 	str	r2, [r3]
48003e54:	e30c3000 	movw	r3, #49152	; 0xc000
48003e58:	e3443801 	movt	r3, #18433	; 0x4801
48003e5c:	e3a02000 	mov	r2, #0
48003e60:	e5832000 	str	r2, [r3]
48003e64:	e51b3008 	ldr	r3, [fp, #-8]
48003e68:	e5933000 	ldr	r3, [r3]
48003e6c:	e50b300c 	str	r3, [fp, #-12]
48003e70:	e51b3058 	ldr	r3, [fp, #-88]	; 0x58
48003e74:	e5933000 	ldr	r3, [r3]
48003e78:	e2832001 	add	r2, r3, #1
48003e7c:	e51b3058 	ldr	r3, [fp, #-88]	; 0x58
48003e80:	e5832000 	str	r2, [r3]
48003e84:	e30c3000 	movw	r3, #49152	; 0xc000
48003e88:	e3443801 	movt	r3, #18433	; 0x4801
48003e8c:	e5933000 	ldr	r3, [r3]
48003e90:	e3530000 	cmp	r3, #0
48003e94:	0a000005 	beq	48003eb0 <arm_mmu_page_test_iter+0x10e4>
48003e98:	e51b305c 	ldr	r3, [fp, #-92]	; 0x5c
48003e9c:	e5933000 	ldr	r3, [r3]
48003ea0:	e2832001 	add	r2, r3, #1
48003ea4:	e51b305c 	ldr	r3, [fp, #-92]	; 0x5c
48003ea8:	e5832000 	str	r2, [r3]
48003eac:	ea000004 	b	48003ec4 <arm_mmu_page_test_iter+0x10f8>
48003eb0:	e59b3004 	ldr	r3, [fp, #4]
48003eb4:	e5933000 	ldr	r3, [r3]
48003eb8:	e2832001 	add	r2, r3, #1
48003ebc:	e59b3004 	ldr	r3, [fp, #4]
48003ec0:	e5832000 	str	r2, [r3]
48003ec4:	e51b3050 	ldr	r3, [fp, #-80]	; 0x50
48003ec8:	e1a03603 	lsl	r3, r3, #12
48003ecc:	e2833e7f 	add	r3, r3, #2032	; 0x7f0
48003ed0:	e2833008 	add	r3, r3, #8
48003ed4:	e50b3008 	str	r3, [fp, #-8]
48003ed8:	e51b2008 	ldr	r2, [fp, #-8]
48003edc:	e30c3800 	movw	r3, #51200	; 0xc800
48003ee0:	e3443801 	movt	r3, #18433	; 0x4801
48003ee4:	e5933000 	ldr	r3, [r3]
48003ee8:	e0823003 	add	r3, r2, r3
48003eec:	e50b3008 	str	r3, [fp, #-8]
48003ef0:	e51b2008 	ldr	r2, [fp, #-8]
48003ef4:	e3043004 	movw	r3, #16388	; 0x4004
48003ef8:	e3443802 	movt	r3, #18434	; 0x4802
48003efc:	e5832000 	str	r2, [r3]
48003f00:	e3043008 	movw	r3, #16392	; 0x4008
48003f04:	e3443802 	movt	r3, #18434	; 0x4802
48003f08:	e3a02001 	mov	r2, #1
48003f0c:	e5832000 	str	r2, [r3]
48003f10:	e30c3000 	movw	r3, #49152	; 0xc000
48003f14:	e3443801 	movt	r3, #18433	; 0x4801
48003f18:	e3a02000 	mov	r2, #0
48003f1c:	e5832000 	str	r2, [r3]
48003f20:	e51b2008 	ldr	r2, [fp, #-8]
48003f24:	e30b3abe 	movw	r3, #47806	; 0xbabe
48003f28:	e34c3001 	movt	r3, #49153	; 0xc001
48003f2c:	e5823000 	str	r3, [r2]
48003f30:	e51b3058 	ldr	r3, [fp, #-88]	; 0x58
48003f34:	e5933000 	ldr	r3, [r3]
48003f38:	e2832001 	add	r2, r3, #1
48003f3c:	e51b3058 	ldr	r3, [fp, #-88]	; 0x58
48003f40:	e5832000 	str	r2, [r3]
48003f44:	e30c3000 	movw	r3, #49152	; 0xc000
48003f48:	e3443801 	movt	r3, #18433	; 0x4801
48003f4c:	e5933000 	ldr	r3, [r3]
48003f50:	e3530000 	cmp	r3, #0
48003f54:	0a000005 	beq	48003f70 <arm_mmu_page_test_iter+0x11a4>
48003f58:	e51b305c 	ldr	r3, [fp, #-92]	; 0x5c
48003f5c:	e5933000 	ldr	r3, [r3]
48003f60:	e2832001 	add	r2, r3, #1
48003f64:	e51b305c 	ldr	r3, [fp, #-92]	; 0x5c
48003f68:	e5832000 	str	r2, [r3]
48003f6c:	ea000004 	b	48003f84 <arm_mmu_page_test_iter+0x11b8>
48003f70:	e59b3004 	ldr	r3, [fp, #4]
48003f74:	e5933000 	ldr	r3, [r3]
48003f78:	e2832001 	add	r2, r3, #1
48003f7c:	e59b3004 	ldr	r3, [fp, #4]
48003f80:	e5832000 	str	r2, [r3]
48003f84:	e3043008 	movw	r3, #16392	; 0x4008
48003f88:	e3443802 	movt	r3, #18434	; 0x4802
48003f8c:	e3a02000 	mov	r2, #0
48003f90:	e5832000 	str	r2, [r3]
48003f94:	e30c3000 	movw	r3, #49152	; 0xc000
48003f98:	e3443801 	movt	r3, #18433	; 0x4801
48003f9c:	e3a02000 	mov	r2, #0
48003fa0:	e5832000 	str	r2, [r3]
48003fa4:	e51b3008 	ldr	r3, [fp, #-8]
48003fa8:	e5933000 	ldr	r3, [r3]
48003fac:	e50b300c 	str	r3, [fp, #-12]
48003fb0:	e51b3058 	ldr	r3, [fp, #-88]	; 0x58
48003fb4:	e5933000 	ldr	r3, [r3]
48003fb8:	e2832001 	add	r2, r3, #1
48003fbc:	e51b3058 	ldr	r3, [fp, #-88]	; 0x58
48003fc0:	e5832000 	str	r2, [r3]
48003fc4:	e30c3000 	movw	r3, #49152	; 0xc000
48003fc8:	e3443801 	movt	r3, #18433	; 0x4801
48003fcc:	e5933000 	ldr	r3, [r3]
48003fd0:	e3530000 	cmp	r3, #0
48003fd4:	0a000005 	beq	48003ff0 <arm_mmu_page_test_iter+0x1224>
48003fd8:	e51b305c 	ldr	r3, [fp, #-92]	; 0x5c
48003fdc:	e5933000 	ldr	r3, [r3]
48003fe0:	e2832001 	add	r2, r3, #1
48003fe4:	e51b305c 	ldr	r3, [fp, #-92]	; 0x5c
48003fe8:	e5832000 	str	r2, [r3]
48003fec:	ea000004 	b	48004004 <arm_mmu_page_test_iter+0x1238>
48003ff0:	e59b3004 	ldr	r3, [fp, #4]
48003ff4:	e5933000 	ldr	r3, [r3]
48003ff8:	e2832001 	add	r2, r3, #1
48003ffc:	e59b3004 	ldr	r3, [fp, #4]
48004000:	e5832000 	str	r2, [r3]
48004004:	e51b3050 	ldr	r3, [fp, #-80]	; 0x50
48004008:	e1a03603 	lsl	r3, r3, #12
4800400c:	e2833eff 	add	r3, r3, #4080	; 0xff0
48004010:	e2833008 	add	r3, r3, #8
48004014:	e50b3008 	str	r3, [fp, #-8]
48004018:	e51b2008 	ldr	r2, [fp, #-8]
4800401c:	e30c3800 	movw	r3, #51200	; 0xc800
48004020:	e3443801 	movt	r3, #18433	; 0x4801
48004024:	e5933000 	ldr	r3, [r3]
48004028:	e0823003 	add	r3, r2, r3
4800402c:	e50b3008 	str	r3, [fp, #-8]
48004030:	e51b2008 	ldr	r2, [fp, #-8]
48004034:	e3043004 	movw	r3, #16388	; 0x4004
48004038:	e3443802 	movt	r3, #18434	; 0x4802
4800403c:	e5832000 	str	r2, [r3]
48004040:	e3043008 	movw	r3, #16392	; 0x4008
48004044:	e3443802 	movt	r3, #18434	; 0x4802
48004048:	e3a02001 	mov	r2, #1
4800404c:	e5832000 	str	r2, [r3]
48004050:	e30c3000 	movw	r3, #49152	; 0xc000
48004054:	e3443801 	movt	r3, #18433	; 0x4801
48004058:	e3a02000 	mov	r2, #0
4800405c:	e5832000 	str	r2, [r3]
48004060:	e51b2008 	ldr	r2, [fp, #-8]
48004064:	e30b3abe 	movw	r3, #47806	; 0xbabe
48004068:	e34c3001 	movt	r3, #49153	; 0xc001
4800406c:	e5823000 	str	r3, [r2]
48004070:	e51b3058 	ldr	r3, [fp, #-88]	; 0x58
48004074:	e5933000 	ldr	r3, [r3]
48004078:	e2832001 	add	r2, r3, #1
4800407c:	e51b3058 	ldr	r3, [fp, #-88]	; 0x58
48004080:	e5832000 	str	r2, [r3]
48004084:	e30c3000 	movw	r3, #49152	; 0xc000
48004088:	e3443801 	movt	r3, #18433	; 0x4801
4800408c:	e5933000 	ldr	r3, [r3]
48004090:	e3530000 	cmp	r3, #0
48004094:	0a000005 	beq	480040b0 <arm_mmu_page_test_iter+0x12e4>
48004098:	e51b305c 	ldr	r3, [fp, #-92]	; 0x5c
4800409c:	e5933000 	ldr	r3, [r3]
480040a0:	e2832001 	add	r2, r3, #1
480040a4:	e51b305c 	ldr	r3, [fp, #-92]	; 0x5c
480040a8:	e5832000 	str	r2, [r3]
480040ac:	ea000004 	b	480040c4 <arm_mmu_page_test_iter+0x12f8>
480040b0:	e59b3004 	ldr	r3, [fp, #4]
480040b4:	e5933000 	ldr	r3, [r3]
480040b8:	e2832001 	add	r2, r3, #1
480040bc:	e59b3004 	ldr	r3, [fp, #4]
480040c0:	e5832000 	str	r2, [r3]
480040c4:	e3043008 	movw	r3, #16392	; 0x4008
480040c8:	e3443802 	movt	r3, #18434	; 0x4802
480040cc:	e3a02000 	mov	r2, #0
480040d0:	e5832000 	str	r2, [r3]
480040d4:	e30c3000 	movw	r3, #49152	; 0xc000
480040d8:	e3443801 	movt	r3, #18433	; 0x4801
480040dc:	e3a02000 	mov	r2, #0
480040e0:	e5832000 	str	r2, [r3]
480040e4:	e51b3008 	ldr	r3, [fp, #-8]
480040e8:	e5933000 	ldr	r3, [r3]
480040ec:	e50b300c 	str	r3, [fp, #-12]
480040f0:	e51b3058 	ldr	r3, [fp, #-88]	; 0x58
480040f4:	e5933000 	ldr	r3, [r3]
480040f8:	e2832001 	add	r2, r3, #1
480040fc:	e51b3058 	ldr	r3, [fp, #-88]	; 0x58
48004100:	e5832000 	str	r2, [r3]
48004104:	e30c3000 	movw	r3, #49152	; 0xc000
48004108:	e3443801 	movt	r3, #18433	; 0x4801
4800410c:	e5933000 	ldr	r3, [r3]
48004110:	e3530000 	cmp	r3, #0
48004114:	0a000005 	beq	48004130 <arm_mmu_page_test_iter+0x1364>
48004118:	e51b305c 	ldr	r3, [fp, #-92]	; 0x5c
4800411c:	e5933000 	ldr	r3, [r3]
48004120:	e2832001 	add	r2, r3, #1
48004124:	e51b305c 	ldr	r3, [fp, #-92]	; 0x5c
48004128:	e5832000 	str	r2, [r3]
4800412c:	ea000004 	b	48004144 <arm_mmu_page_test_iter+0x1378>
48004130:	e59b3004 	ldr	r3, [fp, #4]
48004134:	e5933000 	ldr	r3, [r3]
48004138:	e2832001 	add	r2, r3, #1
4800413c:	e59b3004 	ldr	r3, [fp, #4]
48004140:	e5832000 	str	r2, [r3]
48004144:	e30c3800 	movw	r3, #51200	; 0xc800
48004148:	e3443801 	movt	r3, #18433	; 0x4801
4800414c:	e5933000 	ldr	r3, [r3]
48004150:	e1a02a23 	lsr	r2, r3, #20
48004154:	e3003000 	movw	r3, #0
48004158:	e3443802 	movt	r3, #18434	; 0x4802
4800415c:	e51b1014 	ldr	r1, [fp, #-20]
48004160:	e7831102 	str	r1, [r3, r2, lsl #2]
48004164:	e30c3400 	movw	r3, #50176	; 0xc400
48004168:	e3443801 	movt	r3, #18433	; 0x4801
4800416c:	e51b2050 	ldr	r2, [fp, #-80]	; 0x50
48004170:	e3a01000 	mov	r1, #0
48004174:	e7831102 	str	r1, [r3, r2, lsl #2]
48004178:	e3a03000 	mov	r3, #0
4800417c:	e50b3020 	str	r3, [fp, #-32]
48004180:	ee083f17 	mcr	15, 0, r3, cr8, cr7, {0}
48004184:	e50b3020 	str	r3, [fp, #-32]
48004188:	e3a03000 	mov	r3, #0
4800418c:	e50b300c 	str	r3, [fp, #-12]
48004190:	e51b300c 	ldr	r3, [fp, #-12]
48004194:	e3833008 	orr	r3, r3, #8
48004198:	e50b300c 	str	r3, [fp, #-12]
4800419c:	e51b300c 	ldr	r3, [fp, #-12]
480041a0:	e3833003 	orr	r3, r3, #3
480041a4:	e50b300c 	str	r3, [fp, #-12]
480041a8:	e30c3808 	movw	r3, #51208	; 0xc808
480041ac:	e3443801 	movt	r3, #18433	; 0x4801
480041b0:	e5932000 	ldr	r2, [r3]
480041b4:	e51b300c 	ldr	r3, [fp, #-12]
480041b8:	e1821003 	orr	r1, r2, r3
480041bc:	e30c3400 	movw	r3, #50176	; 0xc400
480041c0:	e3443801 	movt	r3, #18433	; 0x4801
480041c4:	e51b2050 	ldr	r2, [fp, #-80]	; 0x50
480041c8:	e7831102 	str	r1, [r3, r2, lsl #2]
480041cc:	e51b3050 	ldr	r3, [fp, #-80]	; 0x50
480041d0:	e1a03603 	lsl	r3, r3, #12
480041d4:	e50b3008 	str	r3, [fp, #-8]
480041d8:	e51b2008 	ldr	r2, [fp, #-8]
480041dc:	e30c3800 	movw	r3, #51200	; 0xc800
480041e0:	e3443801 	movt	r3, #18433	; 0x4801
480041e4:	e5933000 	ldr	r3, [r3]
480041e8:	e0823003 	add	r3, r2, r3
480041ec:	e50b3008 	str	r3, [fp, #-8]
480041f0:	e3043000 	movw	r3, #16384	; 0x4000
480041f4:	e3443802 	movt	r3, #18434	; 0x4802
480041f8:	e3a0200f 	mov	r2, #15
480041fc:	e5832000 	str	r2, [r3]
48004200:	e51b2008 	ldr	r2, [fp, #-8]
48004204:	e3043004 	movw	r3, #16388	; 0x4004
48004208:	e3443802 	movt	r3, #18434	; 0x4802
4800420c:	e5832000 	str	r2, [r3]
48004210:	e3043008 	movw	r3, #16392	; 0x4008
48004214:	e3443802 	movt	r3, #18434	; 0x4802
48004218:	e3a02001 	mov	r2, #1
4800421c:	e5832000 	str	r2, [r3]
48004220:	e3043010 	movw	r3, #16400	; 0x4010
48004224:	e3443802 	movt	r3, #18434	; 0x4802
48004228:	e3a02000 	mov	r2, #0
4800422c:	e5832000 	str	r2, [r3]
48004230:	e30c3000 	movw	r3, #49152	; 0xc000
48004234:	e3443801 	movt	r3, #18433	; 0x4801
48004238:	e3a02000 	mov	r2, #0
4800423c:	e5832000 	str	r2, [r3]
48004240:	e51b2008 	ldr	r2, [fp, #-8]
48004244:	e30b3abe 	movw	r3, #47806	; 0xbabe
48004248:	e34c3001 	movt	r3, #49153	; 0xc001
4800424c:	e5823000 	str	r3, [r2]
48004250:	e51b3058 	ldr	r3, [fp, #-88]	; 0x58
48004254:	e5933000 	ldr	r3, [r3]
48004258:	e2832001 	add	r2, r3, #1
4800425c:	e51b3058 	ldr	r3, [fp, #-88]	; 0x58
48004260:	e5832000 	str	r2, [r3]
48004264:	e30c3000 	movw	r3, #49152	; 0xc000
48004268:	e3443801 	movt	r3, #18433	; 0x4801
4800426c:	e5933000 	ldr	r3, [r3]
48004270:	e3530000 	cmp	r3, #0
48004274:	0a000005 	beq	48004290 <arm_mmu_page_test_iter+0x14c4>
48004278:	e51b305c 	ldr	r3, [fp, #-92]	; 0x5c
4800427c:	e5933000 	ldr	r3, [r3]
48004280:	e2832001 	add	r2, r3, #1
48004284:	e51b305c 	ldr	r3, [fp, #-92]	; 0x5c
48004288:	e5832000 	str	r2, [r3]
4800428c:	ea000004 	b	480042a4 <arm_mmu_page_test_iter+0x14d8>
48004290:	e59b3004 	ldr	r3, [fp, #4]
48004294:	e5933000 	ldr	r3, [r3]
48004298:	e2832001 	add	r2, r3, #1
4800429c:	e59b3004 	ldr	r3, [fp, #4]
480042a0:	e5832000 	str	r2, [r3]
480042a4:	e3043008 	movw	r3, #16392	; 0x4008
480042a8:	e3443802 	movt	r3, #18434	; 0x4802
480042ac:	e3a02000 	mov	r2, #0
480042b0:	e5832000 	str	r2, [r3]
480042b4:	e30c3000 	movw	r3, #49152	; 0xc000
480042b8:	e3443801 	movt	r3, #18433	; 0x4801
480042bc:	e3a02000 	mov	r2, #0
480042c0:	e5832000 	str	r2, [r3]
480042c4:	e51b3008 	ldr	r3, [fp, #-8]
480042c8:	e5933000 	ldr	r3, [r3]
480042cc:	e50b300c 	str	r3, [fp, #-12]
480042d0:	e51b3058 	ldr	r3, [fp, #-88]	; 0x58
480042d4:	e5933000 	ldr	r3, [r3]
480042d8:	e2832001 	add	r2, r3, #1
480042dc:	e51b3058 	ldr	r3, [fp, #-88]	; 0x58
480042e0:	e5832000 	str	r2, [r3]
480042e4:	e30c3000 	movw	r3, #49152	; 0xc000
480042e8:	e3443801 	movt	r3, #18433	; 0x4801
480042ec:	e5933000 	ldr	r3, [r3]
480042f0:	e3530000 	cmp	r3, #0
480042f4:	0a000005 	beq	48004310 <arm_mmu_page_test_iter+0x1544>
480042f8:	e51b305c 	ldr	r3, [fp, #-92]	; 0x5c
480042fc:	e5933000 	ldr	r3, [r3]
48004300:	e2832001 	add	r2, r3, #1
48004304:	e51b305c 	ldr	r3, [fp, #-92]	; 0x5c
48004308:	e5832000 	str	r2, [r3]
4800430c:	ea000004 	b	48004324 <arm_mmu_page_test_iter+0x1558>
48004310:	e59b3004 	ldr	r3, [fp, #4]
48004314:	e5933000 	ldr	r3, [r3]
48004318:	e2832001 	add	r2, r3, #1
4800431c:	e59b3004 	ldr	r3, [fp, #4]
48004320:	e5832000 	str	r2, [r3]
48004324:	e3a00000 	mov	r0, #0
48004328:	e3a01000 	mov	r1, #0
4800432c:	ebffefa3 	bl	480001c0 <_switch_to_user_mode>
48004330:	e3043008 	movw	r3, #16392	; 0x4008
48004334:	e3443802 	movt	r3, #18434	; 0x4802
48004338:	e3a02001 	mov	r2, #1
4800433c:	e5832000 	str	r2, [r3]
48004340:	e30c3000 	movw	r3, #49152	; 0xc000
48004344:	e3443801 	movt	r3, #18433	; 0x4801
48004348:	e3a02000 	mov	r2, #0
4800434c:	e5832000 	str	r2, [r3]
48004350:	e51b2008 	ldr	r2, [fp, #-8]
48004354:	e30b3abe 	movw	r3, #47806	; 0xbabe
48004358:	e34c3001 	movt	r3, #49153	; 0xc001
4800435c:	e5823000 	str	r3, [r2]
48004360:	e51b3058 	ldr	r3, [fp, #-88]	; 0x58
48004364:	e5933000 	ldr	r3, [r3]
48004368:	e2832001 	add	r2, r3, #1
4800436c:	e51b3058 	ldr	r3, [fp, #-88]	; 0x58
48004370:	e5832000 	str	r2, [r3]
48004374:	e30c3000 	movw	r3, #49152	; 0xc000
48004378:	e3443801 	movt	r3, #18433	; 0x4801
4800437c:	e5933000 	ldr	r3, [r3]
48004380:	e3530000 	cmp	r3, #0
48004384:	0a000005 	beq	480043a0 <arm_mmu_page_test_iter+0x15d4>
48004388:	e51b305c 	ldr	r3, [fp, #-92]	; 0x5c
4800438c:	e5933000 	ldr	r3, [r3]
48004390:	e2832001 	add	r2, r3, #1
48004394:	e51b305c 	ldr	r3, [fp, #-92]	; 0x5c
48004398:	e5832000 	str	r2, [r3]
4800439c:	ea000004 	b	480043b4 <arm_mmu_page_test_iter+0x15e8>
480043a0:	e59b3004 	ldr	r3, [fp, #4]
480043a4:	e5933000 	ldr	r3, [r3]
480043a8:	e2832001 	add	r2, r3, #1
480043ac:	e59b3004 	ldr	r3, [fp, #4]
480043b0:	e5832000 	str	r2, [r3]
480043b4:	e3043008 	movw	r3, #16392	; 0x4008
480043b8:	e3443802 	movt	r3, #18434	; 0x4802
480043bc:	e3a02000 	mov	r2, #0
480043c0:	e5832000 	str	r2, [r3]
480043c4:	e30c3000 	movw	r3, #49152	; 0xc000
480043c8:	e3443801 	movt	r3, #18433	; 0x4801
480043cc:	e3a02000 	mov	r2, #0
480043d0:	e5832000 	str	r2, [r3]
480043d4:	e51b3008 	ldr	r3, [fp, #-8]
480043d8:	e5933000 	ldr	r3, [r3]
480043dc:	e50b300c 	str	r3, [fp, #-12]
480043e0:	e51b3058 	ldr	r3, [fp, #-88]	; 0x58
480043e4:	e5933000 	ldr	r3, [r3]
480043e8:	e2832001 	add	r2, r3, #1
480043ec:	e51b3058 	ldr	r3, [fp, #-88]	; 0x58
480043f0:	e5832000 	str	r2, [r3]
480043f4:	e30c3000 	movw	r3, #49152	; 0xc000
480043f8:	e3443801 	movt	r3, #18433	; 0x4801
480043fc:	e5933000 	ldr	r3, [r3]
48004400:	e3530000 	cmp	r3, #0
48004404:	0a000005 	beq	48004420 <arm_mmu_page_test_iter+0x1654>
48004408:	e51b305c 	ldr	r3, [fp, #-92]	; 0x5c
4800440c:	e5933000 	ldr	r3, [r3]
48004410:	e2832001 	add	r2, r3, #1
48004414:	e51b305c 	ldr	r3, [fp, #-92]	; 0x5c
48004418:	e5832000 	str	r2, [r3]
4800441c:	ea000004 	b	48004434 <arm_mmu_page_test_iter+0x1668>
48004420:	e59b3004 	ldr	r3, [fp, #4]
48004424:	e5933000 	ldr	r3, [r3]
48004428:	e2832001 	add	r2, r3, #1
4800442c:	e59b3004 	ldr	r3, [fp, #4]
48004430:	e5832000 	str	r2, [r3]
48004434:	ef000001 	svc	0x00000001
48004438:	e30c3400 	movw	r3, #50176	; 0xc400
4800443c:	e3443801 	movt	r3, #18433	; 0x4801
48004440:	e51b2050 	ldr	r2, [fp, #-80]	; 0x50
48004444:	e3a01000 	mov	r1, #0
48004448:	e7831102 	str	r1, [r3, r2, lsl #2]
4800444c:	e3a03000 	mov	r3, #0
48004450:	e50b3024 	str	r3, [fp, #-36]	; 0x24
48004454:	ee083f17 	mcr	15, 0, r3, cr8, cr7, {0}
48004458:	e50b3024 	str	r3, [fp, #-36]	; 0x24
4800445c:	e3a03000 	mov	r3, #0
48004460:	e50b300c 	str	r3, [fp, #-12]
48004464:	e51b300c 	ldr	r3, [fp, #-12]
48004468:	e3833010 	orr	r3, r3, #16
4800446c:	e50b300c 	str	r3, [fp, #-12]
48004470:	e51b300c 	ldr	r3, [fp, #-12]
48004474:	e3833008 	orr	r3, r3, #8
48004478:	e50b300c 	str	r3, [fp, #-12]
4800447c:	e51b300c 	ldr	r3, [fp, #-12]
48004480:	e3833003 	orr	r3, r3, #3
48004484:	e50b300c 	str	r3, [fp, #-12]
48004488:	e30c3808 	movw	r3, #51208	; 0xc808
4800448c:	e3443801 	movt	r3, #18433	; 0x4801
48004490:	e5932000 	ldr	r2, [r3]
48004494:	e51b300c 	ldr	r3, [fp, #-12]
48004498:	e1821003 	orr	r1, r2, r3
4800449c:	e30c3400 	movw	r3, #50176	; 0xc400
480044a0:	e3443801 	movt	r3, #18433	; 0x4801
480044a4:	e51b2050 	ldr	r2, [fp, #-80]	; 0x50
480044a8:	e7831102 	str	r1, [r3, r2, lsl #2]
480044ac:	e51b3050 	ldr	r3, [fp, #-80]	; 0x50
480044b0:	e1a03603 	lsl	r3, r3, #12
480044b4:	e50b3008 	str	r3, [fp, #-8]
480044b8:	e51b2008 	ldr	r2, [fp, #-8]
480044bc:	e30c3800 	movw	r3, #51200	; 0xc800
480044c0:	e3443801 	movt	r3, #18433	; 0x4801
480044c4:	e5933000 	ldr	r3, [r3]
480044c8:	e0823003 	add	r3, r2, r3
480044cc:	e50b3008 	str	r3, [fp, #-8]
480044d0:	e51b2008 	ldr	r2, [fp, #-8]
480044d4:	e30b3abe 	movw	r3, #47806	; 0xbabe
480044d8:	e34c3001 	movt	r3, #49153	; 0xc001
480044dc:	e5823000 	str	r3, [r2]
480044e0:	e51b3008 	ldr	r3, [fp, #-8]
480044e4:	e2832004 	add	r2, r3, #4
480044e8:	e30f3eed 	movw	r3, #65261	; 0xfeed
480044ec:	e34d300d 	movt	r3, #53261	; 0xd00d
480044f0:	e5823000 	str	r3, [r2]
480044f4:	e51b3058 	ldr	r3, [fp, #-88]	; 0x58
480044f8:	e5933000 	ldr	r3, [r3]
480044fc:	e2832001 	add	r2, r3, #1
48004500:	e51b3058 	ldr	r3, [fp, #-88]	; 0x58
48004504:	e5832000 	str	r2, [r3]
48004508:	e51b3008 	ldr	r3, [fp, #-8]
4800450c:	e5932000 	ldr	r2, [r3]
48004510:	e30b3abe 	movw	r3, #47806	; 0xbabe
48004514:	e34c3001 	movt	r3, #49153	; 0xc001
48004518:	e1520003 	cmp	r2, r3
4800451c:	1a00000c 	bne	48004554 <arm_mmu_page_test_iter+0x1788>
48004520:	e51b3008 	ldr	r3, [fp, #-8]
48004524:	e2833004 	add	r3, r3, #4
48004528:	e5932000 	ldr	r2, [r3]
4800452c:	e30f3eed 	movw	r3, #65261	; 0xfeed
48004530:	e34d300d 	movt	r3, #53261	; 0xd00d
48004534:	e1520003 	cmp	r2, r3
48004538:	1a000005 	bne	48004554 <arm_mmu_page_test_iter+0x1788>
4800453c:	e51b305c 	ldr	r3, [fp, #-92]	; 0x5c
48004540:	e5933000 	ldr	r3, [r3]
48004544:	e2832001 	add	r2, r3, #1
48004548:	e51b305c 	ldr	r3, [fp, #-92]	; 0x5c
4800454c:	e5832000 	str	r2, [r3]
48004550:	ea000004 	b	48004568 <arm_mmu_page_test_iter+0x179c>
48004554:	e59b3004 	ldr	r3, [fp, #4]
48004558:	e5933000 	ldr	r3, [r3]
4800455c:	e2832001 	add	r2, r3, #1
48004560:	e59b3004 	ldr	r3, [fp, #4]
48004564:	e5832000 	str	r2, [r3]
48004568:	e51b3008 	ldr	r3, [fp, #-8]
4800456c:	e3a02000 	mov	r2, #0
48004570:	e5832000 	str	r2, [r3]
48004574:	e51b3008 	ldr	r3, [fp, #-8]
48004578:	e2833004 	add	r3, r3, #4
4800457c:	e3a02000 	mov	r2, #0
48004580:	e5832000 	str	r2, [r3]
48004584:	e51b3058 	ldr	r3, [fp, #-88]	; 0x58
48004588:	e5933000 	ldr	r3, [r3]
4800458c:	e2832001 	add	r2, r3, #1
48004590:	e51b3058 	ldr	r3, [fp, #-88]	; 0x58
48004594:	e5832000 	str	r2, [r3]
48004598:	e51b3008 	ldr	r3, [fp, #-8]
4800459c:	e5933000 	ldr	r3, [r3]
480045a0:	e3530000 	cmp	r3, #0
480045a4:	1a00000a 	bne	480045d4 <arm_mmu_page_test_iter+0x1808>
480045a8:	e51b3008 	ldr	r3, [fp, #-8]
480045ac:	e2833004 	add	r3, r3, #4
480045b0:	e5933000 	ldr	r3, [r3]
480045b4:	e3530000 	cmp	r3, #0
480045b8:	1a000005 	bne	480045d4 <arm_mmu_page_test_iter+0x1808>
480045bc:	e51b305c 	ldr	r3, [fp, #-92]	; 0x5c
480045c0:	e5933000 	ldr	r3, [r3]
480045c4:	e2832001 	add	r2, r3, #1
480045c8:	e51b305c 	ldr	r3, [fp, #-92]	; 0x5c
480045cc:	e5832000 	str	r2, [r3]
480045d0:	ea000004 	b	480045e8 <arm_mmu_page_test_iter+0x181c>
480045d4:	e59b3004 	ldr	r3, [fp, #4]
480045d8:	e5933000 	ldr	r3, [r3]
480045dc:	e2832001 	add	r2, r3, #1
480045e0:	e59b3004 	ldr	r3, [fp, #4]
480045e4:	e5832000 	str	r2, [r3]
480045e8:	e3a00000 	mov	r0, #0
480045ec:	e3a01000 	mov	r1, #0
480045f0:	ebffeef2 	bl	480001c0 <_switch_to_user_mode>
480045f4:	e3043000 	movw	r3, #16384	; 0x4000
480045f8:	e3443802 	movt	r3, #18434	; 0x4802
480045fc:	e3a0200f 	mov	r2, #15
48004600:	e5832000 	str	r2, [r3]
48004604:	e51b2008 	ldr	r2, [fp, #-8]
48004608:	e3043004 	movw	r3, #16388	; 0x4004
4800460c:	e3443802 	movt	r3, #18434	; 0x4802
48004610:	e5832000 	str	r2, [r3]
48004614:	e3043008 	movw	r3, #16392	; 0x4008
48004618:	e3443802 	movt	r3, #18434	; 0x4802
4800461c:	e3a02001 	mov	r2, #1
48004620:	e5832000 	str	r2, [r3]
48004624:	e3043010 	movw	r3, #16400	; 0x4010
48004628:	e3443802 	movt	r3, #18434	; 0x4802
4800462c:	e3a02000 	mov	r2, #0
48004630:	e5832000 	str	r2, [r3]
48004634:	e30c3000 	movw	r3, #49152	; 0xc000
48004638:	e3443801 	movt	r3, #18433	; 0x4801
4800463c:	e3a02000 	mov	r2, #0
48004640:	e5832000 	str	r2, [r3]
48004644:	e51b2008 	ldr	r2, [fp, #-8]
48004648:	e30b3abe 	movw	r3, #47806	; 0xbabe
4800464c:	e34c3001 	movt	r3, #49153	; 0xc001
48004650:	e5823000 	str	r3, [r2]
48004654:	e51b3058 	ldr	r3, [fp, #-88]	; 0x58
48004658:	e5933000 	ldr	r3, [r3]
4800465c:	e2832001 	add	r2, r3, #1
48004660:	e51b3058 	ldr	r3, [fp, #-88]	; 0x58
48004664:	e5832000 	str	r2, [r3]
48004668:	e30c3000 	movw	r3, #49152	; 0xc000
4800466c:	e3443801 	movt	r3, #18433	; 0x4801
48004670:	e5933000 	ldr	r3, [r3]
48004674:	e3530000 	cmp	r3, #0
48004678:	0a000005 	beq	48004694 <arm_mmu_page_test_iter+0x18c8>
4800467c:	e51b305c 	ldr	r3, [fp, #-92]	; 0x5c
48004680:	e5933000 	ldr	r3, [r3]
48004684:	e2832001 	add	r2, r3, #1
48004688:	e51b305c 	ldr	r3, [fp, #-92]	; 0x5c
4800468c:	e5832000 	str	r2, [r3]
48004690:	ea000004 	b	480046a8 <arm_mmu_page_test_iter+0x18dc>
48004694:	e59b3004 	ldr	r3, [fp, #4]
48004698:	e5933000 	ldr	r3, [r3]
4800469c:	e2832001 	add	r2, r3, #1
480046a0:	e59b3004 	ldr	r3, [fp, #4]
480046a4:	e5832000 	str	r2, [r3]
480046a8:	e3043008 	movw	r3, #16392	; 0x4008
480046ac:	e3443802 	movt	r3, #18434	; 0x4802
480046b0:	e3a02000 	mov	r2, #0
480046b4:	e5832000 	str	r2, [r3]
480046b8:	e30c3000 	movw	r3, #49152	; 0xc000
480046bc:	e3443801 	movt	r3, #18433	; 0x4801
480046c0:	e3a02000 	mov	r2, #0
480046c4:	e5832000 	str	r2, [r3]
480046c8:	e51b3008 	ldr	r3, [fp, #-8]
480046cc:	e5933000 	ldr	r3, [r3]
480046d0:	e50b300c 	str	r3, [fp, #-12]
480046d4:	e51b3058 	ldr	r3, [fp, #-88]	; 0x58
480046d8:	e5933000 	ldr	r3, [r3]
480046dc:	e2832001 	add	r2, r3, #1
480046e0:	e51b3058 	ldr	r3, [fp, #-88]	; 0x58
480046e4:	e5832000 	str	r2, [r3]
480046e8:	e30c3000 	movw	r3, #49152	; 0xc000
480046ec:	e3443801 	movt	r3, #18433	; 0x4801
480046f0:	e5933000 	ldr	r3, [r3]
480046f4:	e3530000 	cmp	r3, #0
480046f8:	0a000005 	beq	48004714 <arm_mmu_page_test_iter+0x1948>
480046fc:	e51b305c 	ldr	r3, [fp, #-92]	; 0x5c
48004700:	e5933000 	ldr	r3, [r3]
48004704:	e2832001 	add	r2, r3, #1
48004708:	e51b305c 	ldr	r3, [fp, #-92]	; 0x5c
4800470c:	e5832000 	str	r2, [r3]
48004710:	ea000004 	b	48004728 <arm_mmu_page_test_iter+0x195c>
48004714:	e59b3004 	ldr	r3, [fp, #4]
48004718:	e5933000 	ldr	r3, [r3]
4800471c:	e2832001 	add	r2, r3, #1
48004720:	e59b3004 	ldr	r3, [fp, #4]
48004724:	e5832000 	str	r2, [r3]
48004728:	ef000001 	svc	0x00000001
4800472c:	e30c3400 	movw	r3, #50176	; 0xc400
48004730:	e3443801 	movt	r3, #18433	; 0x4801
48004734:	e51b2050 	ldr	r2, [fp, #-80]	; 0x50
48004738:	e3a01000 	mov	r1, #0
4800473c:	e7831102 	str	r1, [r3, r2, lsl #2]
48004740:	e3a03000 	mov	r3, #0
48004744:	e50b3028 	str	r3, [fp, #-40]	; 0x28
48004748:	ee083f17 	mcr	15, 0, r3, cr8, cr7, {0}
4800474c:	e50b3028 	str	r3, [fp, #-40]	; 0x28
48004750:	e3a03000 	mov	r3, #0
48004754:	e50b300c 	str	r3, [fp, #-12]
48004758:	e51b300c 	ldr	r3, [fp, #-12]
4800475c:	e3833020 	orr	r3, r3, #32
48004760:	e50b300c 	str	r3, [fp, #-12]
48004764:	e51b300c 	ldr	r3, [fp, #-12]
48004768:	e3833008 	orr	r3, r3, #8
4800476c:	e50b300c 	str	r3, [fp, #-12]
48004770:	e51b300c 	ldr	r3, [fp, #-12]
48004774:	e3833003 	orr	r3, r3, #3
48004778:	e50b300c 	str	r3, [fp, #-12]
4800477c:	e30c3808 	movw	r3, #51208	; 0xc808
48004780:	e3443801 	movt	r3, #18433	; 0x4801
48004784:	e5932000 	ldr	r2, [r3]
48004788:	e51b300c 	ldr	r3, [fp, #-12]
4800478c:	e1821003 	orr	r1, r2, r3
48004790:	e30c3400 	movw	r3, #50176	; 0xc400
48004794:	e3443801 	movt	r3, #18433	; 0x4801
48004798:	e51b2050 	ldr	r2, [fp, #-80]	; 0x50
4800479c:	e7831102 	str	r1, [r3, r2, lsl #2]
480047a0:	e51b3050 	ldr	r3, [fp, #-80]	; 0x50
480047a4:	e1a03603 	lsl	r3, r3, #12
480047a8:	e50b3008 	str	r3, [fp, #-8]
480047ac:	e51b2008 	ldr	r2, [fp, #-8]
480047b0:	e30c3800 	movw	r3, #51200	; 0xc800
480047b4:	e3443801 	movt	r3, #18433	; 0x4801
480047b8:	e5933000 	ldr	r3, [r3]
480047bc:	e0823003 	add	r3, r2, r3
480047c0:	e50b3008 	str	r3, [fp, #-8]
480047c4:	e51b3008 	ldr	r3, [fp, #-8]
480047c8:	e3a02000 	mov	r2, #0
480047cc:	e5832000 	str	r2, [r3]
480047d0:	e51b3008 	ldr	r3, [fp, #-8]
480047d4:	e2833004 	add	r3, r3, #4
480047d8:	e3a02000 	mov	r2, #0
480047dc:	e5832000 	str	r2, [r3]
480047e0:	e51b3058 	ldr	r3, [fp, #-88]	; 0x58
480047e4:	e5933000 	ldr	r3, [r3]
480047e8:	e2832001 	add	r2, r3, #1
480047ec:	e51b3058 	ldr	r3, [fp, #-88]	; 0x58
480047f0:	e5832000 	str	r2, [r3]
480047f4:	e51b3008 	ldr	r3, [fp, #-8]
480047f8:	e5933000 	ldr	r3, [r3]
480047fc:	e3530000 	cmp	r3, #0
48004800:	1a00000a 	bne	48004830 <arm_mmu_page_test_iter+0x1a64>
48004804:	e51b3008 	ldr	r3, [fp, #-8]
48004808:	e2833004 	add	r3, r3, #4
4800480c:	e5933000 	ldr	r3, [r3]
48004810:	e3530000 	cmp	r3, #0
48004814:	1a000005 	bne	48004830 <arm_mmu_page_test_iter+0x1a64>
48004818:	e51b305c 	ldr	r3, [fp, #-92]	; 0x5c
4800481c:	e5933000 	ldr	r3, [r3]
48004820:	e2832001 	add	r2, r3, #1
48004824:	e51b305c 	ldr	r3, [fp, #-92]	; 0x5c
48004828:	e5832000 	str	r2, [r3]
4800482c:	ea000004 	b	48004844 <arm_mmu_page_test_iter+0x1a78>
48004830:	e59b3004 	ldr	r3, [fp, #4]
48004834:	e5933000 	ldr	r3, [r3]
48004838:	e2832001 	add	r2, r3, #1
4800483c:	e59b3004 	ldr	r3, [fp, #4]
48004840:	e5832000 	str	r2, [r3]
48004844:	e51b2008 	ldr	r2, [fp, #-8]
48004848:	e30b3abe 	movw	r3, #47806	; 0xbabe
4800484c:	e34c3001 	movt	r3, #49153	; 0xc001
48004850:	e5823000 	str	r3, [r2]
48004854:	e51b3008 	ldr	r3, [fp, #-8]
48004858:	e2832004 	add	r2, r3, #4
4800485c:	e30f3eed 	movw	r3, #65261	; 0xfeed
48004860:	e34d300d 	movt	r3, #53261	; 0xd00d
48004864:	e5823000 	str	r3, [r2]
48004868:	e51b3058 	ldr	r3, [fp, #-88]	; 0x58
4800486c:	e5933000 	ldr	r3, [r3]
48004870:	e2832001 	add	r2, r3, #1
48004874:	e51b3058 	ldr	r3, [fp, #-88]	; 0x58
48004878:	e5832000 	str	r2, [r3]
4800487c:	e51b3008 	ldr	r3, [fp, #-8]
48004880:	e5932000 	ldr	r2, [r3]
48004884:	e30b3abe 	movw	r3, #47806	; 0xbabe
48004888:	e34c3001 	movt	r3, #49153	; 0xc001
4800488c:	e1520003 	cmp	r2, r3
48004890:	1a00000c 	bne	480048c8 <arm_mmu_page_test_iter+0x1afc>
48004894:	e51b3008 	ldr	r3, [fp, #-8]
48004898:	e2833004 	add	r3, r3, #4
4800489c:	e5932000 	ldr	r2, [r3]
480048a0:	e30f3eed 	movw	r3, #65261	; 0xfeed
480048a4:	e34d300d 	movt	r3, #53261	; 0xd00d
480048a8:	e1520003 	cmp	r2, r3
480048ac:	1a000005 	bne	480048c8 <arm_mmu_page_test_iter+0x1afc>
480048b0:	e51b305c 	ldr	r3, [fp, #-92]	; 0x5c
480048b4:	e5933000 	ldr	r3, [r3]
480048b8:	e2832001 	add	r2, r3, #1
480048bc:	e51b305c 	ldr	r3, [fp, #-92]	; 0x5c
480048c0:	e5832000 	str	r2, [r3]
480048c4:	ea000004 	b	480048dc <arm_mmu_page_test_iter+0x1b10>
480048c8:	e59b3004 	ldr	r3, [fp, #4]
480048cc:	e5933000 	ldr	r3, [r3]
480048d0:	e2832001 	add	r2, r3, #1
480048d4:	e59b3004 	ldr	r3, [fp, #4]
480048d8:	e5832000 	str	r2, [r3]
480048dc:	e3a00000 	mov	r0, #0
480048e0:	e3a01000 	mov	r1, #0
480048e4:	ebffee35 	bl	480001c0 <_switch_to_user_mode>
480048e8:	e3043000 	movw	r3, #16384	; 0x4000
480048ec:	e3443802 	movt	r3, #18434	; 0x4802
480048f0:	e3a0200f 	mov	r2, #15
480048f4:	e5832000 	str	r2, [r3]
480048f8:	e51b2008 	ldr	r2, [fp, #-8]
480048fc:	e3043004 	movw	r3, #16388	; 0x4004
48004900:	e3443802 	movt	r3, #18434	; 0x4802
48004904:	e5832000 	str	r2, [r3]
48004908:	e3043008 	movw	r3, #16392	; 0x4008
4800490c:	e3443802 	movt	r3, #18434	; 0x4802
48004910:	e3a02001 	mov	r2, #1
48004914:	e5832000 	str	r2, [r3]
48004918:	e3043010 	movw	r3, #16400	; 0x4010
4800491c:	e3443802 	movt	r3, #18434	; 0x4802
48004920:	e3a02000 	mov	r2, #0
48004924:	e5832000 	str	r2, [r3]
48004928:	e30c3000 	movw	r3, #49152	; 0xc000
4800492c:	e3443801 	movt	r3, #18433	; 0x4801
48004930:	e3a02000 	mov	r2, #0
48004934:	e5832000 	str	r2, [r3]
48004938:	e51b3008 	ldr	r3, [fp, #-8]
4800493c:	e3a02000 	mov	r2, #0
48004940:	e5832000 	str	r2, [r3]
48004944:	e51b3058 	ldr	r3, [fp, #-88]	; 0x58
48004948:	e5933000 	ldr	r3, [r3]
4800494c:	e2832001 	add	r2, r3, #1
48004950:	e51b3058 	ldr	r3, [fp, #-88]	; 0x58
48004954:	e5832000 	str	r2, [r3]
48004958:	e30c3000 	movw	r3, #49152	; 0xc000
4800495c:	e3443801 	movt	r3, #18433	; 0x4801
48004960:	e5933000 	ldr	r3, [r3]
48004964:	e3530000 	cmp	r3, #0
48004968:	0a000005 	beq	48004984 <arm_mmu_page_test_iter+0x1bb8>
4800496c:	e51b305c 	ldr	r3, [fp, #-92]	; 0x5c
48004970:	e5933000 	ldr	r3, [r3]
48004974:	e2832001 	add	r2, r3, #1
48004978:	e51b305c 	ldr	r3, [fp, #-92]	; 0x5c
4800497c:	e5832000 	str	r2, [r3]
48004980:	ea000004 	b	48004998 <arm_mmu_page_test_iter+0x1bcc>
48004984:	e59b3004 	ldr	r3, [fp, #4]
48004988:	e5933000 	ldr	r3, [r3]
4800498c:	e2832001 	add	r2, r3, #1
48004990:	e59b3004 	ldr	r3, [fp, #4]
48004994:	e5832000 	str	r2, [r3]
48004998:	e51b3058 	ldr	r3, [fp, #-88]	; 0x58
4800499c:	e5933000 	ldr	r3, [r3]
480049a0:	e2832001 	add	r2, r3, #1
480049a4:	e51b3058 	ldr	r3, [fp, #-88]	; 0x58
480049a8:	e5832000 	str	r2, [r3]
480049ac:	e51b3008 	ldr	r3, [fp, #-8]
480049b0:	e5932000 	ldr	r2, [r3]
480049b4:	e30b3abe 	movw	r3, #47806	; 0xbabe
480049b8:	e34c3001 	movt	r3, #49153	; 0xc001
480049bc:	e1520003 	cmp	r2, r3
480049c0:	1a000005 	bne	480049dc <arm_mmu_page_test_iter+0x1c10>
480049c4:	e51b305c 	ldr	r3, [fp, #-92]	; 0x5c
480049c8:	e5933000 	ldr	r3, [r3]
480049cc:	e2832001 	add	r2, r3, #1
480049d0:	e51b305c 	ldr	r3, [fp, #-92]	; 0x5c
480049d4:	e5832000 	str	r2, [r3]
480049d8:	ea000004 	b	480049f0 <arm_mmu_page_test_iter+0x1c24>
480049dc:	e59b3004 	ldr	r3, [fp, #4]
480049e0:	e5933000 	ldr	r3, [r3]
480049e4:	e2832001 	add	r2, r3, #1
480049e8:	e59b3004 	ldr	r3, [fp, #4]
480049ec:	e5832000 	str	r2, [r3]
480049f0:	ef000001 	svc	0x00000001
480049f4:	e30c3400 	movw	r3, #50176	; 0xc400
480049f8:	e3443801 	movt	r3, #18433	; 0x4801
480049fc:	e51b2050 	ldr	r2, [fp, #-80]	; 0x50
48004a00:	e3a01000 	mov	r1, #0
48004a04:	e7831102 	str	r1, [r3, r2, lsl #2]
48004a08:	e3a03000 	mov	r3, #0
48004a0c:	e50b302c 	str	r3, [fp, #-44]	; 0x2c
48004a10:	ee083f17 	mcr	15, 0, r3, cr8, cr7, {0}
48004a14:	e50b302c 	str	r3, [fp, #-44]	; 0x2c
48004a18:	e3a03000 	mov	r3, #0
48004a1c:	e50b300c 	str	r3, [fp, #-12]
48004a20:	e51b300c 	ldr	r3, [fp, #-12]
48004a24:	e3833030 	orr	r3, r3, #48	; 0x30
48004a28:	e50b300c 	str	r3, [fp, #-12]
48004a2c:	e51b300c 	ldr	r3, [fp, #-12]
48004a30:	e3833008 	orr	r3, r3, #8
48004a34:	e50b300c 	str	r3, [fp, #-12]
48004a38:	e51b300c 	ldr	r3, [fp, #-12]
48004a3c:	e3833003 	orr	r3, r3, #3
48004a40:	e50b300c 	str	r3, [fp, #-12]
48004a44:	e30c3808 	movw	r3, #51208	; 0xc808
48004a48:	e3443801 	movt	r3, #18433	; 0x4801
48004a4c:	e5932000 	ldr	r2, [r3]
48004a50:	e51b300c 	ldr	r3, [fp, #-12]
48004a54:	e1821003 	orr	r1, r2, r3
48004a58:	e30c3400 	movw	r3, #50176	; 0xc400
48004a5c:	e3443801 	movt	r3, #18433	; 0x4801
48004a60:	e51b2050 	ldr	r2, [fp, #-80]	; 0x50
48004a64:	e7831102 	str	r1, [r3, r2, lsl #2]
48004a68:	e51b3050 	ldr	r3, [fp, #-80]	; 0x50
48004a6c:	e1a03603 	lsl	r3, r3, #12
48004a70:	e50b3008 	str	r3, [fp, #-8]
48004a74:	e51b2008 	ldr	r2, [fp, #-8]
48004a78:	e30c3800 	movw	r3, #51200	; 0xc800
48004a7c:	e3443801 	movt	r3, #18433	; 0x4801
48004a80:	e5933000 	ldr	r3, [r3]
48004a84:	e0823003 	add	r3, r2, r3
48004a88:	e50b3008 	str	r3, [fp, #-8]
48004a8c:	e51b2008 	ldr	r2, [fp, #-8]
48004a90:	e30b3abe 	movw	r3, #47806	; 0xbabe
48004a94:	e34c3001 	movt	r3, #49153	; 0xc001
48004a98:	e5823000 	str	r3, [r2]
48004a9c:	e51b3008 	ldr	r3, [fp, #-8]
48004aa0:	e2832004 	add	r2, r3, #4
48004aa4:	e30f3eed 	movw	r3, #65261	; 0xfeed
48004aa8:	e34d300d 	movt	r3, #53261	; 0xd00d
48004aac:	e5823000 	str	r3, [r2]
48004ab0:	e51b3058 	ldr	r3, [fp, #-88]	; 0x58
48004ab4:	e5933000 	ldr	r3, [r3]
48004ab8:	e2832001 	add	r2, r3, #1
48004abc:	e51b3058 	ldr	r3, [fp, #-88]	; 0x58
48004ac0:	e5832000 	str	r2, [r3]
48004ac4:	e51b3008 	ldr	r3, [fp, #-8]
48004ac8:	e5932000 	ldr	r2, [r3]
48004acc:	e30b3abe 	movw	r3, #47806	; 0xbabe
48004ad0:	e34c3001 	movt	r3, #49153	; 0xc001
48004ad4:	e1520003 	cmp	r2, r3
48004ad8:	1a00000c 	bne	48004b10 <arm_mmu_page_test_iter+0x1d44>
48004adc:	e51b3008 	ldr	r3, [fp, #-8]
48004ae0:	e2833004 	add	r3, r3, #4
48004ae4:	e5932000 	ldr	r2, [r3]
48004ae8:	e30f3eed 	movw	r3, #65261	; 0xfeed
48004aec:	e34d300d 	movt	r3, #53261	; 0xd00d
48004af0:	e1520003 	cmp	r2, r3
48004af4:	1a000005 	bne	48004b10 <arm_mmu_page_test_iter+0x1d44>
48004af8:	e51b305c 	ldr	r3, [fp, #-92]	; 0x5c
48004afc:	e5933000 	ldr	r3, [r3]
48004b00:	e2832001 	add	r2, r3, #1
48004b04:	e51b305c 	ldr	r3, [fp, #-92]	; 0x5c
48004b08:	e5832000 	str	r2, [r3]
48004b0c:	ea000004 	b	48004b24 <arm_mmu_page_test_iter+0x1d58>
48004b10:	e59b3004 	ldr	r3, [fp, #4]
48004b14:	e5933000 	ldr	r3, [r3]
48004b18:	e2832001 	add	r2, r3, #1
48004b1c:	e59b3004 	ldr	r3, [fp, #4]
48004b20:	e5832000 	str	r2, [r3]
48004b24:	e51b3008 	ldr	r3, [fp, #-8]
48004b28:	e3a02000 	mov	r2, #0
48004b2c:	e5832000 	str	r2, [r3]
48004b30:	e51b3008 	ldr	r3, [fp, #-8]
48004b34:	e2833004 	add	r3, r3, #4
48004b38:	e3a02000 	mov	r2, #0
48004b3c:	e5832000 	str	r2, [r3]
48004b40:	e51b3058 	ldr	r3, [fp, #-88]	; 0x58
48004b44:	e5933000 	ldr	r3, [r3]
48004b48:	e2832001 	add	r2, r3, #1
48004b4c:	e51b3058 	ldr	r3, [fp, #-88]	; 0x58
48004b50:	e5832000 	str	r2, [r3]
48004b54:	e51b3008 	ldr	r3, [fp, #-8]
48004b58:	e5933000 	ldr	r3, [r3]
48004b5c:	e3530000 	cmp	r3, #0
48004b60:	1a00000a 	bne	48004b90 <arm_mmu_page_test_iter+0x1dc4>
48004b64:	e51b3008 	ldr	r3, [fp, #-8]
48004b68:	e2833004 	add	r3, r3, #4
48004b6c:	e5933000 	ldr	r3, [r3]
48004b70:	e3530000 	cmp	r3, #0
48004b74:	1a000005 	bne	48004b90 <arm_mmu_page_test_iter+0x1dc4>
48004b78:	e51b305c 	ldr	r3, [fp, #-92]	; 0x5c
48004b7c:	e5933000 	ldr	r3, [r3]
48004b80:	e2832001 	add	r2, r3, #1
48004b84:	e51b305c 	ldr	r3, [fp, #-92]	; 0x5c
48004b88:	e5832000 	str	r2, [r3]
48004b8c:	ea000004 	b	48004ba4 <arm_mmu_page_test_iter+0x1dd8>
48004b90:	e59b3004 	ldr	r3, [fp, #4]
48004b94:	e5933000 	ldr	r3, [r3]
48004b98:	e2832001 	add	r2, r3, #1
48004b9c:	e59b3004 	ldr	r3, [fp, #4]
48004ba0:	e5832000 	str	r2, [r3]
48004ba4:	e3a00000 	mov	r0, #0
48004ba8:	e3a01000 	mov	r1, #0
48004bac:	ebffed83 	bl	480001c0 <_switch_to_user_mode>
48004bb0:	e51b2008 	ldr	r2, [fp, #-8]
48004bb4:	e30b3abe 	movw	r3, #47806	; 0xbabe
48004bb8:	e34c3001 	movt	r3, #49153	; 0xc001
48004bbc:	e5823000 	str	r3, [r2]
48004bc0:	e51b3008 	ldr	r3, [fp, #-8]
48004bc4:	e2832004 	add	r2, r3, #4
48004bc8:	e30f3eed 	movw	r3, #65261	; 0xfeed
48004bcc:	e34d300d 	movt	r3, #53261	; 0xd00d
48004bd0:	e5823000 	str	r3, [r2]
48004bd4:	e51b3058 	ldr	r3, [fp, #-88]	; 0x58
48004bd8:	e5933000 	ldr	r3, [r3]
48004bdc:	e2832001 	add	r2, r3, #1
48004be0:	e51b3058 	ldr	r3, [fp, #-88]	; 0x58
48004be4:	e5832000 	str	r2, [r3]
48004be8:	e51b3008 	ldr	r3, [fp, #-8]
48004bec:	e5932000 	ldr	r2, [r3]
48004bf0:	e30b3abe 	movw	r3, #47806	; 0xbabe
48004bf4:	e34c3001 	movt	r3, #49153	; 0xc001
48004bf8:	e1520003 	cmp	r2, r3
48004bfc:	1a00000c 	bne	48004c34 <arm_mmu_page_test_iter+0x1e68>
48004c00:	e51b3008 	ldr	r3, [fp, #-8]
48004c04:	e2833004 	add	r3, r3, #4
48004c08:	e5932000 	ldr	r2, [r3]
48004c0c:	e30f3eed 	movw	r3, #65261	; 0xfeed
48004c10:	e34d300d 	movt	r3, #53261	; 0xd00d
48004c14:	e1520003 	cmp	r2, r3
48004c18:	1a000005 	bne	48004c34 <arm_mmu_page_test_iter+0x1e68>
48004c1c:	e51b305c 	ldr	r3, [fp, #-92]	; 0x5c
48004c20:	e5933000 	ldr	r3, [r3]
48004c24:	e2832001 	add	r2, r3, #1
48004c28:	e51b305c 	ldr	r3, [fp, #-92]	; 0x5c
48004c2c:	e5832000 	str	r2, [r3]
48004c30:	ea000004 	b	48004c48 <arm_mmu_page_test_iter+0x1e7c>
48004c34:	e59b3004 	ldr	r3, [fp, #4]
48004c38:	e5933000 	ldr	r3, [r3]
48004c3c:	e2832001 	add	r2, r3, #1
48004c40:	e59b3004 	ldr	r3, [fp, #4]
48004c44:	e5832000 	str	r2, [r3]
48004c48:	e51b3008 	ldr	r3, [fp, #-8]
48004c4c:	e3a02000 	mov	r2, #0
48004c50:	e5832000 	str	r2, [r3]
48004c54:	e51b3008 	ldr	r3, [fp, #-8]
48004c58:	e2833004 	add	r3, r3, #4
48004c5c:	e3a02000 	mov	r2, #0
48004c60:	e5832000 	str	r2, [r3]
48004c64:	e51b3058 	ldr	r3, [fp, #-88]	; 0x58
48004c68:	e5933000 	ldr	r3, [r3]
48004c6c:	e2832001 	add	r2, r3, #1
48004c70:	e51b3058 	ldr	r3, [fp, #-88]	; 0x58
48004c74:	e5832000 	str	r2, [r3]
48004c78:	e51b3008 	ldr	r3, [fp, #-8]
48004c7c:	e5933000 	ldr	r3, [r3]
48004c80:	e3530000 	cmp	r3, #0
48004c84:	1a00000a 	bne	48004cb4 <arm_mmu_page_test_iter+0x1ee8>
48004c88:	e51b3008 	ldr	r3, [fp, #-8]
48004c8c:	e2833004 	add	r3, r3, #4
48004c90:	e5933000 	ldr	r3, [r3]
48004c94:	e3530000 	cmp	r3, #0
48004c98:	1a000005 	bne	48004cb4 <arm_mmu_page_test_iter+0x1ee8>
48004c9c:	e51b305c 	ldr	r3, [fp, #-92]	; 0x5c
48004ca0:	e5933000 	ldr	r3, [r3]
48004ca4:	e2832001 	add	r2, r3, #1
48004ca8:	e51b305c 	ldr	r3, [fp, #-92]	; 0x5c
48004cac:	e5832000 	str	r2, [r3]
48004cb0:	ea000004 	b	48004cc8 <arm_mmu_page_test_iter+0x1efc>
48004cb4:	e59b3004 	ldr	r3, [fp, #4]
48004cb8:	e5933000 	ldr	r3, [r3]
48004cbc:	e2832001 	add	r2, r3, #1
48004cc0:	e59b3004 	ldr	r3, [fp, #4]
48004cc4:	e5832000 	str	r2, [r3]
48004cc8:	ef000001 	svc	0x00000001
48004ccc:	e30c3400 	movw	r3, #50176	; 0xc400
48004cd0:	e3443801 	movt	r3, #18433	; 0x4801
48004cd4:	e51b2050 	ldr	r2, [fp, #-80]	; 0x50
48004cd8:	e3a01000 	mov	r1, #0
48004cdc:	e7831102 	str	r1, [r3, r2, lsl #2]
48004ce0:	e3a03000 	mov	r3, #0
48004ce4:	e50b3030 	str	r3, [fp, #-48]	; 0x30
48004ce8:	ee083f17 	mcr	15, 0, r3, cr8, cr7, {0}
48004cec:	e50b3030 	str	r3, [fp, #-48]	; 0x30
48004cf0:	e3a03000 	mov	r3, #0
48004cf4:	e50b300c 	str	r3, [fp, #-12]
48004cf8:	e51b300c 	ldr	r3, [fp, #-12]
48004cfc:	e3833010 	orr	r3, r3, #16
48004d00:	e50b300c 	str	r3, [fp, #-12]
48004d04:	e51b300c 	ldr	r3, [fp, #-12]
48004d08:	e3833008 	orr	r3, r3, #8
48004d0c:	e50b300c 	str	r3, [fp, #-12]
48004d10:	e51b300c 	ldr	r3, [fp, #-12]
48004d14:	e3833003 	orr	r3, r3, #3
48004d18:	e50b300c 	str	r3, [fp, #-12]
48004d1c:	e30c3808 	movw	r3, #51208	; 0xc808
48004d20:	e3443801 	movt	r3, #18433	; 0x4801
48004d24:	e5932000 	ldr	r2, [r3]
48004d28:	e51b300c 	ldr	r3, [fp, #-12]
48004d2c:	e1821003 	orr	r1, r2, r3
48004d30:	e30c3400 	movw	r3, #50176	; 0xc400
48004d34:	e3443801 	movt	r3, #18433	; 0x4801
48004d38:	e51b2050 	ldr	r2, [fp, #-80]	; 0x50
48004d3c:	e7831102 	str	r1, [r3, r2, lsl #2]
48004d40:	e51b3050 	ldr	r3, [fp, #-80]	; 0x50
48004d44:	e1a03603 	lsl	r3, r3, #12
48004d48:	e50b3008 	str	r3, [fp, #-8]
48004d4c:	e51b2008 	ldr	r2, [fp, #-8]
48004d50:	e30c3800 	movw	r3, #51200	; 0xc800
48004d54:	e3443801 	movt	r3, #18433	; 0x4801
48004d58:	e5933000 	ldr	r3, [r3]
48004d5c:	e0823003 	add	r3, r2, r3
48004d60:	e50b3008 	str	r3, [fp, #-8]
48004d64:	e51b2008 	ldr	r2, [fp, #-8]
48004d68:	e30b3abe 	movw	r3, #47806	; 0xbabe
48004d6c:	e34c3001 	movt	r3, #49153	; 0xc001
48004d70:	e5823000 	str	r3, [r2]
48004d74:	e30c3400 	movw	r3, #50176	; 0xc400
48004d78:	e3443801 	movt	r3, #18433	; 0x4801
48004d7c:	e51b2050 	ldr	r2, [fp, #-80]	; 0x50
48004d80:	e3a01000 	mov	r1, #0
48004d84:	e7831102 	str	r1, [r3, r2, lsl #2]
48004d88:	e3a03000 	mov	r3, #0
48004d8c:	e50b3034 	str	r3, [fp, #-52]	; 0x34
48004d90:	ee083f17 	mcr	15, 0, r3, cr8, cr7, {0}
48004d94:	e50b3034 	str	r3, [fp, #-52]	; 0x34
48004d98:	e3a03000 	mov	r3, #0
48004d9c:	e50b300c 	str	r3, [fp, #-12]
48004da0:	e51b300c 	ldr	r3, [fp, #-12]
48004da4:	e3833c02 	orr	r3, r3, #512	; 0x200
48004da8:	e50b300c 	str	r3, [fp, #-12]
48004dac:	e51b300c 	ldr	r3, [fp, #-12]
48004db0:	e3833010 	orr	r3, r3, #16
48004db4:	e50b300c 	str	r3, [fp, #-12]
48004db8:	e51b300c 	ldr	r3, [fp, #-12]
48004dbc:	e3833008 	orr	r3, r3, #8
48004dc0:	e50b300c 	str	r3, [fp, #-12]
48004dc4:	e51b300c 	ldr	r3, [fp, #-12]
48004dc8:	e3833003 	orr	r3, r3, #3
48004dcc:	e50b300c 	str	r3, [fp, #-12]
48004dd0:	e30c3808 	movw	r3, #51208	; 0xc808
48004dd4:	e3443801 	movt	r3, #18433	; 0x4801
48004dd8:	e5932000 	ldr	r2, [r3]
48004ddc:	e51b300c 	ldr	r3, [fp, #-12]
48004de0:	e1821003 	orr	r1, r2, r3
48004de4:	e30c3400 	movw	r3, #50176	; 0xc400
48004de8:	e3443801 	movt	r3, #18433	; 0x4801
48004dec:	e51b2050 	ldr	r2, [fp, #-80]	; 0x50
48004df0:	e7831102 	str	r1, [r3, r2, lsl #2]
48004df4:	e51b3050 	ldr	r3, [fp, #-80]	; 0x50
48004df8:	e1a03603 	lsl	r3, r3, #12
48004dfc:	e50b3008 	str	r3, [fp, #-8]
48004e00:	e51b2008 	ldr	r2, [fp, #-8]
48004e04:	e30c3800 	movw	r3, #51200	; 0xc800
48004e08:	e3443801 	movt	r3, #18433	; 0x4801
48004e0c:	e5933000 	ldr	r3, [r3]
48004e10:	e0823003 	add	r3, r2, r3
48004e14:	e50b3008 	str	r3, [fp, #-8]
48004e18:	e3043000 	movw	r3, #16384	; 0x4000
48004e1c:	e3443802 	movt	r3, #18434	; 0x4802
48004e20:	e3a0200f 	mov	r2, #15
48004e24:	e5832000 	str	r2, [r3]
48004e28:	e51b2008 	ldr	r2, [fp, #-8]
48004e2c:	e3043004 	movw	r3, #16388	; 0x4004
48004e30:	e3443802 	movt	r3, #18434	; 0x4802
48004e34:	e5832000 	str	r2, [r3]
48004e38:	e3043008 	movw	r3, #16392	; 0x4008
48004e3c:	e3443802 	movt	r3, #18434	; 0x4802
48004e40:	e3a02001 	mov	r2, #1
48004e44:	e5832000 	str	r2, [r3]
48004e48:	e3043010 	movw	r3, #16400	; 0x4010
48004e4c:	e3443802 	movt	r3, #18434	; 0x4802
48004e50:	e3a02000 	mov	r2, #0
48004e54:	e5832000 	str	r2, [r3]
48004e58:	e30c3000 	movw	r3, #49152	; 0xc000
48004e5c:	e3443801 	movt	r3, #18433	; 0x4801
48004e60:	e3a02000 	mov	r2, #0
48004e64:	e5832000 	str	r2, [r3]
48004e68:	e51b3008 	ldr	r3, [fp, #-8]
48004e6c:	e3a02000 	mov	r2, #0
48004e70:	e5832000 	str	r2, [r3]
48004e74:	e51b3058 	ldr	r3, [fp, #-88]	; 0x58
48004e78:	e5933000 	ldr	r3, [r3]
48004e7c:	e2832001 	add	r2, r3, #1
48004e80:	e51b3058 	ldr	r3, [fp, #-88]	; 0x58
48004e84:	e5832000 	str	r2, [r3]
48004e88:	e30c3000 	movw	r3, #49152	; 0xc000
48004e8c:	e3443801 	movt	r3, #18433	; 0x4801
48004e90:	e5933000 	ldr	r3, [r3]
48004e94:	e3530000 	cmp	r3, #0
48004e98:	0a000005 	beq	48004eb4 <arm_mmu_page_test_iter+0x20e8>
48004e9c:	e51b305c 	ldr	r3, [fp, #-92]	; 0x5c
48004ea0:	e5933000 	ldr	r3, [r3]
48004ea4:	e2832001 	add	r2, r3, #1
48004ea8:	e51b305c 	ldr	r3, [fp, #-92]	; 0x5c
48004eac:	e5832000 	str	r2, [r3]
48004eb0:	ea000004 	b	48004ec8 <arm_mmu_page_test_iter+0x20fc>
48004eb4:	e59b3004 	ldr	r3, [fp, #4]
48004eb8:	e5933000 	ldr	r3, [r3]
48004ebc:	e2832001 	add	r2, r3, #1
48004ec0:	e59b3004 	ldr	r3, [fp, #4]
48004ec4:	e5832000 	str	r2, [r3]
48004ec8:	e51b3058 	ldr	r3, [fp, #-88]	; 0x58
48004ecc:	e5933000 	ldr	r3, [r3]
48004ed0:	e2832001 	add	r2, r3, #1
48004ed4:	e51b3058 	ldr	r3, [fp, #-88]	; 0x58
48004ed8:	e5832000 	str	r2, [r3]
48004edc:	e51b3008 	ldr	r3, [fp, #-8]
48004ee0:	e5932000 	ldr	r2, [r3]
48004ee4:	e30b3abe 	movw	r3, #47806	; 0xbabe
48004ee8:	e34c3001 	movt	r3, #49153	; 0xc001
48004eec:	e1520003 	cmp	r2, r3
48004ef0:	1a000005 	bne	48004f0c <arm_mmu_page_test_iter+0x2140>
48004ef4:	e51b305c 	ldr	r3, [fp, #-92]	; 0x5c
48004ef8:	e5933000 	ldr	r3, [r3]
48004efc:	e2832001 	add	r2, r3, #1
48004f00:	e51b305c 	ldr	r3, [fp, #-92]	; 0x5c
48004f04:	e5832000 	str	r2, [r3]
48004f08:	ea000004 	b	48004f20 <arm_mmu_page_test_iter+0x2154>
48004f0c:	e59b3004 	ldr	r3, [fp, #4]
48004f10:	e5933000 	ldr	r3, [r3]
48004f14:	e2832001 	add	r2, r3, #1
48004f18:	e59b3004 	ldr	r3, [fp, #4]
48004f1c:	e5832000 	str	r2, [r3]
48004f20:	e3a00000 	mov	r0, #0
48004f24:	e3a01000 	mov	r1, #0
48004f28:	ebffeca4 	bl	480001c0 <_switch_to_user_mode>
48004f2c:	e3043000 	movw	r3, #16384	; 0x4000
48004f30:	e3443802 	movt	r3, #18434	; 0x4802
48004f34:	e3a0200f 	mov	r2, #15
48004f38:	e5832000 	str	r2, [r3]
48004f3c:	e51b2008 	ldr	r2, [fp, #-8]
48004f40:	e3043004 	movw	r3, #16388	; 0x4004
48004f44:	e3443802 	movt	r3, #18434	; 0x4802
48004f48:	e5832000 	str	r2, [r3]
48004f4c:	e3043008 	movw	r3, #16392	; 0x4008
48004f50:	e3443802 	movt	r3, #18434	; 0x4802
48004f54:	e3a02001 	mov	r2, #1
48004f58:	e5832000 	str	r2, [r3]
48004f5c:	e3043010 	movw	r3, #16400	; 0x4010
48004f60:	e3443802 	movt	r3, #18434	; 0x4802
48004f64:	e3a02000 	mov	r2, #0
48004f68:	e5832000 	str	r2, [r3]
48004f6c:	e30c3000 	movw	r3, #49152	; 0xc000
48004f70:	e3443801 	movt	r3, #18433	; 0x4801
48004f74:	e3a02000 	mov	r2, #0
48004f78:	e5832000 	str	r2, [r3]
48004f7c:	e51b2008 	ldr	r2, [fp, #-8]
48004f80:	e30b3abe 	movw	r3, #47806	; 0xbabe
48004f84:	e34c3001 	movt	r3, #49153	; 0xc001
48004f88:	e5823000 	str	r3, [r2]
48004f8c:	e51b3058 	ldr	r3, [fp, #-88]	; 0x58
48004f90:	e5933000 	ldr	r3, [r3]
48004f94:	e2832001 	add	r2, r3, #1
48004f98:	e51b3058 	ldr	r3, [fp, #-88]	; 0x58
48004f9c:	e5832000 	str	r2, [r3]
48004fa0:	e30c3000 	movw	r3, #49152	; 0xc000
48004fa4:	e3443801 	movt	r3, #18433	; 0x4801
48004fa8:	e5933000 	ldr	r3, [r3]
48004fac:	e3530000 	cmp	r3, #0
48004fb0:	0a000005 	beq	48004fcc <arm_mmu_page_test_iter+0x2200>
48004fb4:	e51b305c 	ldr	r3, [fp, #-92]	; 0x5c
48004fb8:	e5933000 	ldr	r3, [r3]
48004fbc:	e2832001 	add	r2, r3, #1
48004fc0:	e51b305c 	ldr	r3, [fp, #-92]	; 0x5c
48004fc4:	e5832000 	str	r2, [r3]
48004fc8:	ea000004 	b	48004fe0 <arm_mmu_page_test_iter+0x2214>
48004fcc:	e59b3004 	ldr	r3, [fp, #4]
48004fd0:	e5933000 	ldr	r3, [r3]
48004fd4:	e2832001 	add	r2, r3, #1
48004fd8:	e59b3004 	ldr	r3, [fp, #4]
48004fdc:	e5832000 	str	r2, [r3]
48004fe0:	e3043008 	movw	r3, #16392	; 0x4008
48004fe4:	e3443802 	movt	r3, #18434	; 0x4802
48004fe8:	e3a02000 	mov	r2, #0
48004fec:	e5832000 	str	r2, [r3]
48004ff0:	e30c3000 	movw	r3, #49152	; 0xc000
48004ff4:	e3443801 	movt	r3, #18433	; 0x4801
48004ff8:	e3a02000 	mov	r2, #0
48004ffc:	e5832000 	str	r2, [r3]
48005000:	e51b3008 	ldr	r3, [fp, #-8]
48005004:	e5933000 	ldr	r3, [r3]
48005008:	e50b300c 	str	r3, [fp, #-12]
4800500c:	e51b3058 	ldr	r3, [fp, #-88]	; 0x58
48005010:	e5933000 	ldr	r3, [r3]
48005014:	e2832001 	add	r2, r3, #1
48005018:	e51b3058 	ldr	r3, [fp, #-88]	; 0x58
4800501c:	e5832000 	str	r2, [r3]
48005020:	e30c3000 	movw	r3, #49152	; 0xc000
48005024:	e3443801 	movt	r3, #18433	; 0x4801
48005028:	e5933000 	ldr	r3, [r3]
4800502c:	e3530000 	cmp	r3, #0
48005030:	0a000005 	beq	4800504c <arm_mmu_page_test_iter+0x2280>
48005034:	e51b305c 	ldr	r3, [fp, #-92]	; 0x5c
48005038:	e5933000 	ldr	r3, [r3]
4800503c:	e2832001 	add	r2, r3, #1
48005040:	e51b305c 	ldr	r3, [fp, #-92]	; 0x5c
48005044:	e5832000 	str	r2, [r3]
48005048:	ea000004 	b	48005060 <arm_mmu_page_test_iter+0x2294>
4800504c:	e59b3004 	ldr	r3, [fp, #4]
48005050:	e5933000 	ldr	r3, [r3]
48005054:	e2832001 	add	r2, r3, #1
48005058:	e59b3004 	ldr	r3, [fp, #4]
4800505c:	e5832000 	str	r2, [r3]
48005060:	ef000001 	svc	0x00000001
48005064:	e30c3400 	movw	r3, #50176	; 0xc400
48005068:	e3443801 	movt	r3, #18433	; 0x4801
4800506c:	e51b2050 	ldr	r2, [fp, #-80]	; 0x50
48005070:	e3a01000 	mov	r1, #0
48005074:	e7831102 	str	r1, [r3, r2, lsl #2]
48005078:	e3a03000 	mov	r3, #0
4800507c:	e50b3038 	str	r3, [fp, #-56]	; 0x38
48005080:	ee083f17 	mcr	15, 0, r3, cr8, cr7, {0}
48005084:	e50b3038 	str	r3, [fp, #-56]	; 0x38
48005088:	e3a03000 	mov	r3, #0
4800508c:	e50b300c 	str	r3, [fp, #-12]
48005090:	e51b300c 	ldr	r3, [fp, #-12]
48005094:	e3833010 	orr	r3, r3, #16
48005098:	e50b300c 	str	r3, [fp, #-12]
4800509c:	e51b300c 	ldr	r3, [fp, #-12]
480050a0:	e3833008 	orr	r3, r3, #8
480050a4:	e50b300c 	str	r3, [fp, #-12]
480050a8:	e51b300c 	ldr	r3, [fp, #-12]
480050ac:	e3833003 	orr	r3, r3, #3
480050b0:	e50b300c 	str	r3, [fp, #-12]
480050b4:	e30c3808 	movw	r3, #51208	; 0xc808
480050b8:	e3443801 	movt	r3, #18433	; 0x4801
480050bc:	e5932000 	ldr	r2, [r3]
480050c0:	e51b300c 	ldr	r3, [fp, #-12]
480050c4:	e1821003 	orr	r1, r2, r3
480050c8:	e30c3400 	movw	r3, #50176	; 0xc400
480050cc:	e3443801 	movt	r3, #18433	; 0x4801
480050d0:	e51b2050 	ldr	r2, [fp, #-80]	; 0x50
480050d4:	e7831102 	str	r1, [r3, r2, lsl #2]
480050d8:	e51b3050 	ldr	r3, [fp, #-80]	; 0x50
480050dc:	e1a03603 	lsl	r3, r3, #12
480050e0:	e50b3008 	str	r3, [fp, #-8]
480050e4:	e51b2008 	ldr	r2, [fp, #-8]
480050e8:	e30c3800 	movw	r3, #51200	; 0xc800
480050ec:	e3443801 	movt	r3, #18433	; 0x4801
480050f0:	e5933000 	ldr	r3, [r3]
480050f4:	e0823003 	add	r3, r2, r3
480050f8:	e50b3008 	str	r3, [fp, #-8]
480050fc:	e51b2008 	ldr	r2, [fp, #-8]
48005100:	e30b3abe 	movw	r3, #47806	; 0xbabe
48005104:	e34c3001 	movt	r3, #49153	; 0xc001
48005108:	e5823000 	str	r3, [r2]
4800510c:	e30c3400 	movw	r3, #50176	; 0xc400
48005110:	e3443801 	movt	r3, #18433	; 0x4801
48005114:	e51b2050 	ldr	r2, [fp, #-80]	; 0x50
48005118:	e3a01000 	mov	r1, #0
4800511c:	e7831102 	str	r1, [r3, r2, lsl #2]
48005120:	e3a03000 	mov	r3, #0
48005124:	e50b303c 	str	r3, [fp, #-60]	; 0x3c
48005128:	ee083f17 	mcr	15, 0, r3, cr8, cr7, {0}
4800512c:	e50b303c 	str	r3, [fp, #-60]	; 0x3c
48005130:	e3a03000 	mov	r3, #0
48005134:	e50b300c 	str	r3, [fp, #-12]
48005138:	e51b300c 	ldr	r3, [fp, #-12]
4800513c:	e3833c02 	orr	r3, r3, #512	; 0x200
48005140:	e50b300c 	str	r3, [fp, #-12]
48005144:	e51b300c 	ldr	r3, [fp, #-12]
48005148:	e3833020 	orr	r3, r3, #32
4800514c:	e50b300c 	str	r3, [fp, #-12]
48005150:	e51b300c 	ldr	r3, [fp, #-12]
48005154:	e3833008 	orr	r3, r3, #8
48005158:	e50b300c 	str	r3, [fp, #-12]
4800515c:	e51b300c 	ldr	r3, [fp, #-12]
48005160:	e3833003 	orr	r3, r3, #3
48005164:	e50b300c 	str	r3, [fp, #-12]
48005168:	e30c3808 	movw	r3, #51208	; 0xc808
4800516c:	e3443801 	movt	r3, #18433	; 0x4801
48005170:	e5932000 	ldr	r2, [r3]
48005174:	e51b300c 	ldr	r3, [fp, #-12]
48005178:	e1821003 	orr	r1, r2, r3
4800517c:	e30c3400 	movw	r3, #50176	; 0xc400
48005180:	e3443801 	movt	r3, #18433	; 0x4801
48005184:	e51b2050 	ldr	r2, [fp, #-80]	; 0x50
48005188:	e7831102 	str	r1, [r3, r2, lsl #2]
4800518c:	e51b3050 	ldr	r3, [fp, #-80]	; 0x50
48005190:	e1a03603 	lsl	r3, r3, #12
48005194:	e50b3008 	str	r3, [fp, #-8]
48005198:	e51b2008 	ldr	r2, [fp, #-8]
4800519c:	e30c3800 	movw	r3, #51200	; 0xc800
480051a0:	e3443801 	movt	r3, #18433	; 0x4801
480051a4:	e5933000 	ldr	r3, [r3]
480051a8:	e0823003 	add	r3, r2, r3
480051ac:	e50b3008 	str	r3, [fp, #-8]
480051b0:	e3043000 	movw	r3, #16384	; 0x4000
480051b4:	e3443802 	movt	r3, #18434	; 0x4802
480051b8:	e3a0200f 	mov	r2, #15
480051bc:	e5832000 	str	r2, [r3]
480051c0:	e51b2008 	ldr	r2, [fp, #-8]
480051c4:	e3043004 	movw	r3, #16388	; 0x4004
480051c8:	e3443802 	movt	r3, #18434	; 0x4802
480051cc:	e5832000 	str	r2, [r3]
480051d0:	e3043008 	movw	r3, #16392	; 0x4008
480051d4:	e3443802 	movt	r3, #18434	; 0x4802
480051d8:	e3a02001 	mov	r2, #1
480051dc:	e5832000 	str	r2, [r3]
480051e0:	e3043010 	movw	r3, #16400	; 0x4010
480051e4:	e3443802 	movt	r3, #18434	; 0x4802
480051e8:	e3a02000 	mov	r2, #0
480051ec:	e5832000 	str	r2, [r3]
480051f0:	e30c3000 	movw	r3, #49152	; 0xc000
480051f4:	e3443801 	movt	r3, #18433	; 0x4801
480051f8:	e3a02000 	mov	r2, #0
480051fc:	e5832000 	str	r2, [r3]
48005200:	e51b3008 	ldr	r3, [fp, #-8]
48005204:	e3a02000 	mov	r2, #0
48005208:	e5832000 	str	r2, [r3]
4800520c:	e51b3058 	ldr	r3, [fp, #-88]	; 0x58
48005210:	e5933000 	ldr	r3, [r3]
48005214:	e2832001 	add	r2, r3, #1
48005218:	e51b3058 	ldr	r3, [fp, #-88]	; 0x58
4800521c:	e5832000 	str	r2, [r3]
48005220:	e30c3000 	movw	r3, #49152	; 0xc000
48005224:	e3443801 	movt	r3, #18433	; 0x4801
48005228:	e5933000 	ldr	r3, [r3]
4800522c:	e3530000 	cmp	r3, #0
48005230:	0a000005 	beq	4800524c <arm_mmu_page_test_iter+0x2480>
48005234:	e51b305c 	ldr	r3, [fp, #-92]	; 0x5c
48005238:	e5933000 	ldr	r3, [r3]
4800523c:	e2832001 	add	r2, r3, #1
48005240:	e51b305c 	ldr	r3, [fp, #-92]	; 0x5c
48005244:	e5832000 	str	r2, [r3]
48005248:	ea000004 	b	48005260 <arm_mmu_page_test_iter+0x2494>
4800524c:	e59b3004 	ldr	r3, [fp, #4]
48005250:	e5933000 	ldr	r3, [r3]
48005254:	e2832001 	add	r2, r3, #1
48005258:	e59b3004 	ldr	r3, [fp, #4]
4800525c:	e5832000 	str	r2, [r3]
48005260:	e51b3058 	ldr	r3, [fp, #-88]	; 0x58
48005264:	e5933000 	ldr	r3, [r3]
48005268:	e2832001 	add	r2, r3, #1
4800526c:	e51b3058 	ldr	r3, [fp, #-88]	; 0x58
48005270:	e5832000 	str	r2, [r3]
48005274:	e51b3008 	ldr	r3, [fp, #-8]
48005278:	e5932000 	ldr	r2, [r3]
4800527c:	e30b3abe 	movw	r3, #47806	; 0xbabe
48005280:	e34c3001 	movt	r3, #49153	; 0xc001
48005284:	e1520003 	cmp	r2, r3
48005288:	1a000005 	bne	480052a4 <arm_mmu_page_test_iter+0x24d8>
4800528c:	e51b305c 	ldr	r3, [fp, #-92]	; 0x5c
48005290:	e5933000 	ldr	r3, [r3]
48005294:	e2832001 	add	r2, r3, #1
48005298:	e51b305c 	ldr	r3, [fp, #-92]	; 0x5c
4800529c:	e5832000 	str	r2, [r3]
480052a0:	ea000004 	b	480052b8 <arm_mmu_page_test_iter+0x24ec>
480052a4:	e59b3004 	ldr	r3, [fp, #4]
480052a8:	e5933000 	ldr	r3, [r3]
480052ac:	e2832001 	add	r2, r3, #1
480052b0:	e59b3004 	ldr	r3, [fp, #4]
480052b4:	e5832000 	str	r2, [r3]
480052b8:	e3a00000 	mov	r0, #0
480052bc:	e3a01000 	mov	r1, #0
480052c0:	ebffebbe 	bl	480001c0 <_switch_to_user_mode>
480052c4:	e3043000 	movw	r3, #16384	; 0x4000
480052c8:	e3443802 	movt	r3, #18434	; 0x4802
480052cc:	e3a0200f 	mov	r2, #15
480052d0:	e5832000 	str	r2, [r3]
480052d4:	e51b2008 	ldr	r2, [fp, #-8]
480052d8:	e3043004 	movw	r3, #16388	; 0x4004
480052dc:	e3443802 	movt	r3, #18434	; 0x4802
480052e0:	e5832000 	str	r2, [r3]
480052e4:	e3043008 	movw	r3, #16392	; 0x4008
480052e8:	e3443802 	movt	r3, #18434	; 0x4802
480052ec:	e3a02001 	mov	r2, #1
480052f0:	e5832000 	str	r2, [r3]
480052f4:	e3043010 	movw	r3, #16400	; 0x4010
480052f8:	e3443802 	movt	r3, #18434	; 0x4802
480052fc:	e3a02000 	mov	r2, #0
48005300:	e5832000 	str	r2, [r3]
48005304:	e30c3000 	movw	r3, #49152	; 0xc000
48005308:	e3443801 	movt	r3, #18433	; 0x4801
4800530c:	e3a02000 	mov	r2, #0
48005310:	e5832000 	str	r2, [r3]
48005314:	e51b2008 	ldr	r2, [fp, #-8]
48005318:	e30b3abe 	movw	r3, #47806	; 0xbabe
4800531c:	e34c3001 	movt	r3, #49153	; 0xc001
48005320:	e5823000 	str	r3, [r2]
48005324:	e51b3058 	ldr	r3, [fp, #-88]	; 0x58
48005328:	e5933000 	ldr	r3, [r3]
4800532c:	e2832001 	add	r2, r3, #1
48005330:	e51b3058 	ldr	r3, [fp, #-88]	; 0x58
48005334:	e5832000 	str	r2, [r3]
48005338:	e30c3000 	movw	r3, #49152	; 0xc000
4800533c:	e3443801 	movt	r3, #18433	; 0x4801
48005340:	e5933000 	ldr	r3, [r3]
48005344:	e3530000 	cmp	r3, #0
48005348:	0a000005 	beq	48005364 <arm_mmu_page_test_iter+0x2598>
4800534c:	e51b305c 	ldr	r3, [fp, #-92]	; 0x5c
48005350:	e5933000 	ldr	r3, [r3]
48005354:	e2832001 	add	r2, r3, #1
48005358:	e51b305c 	ldr	r3, [fp, #-92]	; 0x5c
4800535c:	e5832000 	str	r2, [r3]
48005360:	ea000004 	b	48005378 <arm_mmu_page_test_iter+0x25ac>
48005364:	e59b3004 	ldr	r3, [fp, #4]
48005368:	e5933000 	ldr	r3, [r3]
4800536c:	e2832001 	add	r2, r3, #1
48005370:	e59b3004 	ldr	r3, [fp, #4]
48005374:	e5832000 	str	r2, [r3]
48005378:	e51b3058 	ldr	r3, [fp, #-88]	; 0x58
4800537c:	e5933000 	ldr	r3, [r3]
48005380:	e2832001 	add	r2, r3, #1
48005384:	e51b3058 	ldr	r3, [fp, #-88]	; 0x58
48005388:	e5832000 	str	r2, [r3]
4800538c:	e51b3008 	ldr	r3, [fp, #-8]
48005390:	e5932000 	ldr	r2, [r3]
48005394:	e30b3abe 	movw	r3, #47806	; 0xbabe
48005398:	e34c3001 	movt	r3, #49153	; 0xc001
4800539c:	e1520003 	cmp	r2, r3
480053a0:	1a000005 	bne	480053bc <arm_mmu_page_test_iter+0x25f0>
480053a4:	e51b305c 	ldr	r3, [fp, #-92]	; 0x5c
480053a8:	e5933000 	ldr	r3, [r3]
480053ac:	e2832001 	add	r2, r3, #1
480053b0:	e51b305c 	ldr	r3, [fp, #-92]	; 0x5c
480053b4:	e5832000 	str	r2, [r3]
480053b8:	ea000004 	b	480053d0 <arm_mmu_page_test_iter+0x2604>
480053bc:	e59b3004 	ldr	r3, [fp, #4]
480053c0:	e5933000 	ldr	r3, [r3]
480053c4:	e2832001 	add	r2, r3, #1
480053c8:	e59b3004 	ldr	r3, [fp, #4]
480053cc:	e5832000 	str	r2, [r3]
480053d0:	ef000001 	svc	0x00000001
480053d4:	e30c3400 	movw	r3, #50176	; 0xc400
480053d8:	e3443801 	movt	r3, #18433	; 0x4801
480053dc:	e51b2050 	ldr	r2, [fp, #-80]	; 0x50
480053e0:	e3a01000 	mov	r1, #0
480053e4:	e7831102 	str	r1, [r3, r2, lsl #2]
480053e8:	e3a03000 	mov	r3, #0
480053ec:	e50b3040 	str	r3, [fp, #-64]	; 0x40
480053f0:	ee083f17 	mcr	15, 0, r3, cr8, cr7, {0}
480053f4:	e50b3040 	str	r3, [fp, #-64]	; 0x40
480053f8:	e3a03000 	mov	r3, #0
480053fc:	e50b300c 	str	r3, [fp, #-12]
48005400:	e51b300c 	ldr	r3, [fp, #-12]
48005404:	e3833010 	orr	r3, r3, #16
48005408:	e50b300c 	str	r3, [fp, #-12]
4800540c:	e51b300c 	ldr	r3, [fp, #-12]
48005410:	e3833008 	orr	r3, r3, #8
48005414:	e50b300c 	str	r3, [fp, #-12]
48005418:	e51b300c 	ldr	r3, [fp, #-12]
4800541c:	e3833003 	orr	r3, r3, #3
48005420:	e50b300c 	str	r3, [fp, #-12]
48005424:	e30c3808 	movw	r3, #51208	; 0xc808
48005428:	e3443801 	movt	r3, #18433	; 0x4801
4800542c:	e5932000 	ldr	r2, [r3]
48005430:	e51b300c 	ldr	r3, [fp, #-12]
48005434:	e1821003 	orr	r1, r2, r3
48005438:	e30c3400 	movw	r3, #50176	; 0xc400
4800543c:	e3443801 	movt	r3, #18433	; 0x4801
48005440:	e51b2050 	ldr	r2, [fp, #-80]	; 0x50
48005444:	e7831102 	str	r1, [r3, r2, lsl #2]
48005448:	e51b3050 	ldr	r3, [fp, #-80]	; 0x50
4800544c:	e1a03603 	lsl	r3, r3, #12
48005450:	e50b3008 	str	r3, [fp, #-8]
48005454:	e51b2008 	ldr	r2, [fp, #-8]
48005458:	e30c3800 	movw	r3, #51200	; 0xc800
4800545c:	e3443801 	movt	r3, #18433	; 0x4801
48005460:	e5933000 	ldr	r3, [r3]
48005464:	e0823003 	add	r3, r2, r3
48005468:	e50b3008 	str	r3, [fp, #-8]
4800546c:	e51b2008 	ldr	r2, [fp, #-8]
48005470:	e30b3abe 	movw	r3, #47806	; 0xbabe
48005474:	e34c3001 	movt	r3, #49153	; 0xc001
48005478:	e5823000 	str	r3, [r2]
4800547c:	e30c3400 	movw	r3, #50176	; 0xc400
48005480:	e3443801 	movt	r3, #18433	; 0x4801
48005484:	e51b2050 	ldr	r2, [fp, #-80]	; 0x50
48005488:	e3a01000 	mov	r1, #0
4800548c:	e7831102 	str	r1, [r3, r2, lsl #2]
48005490:	e3a03000 	mov	r3, #0
48005494:	e50b3044 	str	r3, [fp, #-68]	; 0x44
48005498:	ee083f17 	mcr	15, 0, r3, cr8, cr7, {0}
4800549c:	e50b3044 	str	r3, [fp, #-68]	; 0x44
480054a0:	e3a03000 	mov	r3, #0
480054a4:	e50b300c 	str	r3, [fp, #-12]
480054a8:	e51b300c 	ldr	r3, [fp, #-12]
480054ac:	e3833c02 	orr	r3, r3, #512	; 0x200
480054b0:	e50b300c 	str	r3, [fp, #-12]
480054b4:	e51b300c 	ldr	r3, [fp, #-12]
480054b8:	e3833030 	orr	r3, r3, #48	; 0x30
480054bc:	e50b300c 	str	r3, [fp, #-12]
480054c0:	e51b300c 	ldr	r3, [fp, #-12]
480054c4:	e3833008 	orr	r3, r3, #8
480054c8:	e50b300c 	str	r3, [fp, #-12]
480054cc:	e51b300c 	ldr	r3, [fp, #-12]
480054d0:	e3833003 	orr	r3, r3, #3
480054d4:	e50b300c 	str	r3, [fp, #-12]
480054d8:	e30c3808 	movw	r3, #51208	; 0xc808
480054dc:	e3443801 	movt	r3, #18433	; 0x4801
480054e0:	e5932000 	ldr	r2, [r3]
480054e4:	e51b300c 	ldr	r3, [fp, #-12]
480054e8:	e1821003 	orr	r1, r2, r3
480054ec:	e30c3400 	movw	r3, #50176	; 0xc400
480054f0:	e3443801 	movt	r3, #18433	; 0x4801
480054f4:	e51b2050 	ldr	r2, [fp, #-80]	; 0x50
480054f8:	e7831102 	str	r1, [r3, r2, lsl #2]
480054fc:	e51b3050 	ldr	r3, [fp, #-80]	; 0x50
48005500:	e1a03603 	lsl	r3, r3, #12
48005504:	e50b3008 	str	r3, [fp, #-8]
48005508:	e51b2008 	ldr	r2, [fp, #-8]
4800550c:	e30c3800 	movw	r3, #51200	; 0xc800
48005510:	e3443801 	movt	r3, #18433	; 0x4801
48005514:	e5933000 	ldr	r3, [r3]
48005518:	e0823003 	add	r3, r2, r3
4800551c:	e50b3008 	str	r3, [fp, #-8]
48005520:	e3043000 	movw	r3, #16384	; 0x4000
48005524:	e3443802 	movt	r3, #18434	; 0x4802
48005528:	e3a0200f 	mov	r2, #15
4800552c:	e5832000 	str	r2, [r3]
48005530:	e51b2008 	ldr	r2, [fp, #-8]
48005534:	e3043004 	movw	r3, #16388	; 0x4004
48005538:	e3443802 	movt	r3, #18434	; 0x4802
4800553c:	e5832000 	str	r2, [r3]
48005540:	e3043008 	movw	r3, #16392	; 0x4008
48005544:	e3443802 	movt	r3, #18434	; 0x4802
48005548:	e3a02001 	mov	r2, #1
4800554c:	e5832000 	str	r2, [r3]
48005550:	e3043010 	movw	r3, #16400	; 0x4010
48005554:	e3443802 	movt	r3, #18434	; 0x4802
48005558:	e3a02000 	mov	r2, #0
4800555c:	e5832000 	str	r2, [r3]
48005560:	e30c3000 	movw	r3, #49152	; 0xc000
48005564:	e3443801 	movt	r3, #18433	; 0x4801
48005568:	e3a02000 	mov	r2, #0
4800556c:	e5832000 	str	r2, [r3]
48005570:	e51b3008 	ldr	r3, [fp, #-8]
48005574:	e3a02000 	mov	r2, #0
48005578:	e5832000 	str	r2, [r3]
4800557c:	e51b3058 	ldr	r3, [fp, #-88]	; 0x58
48005580:	e5933000 	ldr	r3, [r3]
48005584:	e2832001 	add	r2, r3, #1
48005588:	e51b3058 	ldr	r3, [fp, #-88]	; 0x58
4800558c:	e5832000 	str	r2, [r3]
48005590:	e30c3000 	movw	r3, #49152	; 0xc000
48005594:	e3443801 	movt	r3, #18433	; 0x4801
48005598:	e5933000 	ldr	r3, [r3]
4800559c:	e3530000 	cmp	r3, #0
480055a0:	0a000005 	beq	480055bc <arm_mmu_page_test_iter+0x27f0>
480055a4:	e51b305c 	ldr	r3, [fp, #-92]	; 0x5c
480055a8:	e5933000 	ldr	r3, [r3]
480055ac:	e2832001 	add	r2, r3, #1
480055b0:	e51b305c 	ldr	r3, [fp, #-92]	; 0x5c
480055b4:	e5832000 	str	r2, [r3]
480055b8:	ea000004 	b	480055d0 <arm_mmu_page_test_iter+0x2804>
480055bc:	e59b3004 	ldr	r3, [fp, #4]
480055c0:	e5933000 	ldr	r3, [r3]
480055c4:	e2832001 	add	r2, r3, #1
480055c8:	e59b3004 	ldr	r3, [fp, #4]
480055cc:	e5832000 	str	r2, [r3]
480055d0:	e51b3058 	ldr	r3, [fp, #-88]	; 0x58
480055d4:	e5933000 	ldr	r3, [r3]
480055d8:	e2832001 	add	r2, r3, #1
480055dc:	e51b3058 	ldr	r3, [fp, #-88]	; 0x58
480055e0:	e5832000 	str	r2, [r3]
480055e4:	e51b3008 	ldr	r3, [fp, #-8]
480055e8:	e5932000 	ldr	r2, [r3]
480055ec:	e30b3abe 	movw	r3, #47806	; 0xbabe
480055f0:	e34c3001 	movt	r3, #49153	; 0xc001
480055f4:	e1520003 	cmp	r2, r3
480055f8:	1a000005 	bne	48005614 <arm_mmu_page_test_iter+0x2848>
480055fc:	e51b305c 	ldr	r3, [fp, #-92]	; 0x5c
48005600:	e5933000 	ldr	r3, [r3]
48005604:	e2832001 	add	r2, r3, #1
48005608:	e51b305c 	ldr	r3, [fp, #-92]	; 0x5c
4800560c:	e5832000 	str	r2, [r3]
48005610:	ea000004 	b	48005628 <arm_mmu_page_test_iter+0x285c>
48005614:	e59b3004 	ldr	r3, [fp, #4]
48005618:	e5933000 	ldr	r3, [r3]
4800561c:	e2832001 	add	r2, r3, #1
48005620:	e59b3004 	ldr	r3, [fp, #4]
48005624:	e5832000 	str	r2, [r3]
48005628:	e3a00000 	mov	r0, #0
4800562c:	e3a01000 	mov	r1, #0
48005630:	ebffeae2 	bl	480001c0 <_switch_to_user_mode>
48005634:	e3043000 	movw	r3, #16384	; 0x4000
48005638:	e3443802 	movt	r3, #18434	; 0x4802
4800563c:	e3a0200f 	mov	r2, #15
48005640:	e5832000 	str	r2, [r3]
48005644:	e51b2008 	ldr	r2, [fp, #-8]
48005648:	e3043004 	movw	r3, #16388	; 0x4004
4800564c:	e3443802 	movt	r3, #18434	; 0x4802
48005650:	e5832000 	str	r2, [r3]
48005654:	e3043008 	movw	r3, #16392	; 0x4008
48005658:	e3443802 	movt	r3, #18434	; 0x4802
4800565c:	e3a02001 	mov	r2, #1
48005660:	e5832000 	str	r2, [r3]
48005664:	e3043010 	movw	r3, #16400	; 0x4010
48005668:	e3443802 	movt	r3, #18434	; 0x4802
4800566c:	e3a02000 	mov	r2, #0
48005670:	e5832000 	str	r2, [r3]
48005674:	e30c3000 	movw	r3, #49152	; 0xc000
48005678:	e3443801 	movt	r3, #18433	; 0x4801
4800567c:	e3a02000 	mov	r2, #0
48005680:	e5832000 	str	r2, [r3]
48005684:	e51b2008 	ldr	r2, [fp, #-8]
48005688:	e30b3abe 	movw	r3, #47806	; 0xbabe
4800568c:	e34c3001 	movt	r3, #49153	; 0xc001
48005690:	e5823000 	str	r3, [r2]
48005694:	e51b3058 	ldr	r3, [fp, #-88]	; 0x58
48005698:	e5933000 	ldr	r3, [r3]
4800569c:	e2832001 	add	r2, r3, #1
480056a0:	e51b3058 	ldr	r3, [fp, #-88]	; 0x58
480056a4:	e5832000 	str	r2, [r3]
480056a8:	e30c3000 	movw	r3, #49152	; 0xc000
480056ac:	e3443801 	movt	r3, #18433	; 0x4801
480056b0:	e5933000 	ldr	r3, [r3]
480056b4:	e3530000 	cmp	r3, #0
480056b8:	0a000005 	beq	480056d4 <arm_mmu_page_test_iter+0x2908>
480056bc:	e51b305c 	ldr	r3, [fp, #-92]	; 0x5c
480056c0:	e5933000 	ldr	r3, [r3]
480056c4:	e2832001 	add	r2, r3, #1
480056c8:	e51b305c 	ldr	r3, [fp, #-92]	; 0x5c
480056cc:	e5832000 	str	r2, [r3]
480056d0:	ea000004 	b	480056e8 <arm_mmu_page_test_iter+0x291c>
480056d4:	e59b3004 	ldr	r3, [fp, #4]
480056d8:	e5933000 	ldr	r3, [r3]
480056dc:	e2832001 	add	r2, r3, #1
480056e0:	e59b3004 	ldr	r3, [fp, #4]
480056e4:	e5832000 	str	r2, [r3]
480056e8:	e51b3058 	ldr	r3, [fp, #-88]	; 0x58
480056ec:	e5933000 	ldr	r3, [r3]
480056f0:	e2832001 	add	r2, r3, #1
480056f4:	e51b3058 	ldr	r3, [fp, #-88]	; 0x58
480056f8:	e5832000 	str	r2, [r3]
480056fc:	e51b3008 	ldr	r3, [fp, #-8]
48005700:	e5932000 	ldr	r2, [r3]
48005704:	e30b3abe 	movw	r3, #47806	; 0xbabe
48005708:	e34c3001 	movt	r3, #49153	; 0xc001
4800570c:	e1520003 	cmp	r2, r3
48005710:	1a000005 	bne	4800572c <arm_mmu_page_test_iter+0x2960>
48005714:	e51b305c 	ldr	r3, [fp, #-92]	; 0x5c
48005718:	e5933000 	ldr	r3, [r3]
4800571c:	e2832001 	add	r2, r3, #1
48005720:	e51b305c 	ldr	r3, [fp, #-92]	; 0x5c
48005724:	e5832000 	str	r2, [r3]
48005728:	ea000004 	b	48005740 <arm_mmu_page_test_iter+0x2974>
4800572c:	e59b3004 	ldr	r3, [fp, #4]
48005730:	e5933000 	ldr	r3, [r3]
48005734:	e2832001 	add	r2, r3, #1
48005738:	e59b3004 	ldr	r3, [fp, #4]
4800573c:	e5832000 	str	r2, [r3]
48005740:	ef000001 	svc	0x00000001
48005744:	e30c3400 	movw	r3, #50176	; 0xc400
48005748:	e3443801 	movt	r3, #18433	; 0x4801
4800574c:	e51b2050 	ldr	r2, [fp, #-80]	; 0x50
48005750:	e3a01000 	mov	r1, #0
48005754:	e7831102 	str	r1, [r3, r2, lsl #2]
48005758:	e3a03000 	mov	r3, #0
4800575c:	e50b3048 	str	r3, [fp, #-72]	; 0x48
48005760:	ee083f17 	mcr	15, 0, r3, cr8, cr7, {0}
48005764:	e50b3048 	str	r3, [fp, #-72]	; 0x48
48005768:	e1a00000 	nop			; (mov r0, r0)
4800576c:	e24bd004 	sub	sp, fp, #4
48005770:	e8bd8800 	pop	{fp, pc}

48005774 <arm_mmu_section_test>:
48005774:	e92d4800 	push	{fp, lr}
48005778:	e28db004 	add	fp, sp, #4
4800577c:	e24dd058 	sub	sp, sp, #88	; 0x58
48005780:	e50b0048 	str	r0, [fp, #-72]	; 0x48
48005784:	e50b104c 	str	r1, [fp, #-76]	; 0x4c
48005788:	e50b2050 	str	r2, [fp, #-80]	; 0x50
4800578c:	e3a03000 	mov	r3, #0
48005790:	e50b3008 	str	r3, [fp, #-8]
48005794:	ee113f10 	mrc	15, 0, r3, cr1, cr0, {0}
48005798:	e50b3014 	str	r3, [fp, #-20]
4800579c:	e51b3014 	ldr	r3, [fp, #-20]
480057a0:	e50b3018 	str	r3, [fp, #-24]
480057a4:	e51b3018 	ldr	r3, [fp, #-24]
480057a8:	e2033001 	and	r3, r3, #1
480057ac:	e3530000 	cmp	r3, #0
480057b0:	1a000001 	bne	480057bc <arm_mmu_section_test+0x48>
480057b4:	e3a03001 	mov	r3, #1
480057b8:	e50b3008 	str	r3, [fp, #-8]
480057bc:	e51b3008 	ldr	r3, [fp, #-8]
480057c0:	e3530000 	cmp	r3, #0
480057c4:	0a000000 	beq	480057cc <arm_mmu_section_test+0x58>
480057c8:	eb0000d7 	bl	48005b2c <arm_mmu_setup>
480057cc:	e51b3048 	ldr	r3, [fp, #-72]	; 0x48
480057d0:	e3a02000 	mov	r2, #0
480057d4:	e5832000 	str	r2, [r3]
480057d8:	e51b304c 	ldr	r3, [fp, #-76]	; 0x4c
480057dc:	e3a02000 	mov	r2, #0
480057e0:	e5832000 	str	r2, [r3]
480057e4:	e51b3050 	ldr	r3, [fp, #-80]	; 0x50
480057e8:	e3a02000 	mov	r2, #0
480057ec:	e5832000 	str	r2, [r3]
480057f0:	e3a03000 	mov	r3, #0
480057f4:	e50b3010 	str	r3, [fp, #-16]
480057f8:	e3a03000 	mov	r3, #0
480057fc:	e50b300c 	str	r3, [fp, #-12]
48005800:	ea000018 	b	48005868 <arm_mmu_section_test+0xf4>
48005804:	e3003000 	movw	r3, #0
48005808:	e3443802 	movt	r3, #18434	; 0x4802
4800580c:	e51b200c 	ldr	r2, [fp, #-12]
48005810:	e7933102 	ldr	r3, [r3, r2, lsl #2]
48005814:	e2033003 	and	r3, r3, #3
48005818:	e3530000 	cmp	r3, #0
4800581c:	1a00000a 	bne	4800584c <arm_mmu_section_test+0xd8>
48005820:	e51b2010 	ldr	r2, [fp, #-16]
48005824:	e3e0303b 	mvn	r3, #59	; 0x3b
48005828:	e1a02102 	lsl	r2, r2, #2
4800582c:	e24b1004 	sub	r1, fp, #4
48005830:	e0812002 	add	r2, r1, r2
48005834:	e0823003 	add	r3, r2, r3
48005838:	e51b200c 	ldr	r2, [fp, #-12]
4800583c:	e5832000 	str	r2, [r3]
48005840:	e51b3010 	ldr	r3, [fp, #-16]
48005844:	e2833001 	add	r3, r3, #1
48005848:	e50b3010 	str	r3, [fp, #-16]
4800584c:	e51b3010 	ldr	r3, [fp, #-16]
48005850:	e353000a 	cmp	r3, #10
48005854:	1a000000 	bne	4800585c <arm_mmu_section_test+0xe8>
48005858:	ea000005 	b	48005874 <arm_mmu_section_test+0x100>
4800585c:	e51b300c 	ldr	r3, [fp, #-12]
48005860:	e2833001 	add	r3, r3, #1
48005864:	e50b300c 	str	r3, [fp, #-12]
48005868:	e51b300c 	ldr	r3, [fp, #-12]
4800586c:	e3530a01 	cmp	r3, #4096	; 0x1000
48005870:	3affffe3 	bcc	48005804 <arm_mmu_section_test+0x90>
48005874:	e3a03000 	mov	r3, #0
48005878:	e50b300c 	str	r3, [fp, #-12]
4800587c:	ea000020 	b	48005904 <arm_mmu_section_test+0x190>
48005880:	e51b200c 	ldr	r2, [fp, #-12]
48005884:	e3e0303b 	mvn	r3, #59	; 0x3b
48005888:	e1a02102 	lsl	r2, r2, #2
4800588c:	e24b1004 	sub	r1, fp, #4
48005890:	e0812002 	add	r2, r1, r2
48005894:	e0823003 	add	r3, r2, r3
48005898:	e5930000 	ldr	r0, [r3]
4800589c:	e51b300c 	ldr	r3, [fp, #-12]
480058a0:	e2831001 	add	r1, r3, #1
480058a4:	e30c3ccd 	movw	r3, #52429	; 0xcccd
480058a8:	e34c3ccc 	movt	r3, #52428	; 0xcccc
480058ac:	e0832193 	umull	r2, r3, r3, r1
480058b0:	e1a021a3 	lsr	r2, r3, #3
480058b4:	e1a03002 	mov	r3, r2
480058b8:	e1a03103 	lsl	r3, r3, #2
480058bc:	e0833002 	add	r3, r3, r2
480058c0:	e1a03083 	lsl	r3, r3, #1
480058c4:	e0632001 	rsb	r2, r3, r1
480058c8:	e3e0303b 	mvn	r3, #59	; 0x3b
480058cc:	e1a02102 	lsl	r2, r2, #2
480058d0:	e24b1004 	sub	r1, fp, #4
480058d4:	e0812002 	add	r2, r1, r2
480058d8:	e0823003 	add	r3, r2, r3
480058dc:	e5933000 	ldr	r3, [r3]
480058e0:	e51b2050 	ldr	r2, [fp, #-80]	; 0x50
480058e4:	e58d2000 	str	r2, [sp]
480058e8:	e1a01003 	mov	r1, r3
480058ec:	e51b2048 	ldr	r2, [fp, #-72]	; 0x48
480058f0:	e51b304c 	ldr	r3, [fp, #-76]	; 0x4c
480058f4:	ebffebe3 	bl	48000888 <arm_mmu_section_test_iter>
480058f8:	e51b300c 	ldr	r3, [fp, #-12]
480058fc:	e2833001 	add	r3, r3, #1
48005900:	e50b300c 	str	r3, [fp, #-12]
48005904:	e51b300c 	ldr	r3, [fp, #-12]
48005908:	e3530009 	cmp	r3, #9
4800590c:	9affffdb 	bls	48005880 <arm_mmu_section_test+0x10c>
48005910:	e51b3008 	ldr	r3, [fp, #-8]
48005914:	e3530000 	cmp	r3, #0
48005918:	0a000000 	beq	48005920 <arm_mmu_section_test+0x1ac>
4800591c:	eb00013f 	bl	48005e20 <arm_mmu_cleanup>
48005920:	e1a00000 	nop			; (mov r0, r0)
48005924:	e24bd004 	sub	sp, fp, #4
48005928:	e8bd8800 	pop	{fp, pc}

4800592c <arm_mmu_page_test>:
4800592c:	e92d4800 	push	{fp, lr}
48005930:	e28db004 	add	fp, sp, #4
48005934:	e24dd058 	sub	sp, sp, #88	; 0x58
48005938:	e50b0048 	str	r0, [fp, #-72]	; 0x48
4800593c:	e50b104c 	str	r1, [fp, #-76]	; 0x4c
48005940:	e50b2050 	str	r2, [fp, #-80]	; 0x50
48005944:	e3a03000 	mov	r3, #0
48005948:	e50b3008 	str	r3, [fp, #-8]
4800594c:	ee113f10 	mrc	15, 0, r3, cr1, cr0, {0}
48005950:	e50b3014 	str	r3, [fp, #-20]
48005954:	e51b3014 	ldr	r3, [fp, #-20]
48005958:	e50b3018 	str	r3, [fp, #-24]
4800595c:	e51b3018 	ldr	r3, [fp, #-24]
48005960:	e2033001 	and	r3, r3, #1
48005964:	e3530000 	cmp	r3, #0
48005968:	1a000001 	bne	48005974 <arm_mmu_page_test+0x48>
4800596c:	e3a03001 	mov	r3, #1
48005970:	e50b3008 	str	r3, [fp, #-8]
48005974:	e51b3008 	ldr	r3, [fp, #-8]
48005978:	e3530000 	cmp	r3, #0
4800597c:	0a000000 	beq	48005984 <arm_mmu_page_test+0x58>
48005980:	eb000069 	bl	48005b2c <arm_mmu_setup>
48005984:	e51b3048 	ldr	r3, [fp, #-72]	; 0x48
48005988:	e3a02000 	mov	r2, #0
4800598c:	e5832000 	str	r2, [r3]
48005990:	e51b304c 	ldr	r3, [fp, #-76]	; 0x4c
48005994:	e3a02000 	mov	r2, #0
48005998:	e5832000 	str	r2, [r3]
4800599c:	e51b3050 	ldr	r3, [fp, #-80]	; 0x50
480059a0:	e3a02000 	mov	r2, #0
480059a4:	e5832000 	str	r2, [r3]
480059a8:	e3a03000 	mov	r3, #0
480059ac:	e50b3010 	str	r3, [fp, #-16]
480059b0:	e3a03000 	mov	r3, #0
480059b4:	e50b300c 	str	r3, [fp, #-12]
480059b8:	ea000018 	b	48005a20 <arm_mmu_page_test+0xf4>
480059bc:	e30c3400 	movw	r3, #50176	; 0xc400
480059c0:	e3443801 	movt	r3, #18433	; 0x4801
480059c4:	e51b200c 	ldr	r2, [fp, #-12]
480059c8:	e7933102 	ldr	r3, [r3, r2, lsl #2]
480059cc:	e2033003 	and	r3, r3, #3
480059d0:	e3530000 	cmp	r3, #0
480059d4:	1a00000a 	bne	48005a04 <arm_mmu_page_test+0xd8>
480059d8:	e51b2010 	ldr	r2, [fp, #-16]
480059dc:	e3e0303b 	mvn	r3, #59	; 0x3b
480059e0:	e1a02102 	lsl	r2, r2, #2
480059e4:	e24b1004 	sub	r1, fp, #4
480059e8:	e0812002 	add	r2, r1, r2
480059ec:	e0823003 	add	r3, r2, r3
480059f0:	e51b200c 	ldr	r2, [fp, #-12]
480059f4:	e5832000 	str	r2, [r3]
480059f8:	e51b3010 	ldr	r3, [fp, #-16]
480059fc:	e2833001 	add	r3, r3, #1
48005a00:	e50b3010 	str	r3, [fp, #-16]
48005a04:	e51b3010 	ldr	r3, [fp, #-16]
48005a08:	e353000a 	cmp	r3, #10
48005a0c:	1a000000 	bne	48005a14 <arm_mmu_page_test+0xe8>
48005a10:	ea000005 	b	48005a2c <arm_mmu_page_test+0x100>
48005a14:	e51b300c 	ldr	r3, [fp, #-12]
48005a18:	e2833001 	add	r3, r3, #1
48005a1c:	e50b300c 	str	r3, [fp, #-12]
48005a20:	e51b300c 	ldr	r3, [fp, #-12]
48005a24:	e35300ff 	cmp	r3, #255	; 0xff
48005a28:	9affffe3 	bls	480059bc <arm_mmu_page_test+0x90>
48005a2c:	e3a03000 	mov	r3, #0
48005a30:	e50b300c 	str	r3, [fp, #-12]
48005a34:	ea000020 	b	48005abc <arm_mmu_page_test+0x190>
48005a38:	e51b200c 	ldr	r2, [fp, #-12]
48005a3c:	e3e0303b 	mvn	r3, #59	; 0x3b
48005a40:	e1a02102 	lsl	r2, r2, #2
48005a44:	e24b1004 	sub	r1, fp, #4
48005a48:	e0812002 	add	r2, r1, r2
48005a4c:	e0823003 	add	r3, r2, r3
48005a50:	e5930000 	ldr	r0, [r3]
48005a54:	e51b300c 	ldr	r3, [fp, #-12]
48005a58:	e2831001 	add	r1, r3, #1
48005a5c:	e30c3ccd 	movw	r3, #52429	; 0xcccd
48005a60:	e34c3ccc 	movt	r3, #52428	; 0xcccc
48005a64:	e0832193 	umull	r2, r3, r3, r1
48005a68:	e1a021a3 	lsr	r2, r3, #3
48005a6c:	e1a03002 	mov	r3, r2
48005a70:	e1a03103 	lsl	r3, r3, #2
48005a74:	e0833002 	add	r3, r3, r2
48005a78:	e1a03083 	lsl	r3, r3, #1
48005a7c:	e0632001 	rsb	r2, r3, r1
48005a80:	e3e0303b 	mvn	r3, #59	; 0x3b
48005a84:	e1a02102 	lsl	r2, r2, #2
48005a88:	e24b1004 	sub	r1, fp, #4
48005a8c:	e0812002 	add	r2, r1, r2
48005a90:	e0823003 	add	r3, r2, r3
48005a94:	e5933000 	ldr	r3, [r3]
48005a98:	e51b2050 	ldr	r2, [fp, #-80]	; 0x50
48005a9c:	e58d2000 	str	r2, [sp]
48005aa0:	e1a01003 	mov	r1, r3
48005aa4:	e51b2048 	ldr	r2, [fp, #-72]	; 0x48
48005aa8:	e51b304c 	ldr	r3, [fp, #-76]	; 0x4c
48005aac:	ebfff4c6 	bl	48002dcc <arm_mmu_page_test_iter>
48005ab0:	e51b300c 	ldr	r3, [fp, #-12]
48005ab4:	e2833001 	add	r3, r3, #1
48005ab8:	e50b300c 	str	r3, [fp, #-12]
48005abc:	e51b300c 	ldr	r3, [fp, #-12]
48005ac0:	e3530009 	cmp	r3, #9
48005ac4:	9affffdb 	bls	48005a38 <arm_mmu_page_test+0x10c>
48005ac8:	e51b3008 	ldr	r3, [fp, #-8]
48005acc:	e3530000 	cmp	r3, #0
48005ad0:	0a000000 	beq	48005ad8 <arm_mmu_page_test+0x1ac>
48005ad4:	eb0000d1 	bl	48005e20 <arm_mmu_cleanup>
48005ad8:	e1a00000 	nop			; (mov r0, r0)
48005adc:	e24bd004 	sub	sp, fp, #4
48005ae0:	e8bd8800 	pop	{fp, pc}

48005ae4 <arm_mmu_is_enabled>:
48005ae4:	e52db004 	push	{fp}		; (str fp, [sp, #-4]!)
48005ae8:	e28db000 	add	fp, sp, #0
48005aec:	e24dd00c 	sub	sp, sp, #12
48005af0:	ee113f10 	mrc	15, 0, r3, cr1, cr0, {0}
48005af4:	e50b3008 	str	r3, [fp, #-8]
48005af8:	e51b3008 	ldr	r3, [fp, #-8]
48005afc:	e50b300c 	str	r3, [fp, #-12]
48005b00:	e51b300c 	ldr	r3, [fp, #-12]
48005b04:	e2033001 	and	r3, r3, #1
48005b08:	e3530000 	cmp	r3, #0
48005b0c:	0a000001 	beq	48005b18 <arm_mmu_is_enabled+0x34>
48005b10:	e3a03001 	mov	r3, #1
48005b14:	ea000000 	b	48005b1c <arm_mmu_is_enabled+0x38>
48005b18:	e3a03000 	mov	r3, #0
48005b1c:	e1a00003 	mov	r0, r3
48005b20:	e24bd000 	sub	sp, fp, #0
48005b24:	e49db004 	pop	{fp}		; (ldr fp, [sp], #4)
48005b28:	e12fff1e 	bx	lr

48005b2c <arm_mmu_setup>:
48005b2c:	e92d4800 	push	{fp, lr}
48005b30:	e28db004 	add	fp, sp, #4
48005b34:	e24dd020 	sub	sp, sp, #32
48005b38:	e3a03000 	mov	r3, #0
48005b3c:	e50b3010 	str	r3, [fp, #-16]
48005b40:	e3a03000 	mov	r3, #0
48005b44:	e50b3014 	str	r3, [fp, #-20]
48005b48:	e3a03000 	mov	r3, #0
48005b4c:	e50b3018 	str	r3, [fp, #-24]
48005b50:	ee113f10 	mrc	15, 0, r3, cr1, cr0, {0}
48005b54:	e50b301c 	str	r3, [fp, #-28]
48005b58:	e51b301c 	ldr	r3, [fp, #-28]
48005b5c:	e50b3020 	str	r3, [fp, #-32]
48005b60:	e51b3020 	ldr	r3, [fp, #-32]
48005b64:	e2033001 	and	r3, r3, #1
48005b68:	e3530000 	cmp	r3, #0
48005b6c:	0a000000 	beq	48005b74 <arm_mmu_setup+0x48>
48005b70:	ea0000a8 	b	48005e18 <arm_mmu_setup+0x2ec>
48005b74:	e3a03000 	mov	r3, #0
48005b78:	e50b300c 	str	r3, [fp, #-12]
48005b7c:	ea000007 	b	48005ba0 <arm_mmu_setup+0x74>
48005b80:	e30c3400 	movw	r3, #50176	; 0xc400
48005b84:	e3443801 	movt	r3, #18433	; 0x4801
48005b88:	e51b200c 	ldr	r2, [fp, #-12]
48005b8c:	e3a01000 	mov	r1, #0
48005b90:	e7831102 	str	r1, [r3, r2, lsl #2]
48005b94:	e51b300c 	ldr	r3, [fp, #-12]
48005b98:	e2833001 	add	r3, r3, #1
48005b9c:	e50b300c 	str	r3, [fp, #-12]
48005ba0:	e51b300c 	ldr	r3, [fp, #-12]
48005ba4:	e35300ff 	cmp	r3, #255	; 0xff
48005ba8:	9afffff4 	bls	48005b80 <arm_mmu_setup+0x54>
48005bac:	e3a03000 	mov	r3, #0
48005bb0:	e50b300c 	str	r3, [fp, #-12]
48005bb4:	ea000007 	b	48005bd8 <arm_mmu_setup+0xac>
48005bb8:	e3003000 	movw	r3, #0
48005bbc:	e3443802 	movt	r3, #18434	; 0x4802
48005bc0:	e51b200c 	ldr	r2, [fp, #-12]
48005bc4:	e3a01000 	mov	r1, #0
48005bc8:	e7831102 	str	r1, [r3, r2, lsl #2]
48005bcc:	e51b300c 	ldr	r3, [fp, #-12]
48005bd0:	e2833001 	add	r3, r3, #1
48005bd4:	e50b300c 	str	r3, [fp, #-12]
48005bd8:	e51b300c 	ldr	r3, [fp, #-12]
48005bdc:	e3530a01 	cmp	r3, #4096	; 0x1000
48005be0:	3afffff4 	bcc	48005bb8 <arm_mmu_setup+0x8c>
48005be4:	e3a03000 	mov	r3, #0
48005be8:	e50b3010 	str	r3, [fp, #-16]
48005bec:	e51b3010 	ldr	r3, [fp, #-16]
48005bf0:	e3833b03 	orr	r3, r3, #3072	; 0xc00
48005bf4:	e50b3010 	str	r3, [fp, #-16]
48005bf8:	e51b3010 	ldr	r3, [fp, #-16]
48005bfc:	e3833008 	orr	r3, r3, #8
48005c00:	e50b3010 	str	r3, [fp, #-16]
48005c04:	e51b3010 	ldr	r3, [fp, #-16]
48005c08:	e3833002 	orr	r3, r3, #2
48005c0c:	e50b3010 	str	r3, [fp, #-16]
48005c10:	e3003000 	movw	r3, #0
48005c14:	e3443800 	movt	r3, #18432	; 0x4800
48005c18:	e1a03a23 	lsr	r3, r3, #20
48005c1c:	e1a03a03 	lsl	r3, r3, #20
48005c20:	e50b3014 	str	r3, [fp, #-20]
48005c24:	e30f3824 	movw	r3, #63524	; 0xf824
48005c28:	e3443802 	movt	r3, #18434	; 0x4802
48005c2c:	e1a03a23 	lsr	r3, r3, #20
48005c30:	e1a03a03 	lsl	r3, r3, #20
48005c34:	e50b3018 	str	r3, [fp, #-24]
48005c38:	e51b3014 	ldr	r3, [fp, #-20]
48005c3c:	e50b300c 	str	r3, [fp, #-12]
48005c40:	ea00000a 	b	48005c70 <arm_mmu_setup+0x144>
48005c44:	e51b300c 	ldr	r3, [fp, #-12]
48005c48:	e1a02a23 	lsr	r2, r3, #20
48005c4c:	e51b1010 	ldr	r1, [fp, #-16]
48005c50:	e51b300c 	ldr	r3, [fp, #-12]
48005c54:	e1811003 	orr	r1, r1, r3
48005c58:	e3003000 	movw	r3, #0
48005c5c:	e3443802 	movt	r3, #18434	; 0x4802
48005c60:	e7831102 	str	r1, [r3, r2, lsl #2]
48005c64:	e51b300c 	ldr	r3, [fp, #-12]
48005c68:	e2833601 	add	r3, r3, #1048576	; 0x100000
48005c6c:	e50b300c 	str	r3, [fp, #-12]
48005c70:	e51b200c 	ldr	r2, [fp, #-12]
48005c74:	e51b3018 	ldr	r3, [fp, #-24]
48005c78:	e1520003 	cmp	r2, r3
48005c7c:	9afffff0 	bls	48005c44 <arm_mmu_setup+0x118>
48005c80:	e51b3018 	ldr	r3, [fp, #-24]
48005c84:	e2833601 	add	r3, r3, #1048576	; 0x100000
48005c88:	e50b3018 	str	r3, [fp, #-24]
48005c8c:	e51b3014 	ldr	r3, [fp, #-20]
48005c90:	e3530000 	cmp	r3, #0
48005c94:	0a000003 	beq	48005ca8 <arm_mmu_setup+0x17c>
48005c98:	e3003000 	movw	r3, #0
48005c9c:	e3443802 	movt	r3, #18434	; 0x4802
48005ca0:	e51b2010 	ldr	r2, [fp, #-16]
48005ca4:	e5832000 	str	r2, [r3]
48005ca8:	e51b3018 	ldr	r3, [fp, #-24]
48005cac:	e50b300c 	str	r3, [fp, #-12]
48005cb0:	e51b300c 	ldr	r3, [fp, #-12]
48005cb4:	e1a02a23 	lsr	r2, r3, #20
48005cb8:	e51b1010 	ldr	r1, [fp, #-16]
48005cbc:	e51b300c 	ldr	r3, [fp, #-12]
48005cc0:	e1811003 	orr	r1, r1, r3
48005cc4:	e3003000 	movw	r3, #0
48005cc8:	e3443802 	movt	r3, #18434	; 0x4802
48005ccc:	e7831102 	str	r1, [r3, r2, lsl #2]
48005cd0:	e51b3018 	ldr	r3, [fp, #-24]
48005cd4:	e2833601 	add	r3, r3, #1048576	; 0x100000
48005cd8:	e50b3018 	str	r3, [fp, #-24]
48005cdc:	e51b3010 	ldr	r3, [fp, #-16]
48005ce0:	e3c33008 	bic	r3, r3, #8
48005ce4:	e50b3010 	str	r3, [fp, #-16]
48005ce8:	e51b3010 	ldr	r3, [fp, #-16]
48005cec:	e3833010 	orr	r3, r3, #16
48005cf0:	e50b3010 	str	r3, [fp, #-16]
48005cf4:	e3a03000 	mov	r3, #0
48005cf8:	e50b3008 	str	r3, [fp, #-8]
48005cfc:	ea000011 	b	48005d48 <arm_mmu_setup+0x21c>
48005d00:	e51b3008 	ldr	r3, [fp, #-8]
48005d04:	e1a00003 	mov	r0, r3
48005d08:	eb0000c9 	bl	48006034 <arm_board_iosection_addr>
48005d0c:	e1a03000 	mov	r3, r0
48005d10:	e1a03a23 	lsr	r3, r3, #20
48005d14:	e1a03a03 	lsl	r3, r3, #20
48005d18:	e50b300c 	str	r3, [fp, #-12]
48005d1c:	e51b300c 	ldr	r3, [fp, #-12]
48005d20:	e1a02a23 	lsr	r2, r3, #20
48005d24:	e51b1010 	ldr	r1, [fp, #-16]
48005d28:	e51b300c 	ldr	r3, [fp, #-12]
48005d2c:	e1811003 	orr	r1, r1, r3
48005d30:	e3003000 	movw	r3, #0
48005d34:	e3443802 	movt	r3, #18434	; 0x4802
48005d38:	e7831102 	str	r1, [r3, r2, lsl #2]
48005d3c:	e51b3008 	ldr	r3, [fp, #-8]
48005d40:	e2833001 	add	r3, r3, #1
48005d44:	e50b3008 	str	r3, [fp, #-8]
48005d48:	eb0000b2 	bl	48006018 <arm_board_iosection_count>
48005d4c:	e1a02000 	mov	r2, r0
48005d50:	e51b3008 	ldr	r3, [fp, #-8]
48005d54:	e1520003 	cmp	r2, r3
48005d58:	8affffe8 	bhi	48005d00 <arm_mmu_setup+0x1d4>
48005d5c:	e3a03000 	mov	r3, #0
48005d60:	e50b3010 	str	r3, [fp, #-16]
48005d64:	e51b3010 	ldr	r3, [fp, #-16]
48005d68:	e3833001 	orr	r3, r3, #1
48005d6c:	e50b3010 	str	r3, [fp, #-16]
48005d70:	e30c3800 	movw	r3, #51200	; 0xc800
48005d74:	e3443801 	movt	r3, #18433	; 0x4801
48005d78:	e51b2018 	ldr	r2, [fp, #-24]
48005d7c:	e5832000 	str	r2, [r3]
48005d80:	e30c3800 	movw	r3, #51200	; 0xc800
48005d84:	e3443801 	movt	r3, #18433	; 0x4801
48005d88:	e5933000 	ldr	r3, [r3]
48005d8c:	e1a02a23 	lsr	r2, r3, #20
48005d90:	e30c3400 	movw	r3, #50176	; 0xc400
48005d94:	e3443801 	movt	r3, #18433	; 0x4801
48005d98:	e51b1010 	ldr	r1, [fp, #-16]
48005d9c:	e1831001 	orr	r1, r3, r1
48005da0:	e3003000 	movw	r3, #0
48005da4:	e3443802 	movt	r3, #18434	; 0x4802
48005da8:	e7831102 	str	r1, [r3, r2, lsl #2]
48005dac:	e30c3808 	movw	r3, #51208	; 0xc808
48005db0:	e3443801 	movt	r3, #18433	; 0x4801
48005db4:	e51b2018 	ldr	r2, [fp, #-24]
48005db8:	e5832000 	str	r2, [r3]
48005dbc:	e30c3804 	movw	r3, #51204	; 0xc804
48005dc0:	e3443801 	movt	r3, #18433	; 0x4801
48005dc4:	e3a02601 	mov	r2, #1048576	; 0x100000
48005dc8:	e5832000 	str	r2, [r3]
48005dcc:	e3a03000 	mov	r3, #0
48005dd0:	e50b300c 	str	r3, [fp, #-12]
48005dd4:	e51b300c 	ldr	r3, [fp, #-12]
48005dd8:	e3833001 	orr	r3, r3, #1
48005ddc:	e50b300c 	str	r3, [fp, #-12]
48005de0:	e51b300c 	ldr	r3, [fp, #-12]
48005de4:	e383300c 	orr	r3, r3, #12
48005de8:	e50b300c 	str	r3, [fp, #-12]
48005dec:	e51b300c 	ldr	r3, [fp, #-12]
48005df0:	ee033f10 	mcr	15, 0, r3, cr3, cr0, {0}
48005df4:	e3003000 	movw	r3, #0
48005df8:	e3443802 	movt	r3, #18434	; 0x4802
48005dfc:	ee023f10 	mcr	15, 0, r3, cr2, cr0, {0}
48005e00:	e51b3020 	ldr	r3, [fp, #-32]
48005e04:	e3833001 	orr	r3, r3, #1
48005e08:	e50b3020 	str	r3, [fp, #-32]
48005e0c:	e51b3020 	ldr	r3, [fp, #-32]
48005e10:	ee013f10 	mcr	15, 0, r3, cr1, cr0, {0}
48005e14:	e1a00000 	nop			; (mov r0, r0)
48005e18:	e24bd004 	sub	sp, fp, #4
48005e1c:	e8bd8800 	pop	{fp, pc}

48005e20 <arm_mmu_cleanup>:
48005e20:	e52db004 	push	{fp}		; (str fp, [sp, #-4]!)
48005e24:	e28db000 	add	fp, sp, #0
48005e28:	e24dd00c 	sub	sp, sp, #12
48005e2c:	ee113f10 	mrc	15, 0, r3, cr1, cr0, {0}
48005e30:	e50b3008 	str	r3, [fp, #-8]
48005e34:	e51b3008 	ldr	r3, [fp, #-8]
48005e38:	e50b300c 	str	r3, [fp, #-12]
48005e3c:	e51b300c 	ldr	r3, [fp, #-12]
48005e40:	e2033001 	and	r3, r3, #1
48005e44:	e3530000 	cmp	r3, #0
48005e48:	1a000000 	bne	48005e50 <arm_mmu_cleanup+0x30>
48005e4c:	ea000005 	b	48005e68 <arm_mmu_cleanup+0x48>
48005e50:	e51b300c 	ldr	r3, [fp, #-12]
48005e54:	e3c33001 	bic	r3, r3, #1
48005e58:	e50b300c 	str	r3, [fp, #-12]
48005e5c:	e51b300c 	ldr	r3, [fp, #-12]
48005e60:	ee013f10 	mcr	15, 0, r3, cr1, cr0, {0}
48005e64:	e1a00000 	nop			; (mov r0, r0)
48005e68:	e24bd000 	sub	sp, fp, #0
48005e6c:	e49db004 	pop	{fp}		; (ldr fp, [sp], #4)
48005e70:	e12fff1e 	bx	lr

48005e74 <arm_readl>:
48005e74:	e52db004 	push	{fp}		; (str fp, [sp, #-4]!)
48005e78:	e28db000 	add	fp, sp, #0
48005e7c:	e24dd00c 	sub	sp, sp, #12
48005e80:	e50b0008 	str	r0, [fp, #-8]
48005e84:	e51b3008 	ldr	r3, [fp, #-8]
48005e88:	e5933000 	ldr	r3, [r3]
48005e8c:	e1a00003 	mov	r0, r3
48005e90:	e24bd000 	sub	sp, fp, #0
48005e94:	e49db004 	pop	{fp}		; (ldr fp, [sp], #4)
48005e98:	e12fff1e 	bx	lr

48005e9c <arm_writel>:
48005e9c:	e52db004 	push	{fp}		; (str fp, [sp, #-4]!)
48005ea0:	e28db000 	add	fp, sp, #0
48005ea4:	e24dd00c 	sub	sp, sp, #12
48005ea8:	e50b0008 	str	r0, [fp, #-8]
48005eac:	e50b100c 	str	r1, [fp, #-12]
48005eb0:	e51b300c 	ldr	r3, [fp, #-12]
48005eb4:	e51b2008 	ldr	r2, [fp, #-8]
48005eb8:	e5832000 	str	r2, [r3]
48005ebc:	e24bd000 	sub	sp, fp, #0
48005ec0:	e49db004 	pop	{fp}		; (ldr fp, [sp], #4)
48005ec4:	e12fff1e 	bx	lr

48005ec8 <arm_udiv64>:
48005ec8:	e92d4800 	push	{fp, lr}
48005ecc:	e28db004 	add	fp, sp, #4
48005ed0:	e24dd018 	sub	sp, sp, #24
48005ed4:	e14b00fc 	strd	r0, [fp, #-12]
48005ed8:	e14b21f4 	strd	r2, [fp, #-20]	; 0xffffffec
48005edc:	e3a03000 	mov	r3, #0
48005ee0:	e58d3000 	str	r3, [sp]
48005ee4:	e14b00dc 	ldrd	r0, [fp, #-12]
48005ee8:	e14b21d4 	ldrd	r2, [fp, #-20]	; 0xffffffec
48005eec:	eb001652 	bl	4800b83c <do_udiv64>
48005ef0:	e1a02000 	mov	r2, r0
48005ef4:	e1a03001 	mov	r3, r1
48005ef8:	e1a00002 	mov	r0, r2
48005efc:	e1a01003 	mov	r1, r3
48005f00:	e24bd004 	sub	sp, fp, #4
48005f04:	e8bd8800 	pop	{fp, pc}

48005f08 <arm_board_reset>:
48005f08:	e92d4800 	push	{fp, lr}
48005f0c:	e28db004 	add	fp, sp, #4
48005f10:	e3e00000 	mvn	r0, #0
48005f14:	e3a01034 	mov	r1, #52	; 0x34
48005f18:	e3411000 	movt	r1, #4096	; 0x1000
48005f1c:	ebffffde 	bl	48005e9c <arm_writel>
48005f20:	e3a00000 	mov	r0, #0
48005f24:	e3a01030 	mov	r1, #48	; 0x30
48005f28:	e3411000 	movt	r1, #4096	; 0x1000
48005f2c:	ebffffda 	bl	48005e9c <arm_writel>
48005f30:	e3a00000 	mov	r0, #0
48005f34:	e34c0090 	movt	r0, #49296	; 0xc090
48005f38:	e3a010a4 	mov	r1, #164	; 0xa4
48005f3c:	e3411000 	movt	r1, #4096	; 0x1000
48005f40:	ebffffd5 	bl	48005e9c <arm_writel>
48005f44:	e8bd8800 	pop	{fp, pc}

48005f48 <arm_board_init>:
48005f48:	e52db004 	push	{fp}		; (str fp, [sp, #-4]!)
48005f4c:	e28db000 	add	fp, sp, #0
48005f50:	e24bd000 	sub	sp, fp, #0
48005f54:	e49db004 	pop	{fp}		; (ldr fp, [sp], #4)
48005f58:	e12fff1e 	bx	lr

48005f5c <arm_board_name>:
48005f5c:	e52db004 	push	{fp}		; (str fp, [sp, #-4]!)
48005f60:	e28db000 	add	fp, sp, #0
48005f64:	e3053140 	movw	r3, #20800	; 0x5140
48005f68:	e3443801 	movt	r3, #18433	; 0x4801
48005f6c:	e1a00003 	mov	r0, r3
48005f70:	e24bd000 	sub	sp, fp, #0
48005f74:	e49db004 	pop	{fp}		; (ldr fp, [sp], #4)
48005f78:	e12fff1e 	bx	lr

48005f7c <arm_board_ram_start>:
48005f7c:	e52db004 	push	{fp}		; (str fp, [sp, #-4]!)
48005f80:	e28db000 	add	fp, sp, #0
48005f84:	e3a03206 	mov	r3, #1610612736	; 0x60000000
48005f88:	e1a00003 	mov	r0, r3
48005f8c:	e24bd000 	sub	sp, fp, #0
48005f90:	e49db004 	pop	{fp}		; (ldr fp, [sp], #4)
48005f94:	e12fff1e 	bx	lr

48005f98 <arm_board_ram_size>:
48005f98:	e52db004 	push	{fp}		; (str fp, [sp, #-4]!)
48005f9c:	e28db000 	add	fp, sp, #0
48005fa0:	e3a03406 	mov	r3, #100663296	; 0x6000000
48005fa4:	e1a00003 	mov	r0, r3
48005fa8:	e24bd000 	sub	sp, fp, #0
48005fac:	e49db004 	pop	{fp}		; (ldr fp, [sp], #4)
48005fb0:	e12fff1e 	bx	lr

48005fb4 <arm_board_linux_machine_type>:
48005fb4:	e52db004 	push	{fp}		; (str fp, [sp, #-4]!)
48005fb8:	e28db000 	add	fp, sp, #0
48005fbc:	e3a03e8e 	mov	r3, #2272	; 0x8e0
48005fc0:	e1a00003 	mov	r0, r3
48005fc4:	e24bd000 	sub	sp, fp, #0
48005fc8:	e49db004 	pop	{fp}		; (ldr fp, [sp], #4)
48005fcc:	e12fff1e 	bx	lr

48005fd0 <arm_board_linux_default_cmdline>:
48005fd0:	e92d4800 	push	{fp, lr}
48005fd4:	e28db004 	add	fp, sp, #4
48005fd8:	e24dd008 	sub	sp, sp, #8
48005fdc:	e50b0008 	str	r0, [fp, #-8]
48005fe0:	e50b100c 	str	r1, [fp, #-12]
48005fe4:	e51b0008 	ldr	r0, [fp, #-8]
48005fe8:	e3051150 	movw	r1, #20816	; 0x5150
48005fec:	e3441801 	movt	r1, #18433	; 0x4801
48005ff0:	eb001354 	bl	4800ad48 <arm_strcpy>
48005ff4:	e24bd004 	sub	sp, fp, #4
48005ff8:	e8bd8800 	pop	{fp, pc}

48005ffc <arm_board_flash_addr>:
48005ffc:	e52db004 	push	{fp}		; (str fp, [sp, #-4]!)
48006000:	e28db000 	add	fp, sp, #0
48006004:	e3a03101 	mov	r3, #1073741824	; 0x40000000
48006008:	e1a00003 	mov	r0, r3
4800600c:	e24bd000 	sub	sp, fp, #0
48006010:	e49db004 	pop	{fp}		; (ldr fp, [sp], #4)
48006014:	e12fff1e 	bx	lr

48006018 <arm_board_iosection_count>:
48006018:	e52db004 	push	{fp}		; (str fp, [sp, #-4]!)
4800601c:	e28db000 	add	fp, sp, #0
48006020:	e3a03006 	mov	r3, #6
48006024:	e1a00003 	mov	r0, r3
48006028:	e24bd000 	sub	sp, fp, #0
4800602c:	e49db004 	pop	{fp}		; (ldr fp, [sp], #4)
48006030:	e12fff1e 	bx	lr

48006034 <arm_board_iosection_addr>:
48006034:	e52db004 	push	{fp}		; (str fp, [sp, #-4]!)
48006038:	e28db000 	add	fp, sp, #0
4800603c:	e24dd014 	sub	sp, sp, #20
48006040:	e50b0010 	str	r0, [fp, #-16]
48006044:	e3a03000 	mov	r3, #0
48006048:	e50b3008 	str	r3, [fp, #-8]
4800604c:	e51b3010 	ldr	r3, [fp, #-16]
48006050:	e3530005 	cmp	r3, #5
48006054:	979ff103 	ldrls	pc, [pc, r3, lsl #2]
48006058:	ea000011 	b	480060a4 <arm_board_iosection_addr+0x70>
4800605c:	48006074 	.word	0x48006074
48006060:	48006080 	.word	0x48006080
48006064:	4800608c 	.word	0x4800608c
48006068:	4800608c 	.word	0x4800608c
4800606c:	4800608c 	.word	0x4800608c
48006070:	4800608c 	.word	0x4800608c
48006074:	e3a03201 	mov	r3, #268435456	; 0x10000000
48006078:	e50b3008 	str	r3, [fp, #-8]
4800607c:	ea000009 	b	480060a8 <arm_board_iosection_addr+0x74>
48006080:	e3a0341e 	mov	r3, #503316480	; 0x1e000000
48006084:	e50b3008 	str	r3, [fp, #-8]
48006088:	ea000006 	b	480060a8 <arm_board_iosection_addr+0x74>
4800608c:	e51b3010 	ldr	r3, [fp, #-16]
48006090:	e2833fff 	add	r3, r3, #1020	; 0x3fc
48006094:	e2833002 	add	r3, r3, #2
48006098:	e1a03a03 	lsl	r3, r3, #20
4800609c:	e50b3008 	str	r3, [fp, #-8]
480060a0:	ea000000 	b	480060a8 <arm_board_iosection_addr+0x74>
480060a4:	eafffffe 	b	480060a4 <arm_board_iosection_addr+0x70>
480060a8:	e51b3008 	ldr	r3, [fp, #-8]
480060ac:	e1a00003 	mov	r0, r3
480060b0:	e24bd000 	sub	sp, fp, #0
480060b4:	e49db004 	pop	{fp}		; (ldr fp, [sp], #4)
480060b8:	e12fff1e 	bx	lr

480060bc <arm_board_pic_nr_irqs>:
480060bc:	e52db004 	push	{fp}		; (str fp, [sp, #-4]!)
480060c0:	e28db000 	add	fp, sp, #0
480060c4:	e3a03080 	mov	r3, #128	; 0x80
480060c8:	e1a00003 	mov	r0, r3
480060cc:	e24bd000 	sub	sp, fp, #0
480060d0:	e49db004 	pop	{fp}		; (ldr fp, [sp], #4)
480060d4:	e12fff1e 	bx	lr

480060d8 <arm_board_pic_init>:
480060d8:	e92d4800 	push	{fp, lr}
480060dc:	e28db004 	add	fp, sp, #4
480060e0:	e24dd008 	sub	sp, sp, #8
480060e4:	e3a00000 	mov	r0, #0
480060e8:	e3a01a01 	mov	r1, #4096	; 0x1000
480060ec:	e3411e00 	movt	r1, #7680	; 0x1e00
480060f0:	e3a0201d 	mov	r2, #29
480060f4:	eb0001ed 	bl	480068b0 <gic_dist_init>
480060f8:	e50b0008 	str	r0, [fp, #-8]
480060fc:	e51b3008 	ldr	r3, [fp, #-8]
48006100:	e3530000 	cmp	r3, #0
48006104:	0a000001 	beq	48006110 <arm_board_pic_init+0x38>
48006108:	e51b3008 	ldr	r3, [fp, #-8]
4800610c:	ea00000a 	b	4800613c <arm_board_pic_init+0x64>
48006110:	e3a00000 	mov	r0, #0
48006114:	e3a01c01 	mov	r1, #256	; 0x100
48006118:	e3411e00 	movt	r1, #7680	; 0x1e00
4800611c:	eb000279 	bl	48006b08 <gic_cpu_init>
48006120:	e50b0008 	str	r0, [fp, #-8]
48006124:	e51b3008 	ldr	r3, [fp, #-8]
48006128:	e3530000 	cmp	r3, #0
4800612c:	0a000001 	beq	48006138 <arm_board_pic_init+0x60>
48006130:	e51b3008 	ldr	r3, [fp, #-8]
48006134:	ea000000 	b	4800613c <arm_board_pic_init+0x64>
48006138:	e3a03000 	mov	r3, #0
4800613c:	e1a00003 	mov	r0, r3
48006140:	e24bd004 	sub	sp, fp, #4
48006144:	e8bd8800 	pop	{fp, pc}

48006148 <arm_board_pic_active_irq>:
48006148:	e92d4800 	push	{fp, lr}
4800614c:	e28db004 	add	fp, sp, #4
48006150:	e3a00000 	mov	r0, #0
48006154:	eb0000f2 	bl	48006524 <gic_active_irq>
48006158:	e1a03000 	mov	r3, r0
4800615c:	e1a00003 	mov	r0, r3
48006160:	e8bd8800 	pop	{fp, pc}

48006164 <arm_board_pic_ack_irq>:
48006164:	e52db004 	push	{fp}		; (str fp, [sp, #-4]!)
48006168:	e28db000 	add	fp, sp, #0
4800616c:	e24dd00c 	sub	sp, sp, #12
48006170:	e50b0008 	str	r0, [fp, #-8]
48006174:	e3a03000 	mov	r3, #0
48006178:	e1a00003 	mov	r0, r3
4800617c:	e24bd000 	sub	sp, fp, #0
48006180:	e49db004 	pop	{fp}		; (ldr fp, [sp], #4)
48006184:	e12fff1e 	bx	lr

48006188 <arm_board_pic_eoi_irq>:
48006188:	e92d4800 	push	{fp, lr}
4800618c:	e28db004 	add	fp, sp, #4
48006190:	e24dd008 	sub	sp, sp, #8
48006194:	e50b0008 	str	r0, [fp, #-8]
48006198:	e3a00000 	mov	r0, #0
4800619c:	e51b1008 	ldr	r1, [fp, #-8]
480061a0:	eb00010b 	bl	480065d4 <gic_eoi_irq>
480061a4:	e1a03000 	mov	r3, r0
480061a8:	e1a00003 	mov	r0, r3
480061ac:	e24bd004 	sub	sp, fp, #4
480061b0:	e8bd8800 	pop	{fp, pc}

480061b4 <arm_board_pic_mask>:
480061b4:	e92d4800 	push	{fp, lr}
480061b8:	e28db004 	add	fp, sp, #4
480061bc:	e24dd008 	sub	sp, sp, #8
480061c0:	e50b0008 	str	r0, [fp, #-8]
480061c4:	e3a00000 	mov	r0, #0
480061c8:	e51b1008 	ldr	r1, [fp, #-8]
480061cc:	eb000137 	bl	480066b0 <gic_mask>
480061d0:	e1a03000 	mov	r3, r0
480061d4:	e1a00003 	mov	r0, r3
480061d8:	e24bd004 	sub	sp, fp, #4
480061dc:	e8bd8800 	pop	{fp, pc}

480061e0 <arm_board_pic_unmask>:
480061e0:	e92d4800 	push	{fp, lr}
480061e4:	e28db004 	add	fp, sp, #4
480061e8:	e24dd008 	sub	sp, sp, #8
480061ec:	e50b0008 	str	r0, [fp, #-8]
480061f0:	e3a00000 	mov	r0, #0
480061f4:	e51b1008 	ldr	r1, [fp, #-8]
480061f8:	eb00016c 	bl	480067b0 <gic_unmask>
480061fc:	e1a03000 	mov	r3, r0
48006200:	e1a00003 	mov	r0, r3
48006204:	e24bd004 	sub	sp, fp, #4
48006208:	e8bd8800 	pop	{fp, pc}

4800620c <arm_board_timer_enable>:
4800620c:	e92d4800 	push	{fp, lr}
48006210:	e28db004 	add	fp, sp, #4
48006214:	eb000272 	bl	48006be4 <sp804_enable>
48006218:	e1a00000 	nop			; (mov r0, r0)
4800621c:	e8bd8800 	pop	{fp, pc}

48006220 <arm_board_timer_disable>:
48006220:	e92d4800 	push	{fp, lr}
48006224:	e28db004 	add	fp, sp, #4
48006228:	eb000283 	bl	48006c3c <sp804_disable>
4800622c:	e1a00000 	nop			; (mov r0, r0)
48006230:	e8bd8800 	pop	{fp, pc}

48006234 <arm_board_timer_irqcount>:
48006234:	e92d4800 	push	{fp, lr}
48006238:	e28db004 	add	fp, sp, #4
4800623c:	eb0002a0 	bl	48006cc4 <sp804_irqcount>
48006240:	e1a02000 	mov	r2, r0
48006244:	e1a03001 	mov	r3, r1
48006248:	e1a00002 	mov	r0, r2
4800624c:	e1a01003 	mov	r1, r3
48006250:	e8bd8800 	pop	{fp, pc}

48006254 <arm_board_timer_irqdelay>:
48006254:	e92d4800 	push	{fp, lr}
48006258:	e28db004 	add	fp, sp, #4
4800625c:	eb0002a2 	bl	48006cec <sp804_irqdelay>
48006260:	e1a02000 	mov	r2, r0
48006264:	e1a03001 	mov	r3, r1
48006268:	e1a00002 	mov	r0, r2
4800626c:	e1a01003 	mov	r1, r3
48006270:	e8bd8800 	pop	{fp, pc}

48006274 <arm_board_timer_timestamp>:
48006274:	e92d4800 	push	{fp, lr}
48006278:	e28db004 	add	fp, sp, #4
4800627c:	eb0002a4 	bl	48006d14 <sp804_timestamp>
48006280:	e1a02000 	mov	r2, r0
48006284:	e1a03001 	mov	r3, r1
48006288:	e1a00002 	mov	r0, r2
4800628c:	e1a01003 	mov	r1, r3
48006290:	e8bd8800 	pop	{fp, pc}

48006294 <arm_board_timer_change_period>:
48006294:	e92d4800 	push	{fp, lr}
48006298:	e28db004 	add	fp, sp, #4
4800629c:	e24dd008 	sub	sp, sp, #8
480062a0:	e50b0008 	str	r0, [fp, #-8]
480062a4:	e51b0008 	ldr	r0, [fp, #-8]
480062a8:	eb000279 	bl	48006c94 <sp804_change_period>
480062ac:	e1a00000 	nop			; (mov r0, r0)
480062b0:	e24bd004 	sub	sp, fp, #4
480062b4:	e8bd8800 	pop	{fp, pc}

480062b8 <arm_board_timer_init>:
480062b8:	e92d4810 	push	{r4, fp, lr}
480062bc:	e28db008 	add	fp, sp, #8
480062c0:	e24dd044 	sub	sp, sp, #68	; 0x44
480062c4:	e50b0030 	str	r0, [fp, #-48]	; 0x30
480062c8:	e3e00000 	mvn	r0, #0
480062cc:	e3a01000 	mov	r1, #0
480062d0:	e14b01f4 	strd	r0, [fp, #-20]	; 0xffffffec
480062d4:	e3a00014 	mov	r0, #20
480062d8:	e3a01000 	mov	r1, #0
480062dc:	e14b01fc 	strd	r0, [fp, #-28]	; 0xffffffe4
480062e0:	e51bc01c 	ldr	ip, [fp, #-28]
480062e4:	e3040240 	movw	r0, #16960	; 0x4240
480062e8:	e340000f 	movt	r0, #15
480062ec:	e3a01000 	mov	r1, #0
480062f0:	e24c4020 	sub	r4, ip, #32
480062f4:	e26ce020 	rsb	lr, ip, #32
480062f8:	e1a03c11 	lsl	r3, r1, ip
480062fc:	e1833410 	orr	r3, r3, r0, lsl r4
48006300:	e1833e30 	orr	r3, r3, r0, lsr lr
48006304:	e1a02c10 	lsl	r2, r0, ip
48006308:	e14b22f4 	strd	r2, [fp, #-36]	; 0xffffffdc
4800630c:	e14b22d4 	ldrd	r2, [fp, #-36]	; 0xffffffdc
48006310:	e2922f7d 	adds	r2, r2, #500	; 0x1f4
48006314:	e2a33000 	adc	r3, r3, #0
48006318:	e14b22f4 	strd	r2, [fp, #-36]	; 0xffffffdc
4800631c:	e14b02d4 	ldrd	r0, [fp, #-36]	; 0xffffffdc
48006320:	e3a02ffa 	mov	r2, #1000	; 0x3e8
48006324:	e3a03000 	mov	r3, #0
48006328:	ebfffee6 	bl	48005ec8 <arm_udiv64>
4800632c:	e14b02f4 	strd	r0, [fp, #-36]	; 0xffffffdc
48006330:	e3a03022 	mov	r3, #34	; 0x22
48006334:	e50b3028 	str	r3, [fp, #-40]	; 0x28
48006338:	e3a00a01 	mov	r0, #4096	; 0x1000
4800633c:	e3410000 	movt	r0, #4096	; 0x1000
48006340:	ebfffecb 	bl	48005e74 <arm_readl>
48006344:	e1a03000 	mov	r3, r0
48006348:	e3833902 	orr	r3, r3, #32768	; 0x8000
4800634c:	e50b302c 	str	r3, [fp, #-44]	; 0x2c
48006350:	e51b002c 	ldr	r0, [fp, #-44]	; 0x2c
48006354:	e3a01a01 	mov	r1, #4096	; 0x1000
48006358:	e3411000 	movt	r1, #4096	; 0x1000
4800635c:	ebfffece 	bl	48005e9c <arm_writel>
48006360:	e14b21d4 	ldrd	r2, [fp, #-20]	; 0xffffffec
48006364:	e1cd20f0 	strd	r2, [sp]
48006368:	e14b22d4 	ldrd	r2, [fp, #-36]	; 0xffffffdc
4800636c:	e1cd20f8 	strd	r2, [sp, #8]
48006370:	e14b21dc 	ldrd	r2, [fp, #-28]	; 0xffffffe4
48006374:	e1cd21f0 	strd	r2, [sp, #16]
48006378:	e51b0030 	ldr	r0, [fp, #-48]	; 0x30
4800637c:	e3a01a01 	mov	r1, #4096	; 0x1000
48006380:	e3411001 	movt	r1, #4097	; 0x1001
48006384:	e51b2028 	ldr	r2, [fp, #-40]	; 0x28
48006388:	eb0002ec 	bl	48006f40 <sp804_init>
4800638c:	e1a03000 	mov	r3, r0
48006390:	e1a00003 	mov	r0, r3
48006394:	e24bd008 	sub	sp, fp, #8
48006398:	e8bd8810 	pop	{r4, fp, pc}

4800639c <arm_board_serial_init>:
4800639c:	e92d4800 	push	{fp, lr}
480063a0:	e28db004 	add	fp, sp, #4
480063a4:	e3a00a09 	mov	r0, #36864	; 0x9000
480063a8:	e3410000 	movt	r0, #4096	; 0x1000
480063ac:	e3a01001 	mov	r1, #1
480063b0:	e3a02cc2 	mov	r2, #49664	; 0xc200
480063b4:	e3402001 	movt	r2, #1
480063b8:	e3a03c36 	mov	r3, #13824	; 0x3600
480063bc:	e340316e 	movt	r3, #366	; 0x16e
480063c0:	eb0003b8 	bl	480072a8 <pl01x_init>
480063c4:	e3a03000 	mov	r3, #0
480063c8:	e1a00003 	mov	r0, r3
480063cc:	e8bd8800 	pop	{fp, pc}

480063d0 <arm_board_serial_putc>:
480063d0:	e92d4800 	push	{fp, lr}
480063d4:	e28db004 	add	fp, sp, #4
480063d8:	e24dd008 	sub	sp, sp, #8
480063dc:	e1a03000 	mov	r3, r0
480063e0:	e54b3005 	strb	r3, [fp, #-5]
480063e4:	e55b3005 	ldrb	r3, [fp, #-5]
480063e8:	e353000a 	cmp	r3, #10
480063ec:	1a000004 	bne	48006404 <arm_board_serial_putc+0x34>
480063f0:	e3a00a09 	mov	r0, #36864	; 0x9000
480063f4:	e3410000 	movt	r0, #4096	; 0x1000
480063f8:	e3a01001 	mov	r1, #1
480063fc:	e3a0200d 	mov	r2, #13
48006400:	eb00036f 	bl	480071c4 <pl01x_putc>
48006404:	e55b3005 	ldrb	r3, [fp, #-5]
48006408:	e3a00a09 	mov	r0, #36864	; 0x9000
4800640c:	e3410000 	movt	r0, #4096	; 0x1000
48006410:	e3a01001 	mov	r1, #1
48006414:	e1a02003 	mov	r2, r3
48006418:	eb000369 	bl	480071c4 <pl01x_putc>
4800641c:	e24bd004 	sub	sp, fp, #4
48006420:	e8bd8800 	pop	{fp, pc}

48006424 <arm_board_serial_getc>:
48006424:	e92d4800 	push	{fp, lr}
48006428:	e28db004 	add	fp, sp, #4
4800642c:	e24dd008 	sub	sp, sp, #8
48006430:	e3a00a09 	mov	r0, #36864	; 0x9000
48006434:	e3410000 	movt	r0, #4096	; 0x1000
48006438:	e3a01001 	mov	r1, #1
4800643c:	eb000377 	bl	48007220 <pl01x_getc>
48006440:	e1a03000 	mov	r3, r0
48006444:	e54b3005 	strb	r3, [fp, #-5]
48006448:	e55b3005 	ldrb	r3, [fp, #-5]
4800644c:	e353000d 	cmp	r3, #13
48006450:	1a000001 	bne	4800645c <arm_board_serial_getc+0x38>
48006454:	e3a0300a 	mov	r3, #10
48006458:	e54b3005 	strb	r3, [fp, #-5]
4800645c:	e55b3005 	ldrb	r3, [fp, #-5]
48006460:	e1a00003 	mov	r0, r3
48006464:	ebffffd9 	bl	480063d0 <arm_board_serial_putc>
48006468:	e55b3005 	ldrb	r3, [fp, #-5]
4800646c:	e1a00003 	mov	r0, r3
48006470:	e24bd004 	sub	sp, fp, #4
48006474:	e8bd8800 	pop	{fp, pc}

48006478 <arm_readl>:
48006478:	e52db004 	push	{fp}		; (str fp, [sp, #-4]!)
4800647c:	e28db000 	add	fp, sp, #0
48006480:	e24dd00c 	sub	sp, sp, #12
48006484:	e50b0008 	str	r0, [fp, #-8]
48006488:	e51b3008 	ldr	r3, [fp, #-8]
4800648c:	e5933000 	ldr	r3, [r3]
48006490:	e1a00003 	mov	r0, r3
48006494:	e24bd000 	sub	sp, fp, #0
48006498:	e49db004 	pop	{fp}		; (ldr fp, [sp], #4)
4800649c:	e12fff1e 	bx	lr

480064a0 <arm_writel>:
480064a0:	e52db004 	push	{fp}		; (str fp, [sp, #-4]!)
480064a4:	e28db000 	add	fp, sp, #0
480064a8:	e24dd00c 	sub	sp, sp, #12
480064ac:	e50b0008 	str	r0, [fp, #-8]
480064b0:	e50b100c 	str	r1, [fp, #-12]
480064b4:	e51b300c 	ldr	r3, [fp, #-12]
480064b8:	e51b2008 	ldr	r2, [fp, #-8]
480064bc:	e5832000 	str	r2, [r3]
480064c0:	e24bd000 	sub	sp, fp, #0
480064c4:	e49db004 	pop	{fp}		; (ldr fp, [sp], #4)
480064c8:	e12fff1e 	bx	lr

480064cc <gic_write>:
480064cc:	e92d4800 	push	{fp, lr}
480064d0:	e28db004 	add	fp, sp, #4
480064d4:	e24dd008 	sub	sp, sp, #8
480064d8:	e50b0008 	str	r0, [fp, #-8]
480064dc:	e50b100c 	str	r1, [fp, #-12]
480064e0:	e51b300c 	ldr	r3, [fp, #-12]
480064e4:	e51b0008 	ldr	r0, [fp, #-8]
480064e8:	e1a01003 	mov	r1, r3
480064ec:	ebffffeb 	bl	480064a0 <arm_writel>
480064f0:	e24bd004 	sub	sp, fp, #4
480064f4:	e8bd8800 	pop	{fp, pc}

480064f8 <gic_read>:
480064f8:	e92d4800 	push	{fp, lr}
480064fc:	e28db004 	add	fp, sp, #4
48006500:	e24dd008 	sub	sp, sp, #8
48006504:	e50b0008 	str	r0, [fp, #-8]
48006508:	e51b3008 	ldr	r3, [fp, #-8]
4800650c:	e1a00003 	mov	r0, r3
48006510:	ebffffd8 	bl	48006478 <arm_readl>
48006514:	e1a03000 	mov	r3, r0
48006518:	e1a00003 	mov	r0, r3
4800651c:	e24bd004 	sub	sp, fp, #4
48006520:	e8bd8800 	pop	{fp, pc}

48006524 <gic_active_irq>:
48006524:	e92d4800 	push	{fp, lr}
48006528:	e28db004 	add	fp, sp, #4
4800652c:	e24dd010 	sub	sp, sp, #16
48006530:	e50b0010 	str	r0, [fp, #-16]
48006534:	e3e03000 	mvn	r3, #0
48006538:	e50b3008 	str	r3, [fp, #-8]
4800653c:	e51b3010 	ldr	r3, [fp, #-16]
48006540:	e3530000 	cmp	r3, #0
48006544:	0a000001 	beq	48006550 <gic_active_irq+0x2c>
48006548:	e3e03000 	mvn	r3, #0
4800654c:	ea00001d 	b	480065c8 <gic_active_irq+0xa4>
48006550:	e3082000 	movw	r2, #32768	; 0x8000
48006554:	e3442801 	movt	r2, #18433	; 0x4801
48006558:	e51b1010 	ldr	r1, [fp, #-16]
4800655c:	e3a00008 	mov	r0, #8
48006560:	e1a03001 	mov	r3, r1
48006564:	e1a03083 	lsl	r3, r3, #1
48006568:	e0833001 	add	r3, r3, r1
4800656c:	e1a03103 	lsl	r3, r3, #2
48006570:	e0823003 	add	r3, r2, r3
48006574:	e0833000 	add	r3, r3, r0
48006578:	e5933000 	ldr	r3, [r3]
4800657c:	e283300c 	add	r3, r3, #12
48006580:	e1a00003 	mov	r0, r3
48006584:	ebffffdb 	bl	480064f8 <gic_read>
48006588:	e1a03000 	mov	r3, r0
4800658c:	e7e93053 	ubfx	r3, r3, #0, #10
48006590:	e50b3008 	str	r3, [fp, #-8]
48006594:	e3082000 	movw	r2, #32768	; 0x8000
48006598:	e3442801 	movt	r2, #18433	; 0x4801
4800659c:	e51b1010 	ldr	r1, [fp, #-16]
480065a0:	e1a03001 	mov	r3, r1
480065a4:	e1a03083 	lsl	r3, r3, #1
480065a8:	e0833001 	add	r3, r3, r1
480065ac:	e1a03103 	lsl	r3, r3, #2
480065b0:	e0823003 	add	r3, r2, r3
480065b4:	e5932000 	ldr	r2, [r3]
480065b8:	e51b3008 	ldr	r3, [fp, #-8]
480065bc:	e0823003 	add	r3, r2, r3
480065c0:	e50b3008 	str	r3, [fp, #-8]
480065c4:	e51b3008 	ldr	r3, [fp, #-8]
480065c8:	e1a00003 	mov	r0, r3
480065cc:	e24bd004 	sub	sp, fp, #4
480065d0:	e8bd8800 	pop	{fp, pc}

480065d4 <gic_eoi_irq>:
480065d4:	e92d4800 	push	{fp, lr}
480065d8:	e28db004 	add	fp, sp, #4
480065dc:	e24dd010 	sub	sp, sp, #16
480065e0:	e50b0010 	str	r0, [fp, #-16]
480065e4:	e50b1014 	str	r1, [fp, #-20]
480065e8:	e51b3010 	ldr	r3, [fp, #-16]
480065ec:	e3530000 	cmp	r3, #0
480065f0:	0a000001 	beq	480065fc <gic_eoi_irq+0x28>
480065f4:	e3e03000 	mvn	r3, #0
480065f8:	ea000029 	b	480066a4 <gic_eoi_irq+0xd0>
480065fc:	e3082000 	movw	r2, #32768	; 0x8000
48006600:	e3442801 	movt	r2, #18433	; 0x4801
48006604:	e51b1010 	ldr	r1, [fp, #-16]
48006608:	e1a03001 	mov	r3, r1
4800660c:	e1a03083 	lsl	r3, r3, #1
48006610:	e0833001 	add	r3, r3, r1
48006614:	e1a03103 	lsl	r3, r3, #2
48006618:	e0823003 	add	r3, r2, r3
4800661c:	e5932000 	ldr	r2, [r3]
48006620:	e51b3014 	ldr	r3, [fp, #-20]
48006624:	e1520003 	cmp	r2, r3
48006628:	9a000001 	bls	48006634 <gic_eoi_irq+0x60>
4800662c:	e3e03000 	mvn	r3, #0
48006630:	ea00001b 	b	480066a4 <gic_eoi_irq+0xd0>
48006634:	e3082000 	movw	r2, #32768	; 0x8000
48006638:	e3442801 	movt	r2, #18433	; 0x4801
4800663c:	e51b1010 	ldr	r1, [fp, #-16]
48006640:	e1a03001 	mov	r3, r1
48006644:	e1a03083 	lsl	r3, r3, #1
48006648:	e0833001 	add	r3, r3, r1
4800664c:	e1a03103 	lsl	r3, r3, #2
48006650:	e0823003 	add	r3, r2, r3
48006654:	e5933000 	ldr	r3, [r3]
48006658:	e51b2014 	ldr	r2, [fp, #-20]
4800665c:	e0633002 	rsb	r3, r3, r2
48006660:	e50b3008 	str	r3, [fp, #-8]
48006664:	e3082000 	movw	r2, #32768	; 0x8000
48006668:	e3442801 	movt	r2, #18433	; 0x4801
4800666c:	e51b1010 	ldr	r1, [fp, #-16]
48006670:	e3a00008 	mov	r0, #8
48006674:	e1a03001 	mov	r3, r1
48006678:	e1a03083 	lsl	r3, r3, #1
4800667c:	e0833001 	add	r3, r3, r1
48006680:	e1a03103 	lsl	r3, r3, #2
48006684:	e0823003 	add	r3, r2, r3
48006688:	e0833000 	add	r3, r3, r0
4800668c:	e5933000 	ldr	r3, [r3]
48006690:	e2833010 	add	r3, r3, #16
48006694:	e51b0008 	ldr	r0, [fp, #-8]
48006698:	e1a01003 	mov	r1, r3
4800669c:	ebffff8a 	bl	480064cc <gic_write>
480066a0:	e3a03000 	mov	r3, #0
480066a4:	e1a00003 	mov	r0, r3
480066a8:	e24bd004 	sub	sp, fp, #4
480066ac:	e8bd8800 	pop	{fp, pc}

480066b0 <gic_mask>:
480066b0:	e92d4800 	push	{fp, lr}
480066b4:	e28db004 	add	fp, sp, #4
480066b8:	e24dd010 	sub	sp, sp, #16
480066bc:	e50b0010 	str	r0, [fp, #-16]
480066c0:	e50b1014 	str	r1, [fp, #-20]
480066c4:	e51b3014 	ldr	r3, [fp, #-20]
480066c8:	e203301f 	and	r3, r3, #31
480066cc:	e3a02001 	mov	r2, #1
480066d0:	e1a03312 	lsl	r3, r2, r3
480066d4:	e50b3008 	str	r3, [fp, #-8]
480066d8:	e51b3010 	ldr	r3, [fp, #-16]
480066dc:	e3530000 	cmp	r3, #0
480066e0:	0a000001 	beq	480066ec <gic_mask+0x3c>
480066e4:	e3e03000 	mvn	r3, #0
480066e8:	ea00002d 	b	480067a4 <gic_mask+0xf4>
480066ec:	e3082000 	movw	r2, #32768	; 0x8000
480066f0:	e3442801 	movt	r2, #18433	; 0x4801
480066f4:	e51b1010 	ldr	r1, [fp, #-16]
480066f8:	e1a03001 	mov	r3, r1
480066fc:	e1a03083 	lsl	r3, r3, #1
48006700:	e0833001 	add	r3, r3, r1
48006704:	e1a03103 	lsl	r3, r3, #2
48006708:	e0823003 	add	r3, r2, r3
4800670c:	e5932000 	ldr	r2, [r3]
48006710:	e51b3014 	ldr	r3, [fp, #-20]
48006714:	e1520003 	cmp	r2, r3
48006718:	9a000001 	bls	48006724 <gic_mask+0x74>
4800671c:	e3e03000 	mvn	r3, #0
48006720:	ea00001f 	b	480067a4 <gic_mask+0xf4>
48006724:	e3082000 	movw	r2, #32768	; 0x8000
48006728:	e3442801 	movt	r2, #18433	; 0x4801
4800672c:	e51b1010 	ldr	r1, [fp, #-16]
48006730:	e1a03001 	mov	r3, r1
48006734:	e1a03083 	lsl	r3, r3, #1
48006738:	e0833001 	add	r3, r3, r1
4800673c:	e1a03103 	lsl	r3, r3, #2
48006740:	e0823003 	add	r3, r2, r3
48006744:	e5933000 	ldr	r3, [r3]
48006748:	e51b2014 	ldr	r2, [fp, #-20]
4800674c:	e0633002 	rsb	r3, r3, r2
48006750:	e50b300c 	str	r3, [fp, #-12]
48006754:	e3082000 	movw	r2, #32768	; 0x8000
48006758:	e3442801 	movt	r2, #18433	; 0x4801
4800675c:	e51b1010 	ldr	r1, [fp, #-16]
48006760:	e3a00004 	mov	r0, #4
48006764:	e1a03001 	mov	r3, r1
48006768:	e1a03083 	lsl	r3, r3, #1
4800676c:	e0833001 	add	r3, r3, r1
48006770:	e1a03103 	lsl	r3, r3, #2
48006774:	e0823003 	add	r3, r2, r3
48006778:	e0833000 	add	r3, r3, r0
4800677c:	e5932000 	ldr	r2, [r3]
48006780:	e51b300c 	ldr	r3, [fp, #-12]
48006784:	e1a032a3 	lsr	r3, r3, #5
48006788:	e1a03103 	lsl	r3, r3, #2
4800678c:	e0823003 	add	r3, r2, r3
48006790:	e2833d06 	add	r3, r3, #384	; 0x180
48006794:	e51b0008 	ldr	r0, [fp, #-8]
48006798:	e1a01003 	mov	r1, r3
4800679c:	ebffff4a 	bl	480064cc <gic_write>
480067a0:	e3a03000 	mov	r3, #0
480067a4:	e1a00003 	mov	r0, r3
480067a8:	e24bd004 	sub	sp, fp, #4
480067ac:	e8bd8800 	pop	{fp, pc}

480067b0 <gic_unmask>:
480067b0:	e92d4800 	push	{fp, lr}
480067b4:	e28db004 	add	fp, sp, #4
480067b8:	e24dd010 	sub	sp, sp, #16
480067bc:	e50b0010 	str	r0, [fp, #-16]
480067c0:	e50b1014 	str	r1, [fp, #-20]
480067c4:	e51b3014 	ldr	r3, [fp, #-20]
480067c8:	e203301f 	and	r3, r3, #31
480067cc:	e3a02001 	mov	r2, #1
480067d0:	e1a03312 	lsl	r3, r2, r3
480067d4:	e50b3008 	str	r3, [fp, #-8]
480067d8:	e51b3010 	ldr	r3, [fp, #-16]
480067dc:	e3530000 	cmp	r3, #0
480067e0:	0a000001 	beq	480067ec <gic_unmask+0x3c>
480067e4:	e3e03000 	mvn	r3, #0
480067e8:	ea00002d 	b	480068a4 <gic_unmask+0xf4>
480067ec:	e3082000 	movw	r2, #32768	; 0x8000
480067f0:	e3442801 	movt	r2, #18433	; 0x4801
480067f4:	e51b1010 	ldr	r1, [fp, #-16]
480067f8:	e1a03001 	mov	r3, r1
480067fc:	e1a03083 	lsl	r3, r3, #1
48006800:	e0833001 	add	r3, r3, r1
48006804:	e1a03103 	lsl	r3, r3, #2
48006808:	e0823003 	add	r3, r2, r3
4800680c:	e5932000 	ldr	r2, [r3]
48006810:	e51b3014 	ldr	r3, [fp, #-20]
48006814:	e1520003 	cmp	r2, r3
48006818:	9a000001 	bls	48006824 <gic_unmask+0x74>
4800681c:	e3e03000 	mvn	r3, #0
48006820:	ea00001f 	b	480068a4 <gic_unmask+0xf4>
48006824:	e3082000 	movw	r2, #32768	; 0x8000
48006828:	e3442801 	movt	r2, #18433	; 0x4801
4800682c:	e51b1010 	ldr	r1, [fp, #-16]
48006830:	e1a03001 	mov	r3, r1
48006834:	e1a03083 	lsl	r3, r3, #1
48006838:	e0833001 	add	r3, r3, r1
4800683c:	e1a03103 	lsl	r3, r3, #2
48006840:	e0823003 	add	r3, r2, r3
48006844:	e5933000 	ldr	r3, [r3]
48006848:	e51b2014 	ldr	r2, [fp, #-20]
4800684c:	e0633002 	rsb	r3, r3, r2
48006850:	e50b300c 	str	r3, [fp, #-12]
48006854:	e3082000 	movw	r2, #32768	; 0x8000
48006858:	e3442801 	movt	r2, #18433	; 0x4801
4800685c:	e51b1010 	ldr	r1, [fp, #-16]
48006860:	e3a00004 	mov	r0, #4
48006864:	e1a03001 	mov	r3, r1
48006868:	e1a03083 	lsl	r3, r3, #1
4800686c:	e0833001 	add	r3, r3, r1
48006870:	e1a03103 	lsl	r3, r3, #2
48006874:	e0823003 	add	r3, r2, r3
48006878:	e0833000 	add	r3, r3, r0
4800687c:	e5932000 	ldr	r2, [r3]
48006880:	e51b300c 	ldr	r3, [fp, #-12]
48006884:	e1a032a3 	lsr	r3, r3, #5
48006888:	e1a03103 	lsl	r3, r3, #2
4800688c:	e0823003 	add	r3, r2, r3
48006890:	e2833c01 	add	r3, r3, #256	; 0x100
48006894:	e51b0008 	ldr	r0, [fp, #-8]
48006898:	e1a01003 	mov	r1, r3
4800689c:	ebffff0a 	bl	480064cc <gic_write>
480068a0:	e3a03000 	mov	r3, #0
480068a4:	e1a00003 	mov	r0, r3
480068a8:	e24bd004 	sub	sp, fp, #4
480068ac:	e8bd8800 	pop	{fp, pc}

480068b0 <gic_dist_init>:
480068b0:	e92d4800 	push	{fp, lr}
480068b4:	e28db004 	add	fp, sp, #4
480068b8:	e24dd020 	sub	sp, sp, #32
480068bc:	e50b0018 	str	r0, [fp, #-24]
480068c0:	e50b101c 	str	r1, [fp, #-28]
480068c4:	e50b2020 	str	r2, [fp, #-32]
480068c8:	e3a03001 	mov	r3, #1
480068cc:	e50b3010 	str	r3, [fp, #-16]
480068d0:	e51b3018 	ldr	r3, [fp, #-24]
480068d4:	e3530000 	cmp	r3, #0
480068d8:	0a000001 	beq	480068e4 <gic_dist_init+0x34>
480068dc:	e3e03000 	mvn	r3, #0
480068e0:	ea000085 	b	48006afc <gic_dist_init+0x24c>
480068e4:	e51b3010 	ldr	r3, [fp, #-16]
480068e8:	e1a03403 	lsl	r3, r3, #8
480068ec:	e51b2010 	ldr	r2, [fp, #-16]
480068f0:	e1823003 	orr	r3, r2, r3
480068f4:	e50b3010 	str	r3, [fp, #-16]
480068f8:	e51b3010 	ldr	r3, [fp, #-16]
480068fc:	e1a03803 	lsl	r3, r3, #16
48006900:	e51b2010 	ldr	r2, [fp, #-16]
48006904:	e1823003 	orr	r3, r2, r3
48006908:	e50b3010 	str	r3, [fp, #-16]
4800690c:	e3082000 	movw	r2, #32768	; 0x8000
48006910:	e3442801 	movt	r2, #18433	; 0x4801
48006914:	e51b1018 	ldr	r1, [fp, #-24]
48006918:	e3a00004 	mov	r0, #4
4800691c:	e1a03001 	mov	r3, r1
48006920:	e1a03083 	lsl	r3, r3, #1
48006924:	e0833001 	add	r3, r3, r1
48006928:	e1a03103 	lsl	r3, r3, #2
4800692c:	e0823003 	add	r3, r2, r3
48006930:	e0833000 	add	r3, r3, r0
48006934:	e51b201c 	ldr	r2, [fp, #-28]
48006938:	e5832000 	str	r2, [r3]
4800693c:	e51b3020 	ldr	r3, [fp, #-32]
48006940:	e2433001 	sub	r3, r3, #1
48006944:	e3c3001f 	bic	r0, r3, #31
48006948:	e3082000 	movw	r2, #32768	; 0x8000
4800694c:	e3442801 	movt	r2, #18433	; 0x4801
48006950:	e51b1018 	ldr	r1, [fp, #-24]
48006954:	e1a03001 	mov	r3, r1
48006958:	e1a03083 	lsl	r3, r3, #1
4800695c:	e0833001 	add	r3, r3, r1
48006960:	e1a03103 	lsl	r3, r3, #2
48006964:	e0823003 	add	r3, r2, r3
48006968:	e5830000 	str	r0, [r3]
4800696c:	e3a00000 	mov	r0, #0
48006970:	e51b101c 	ldr	r1, [fp, #-28]
48006974:	ebfffed4 	bl	480064cc <gic_write>
48006978:	e51b301c 	ldr	r3, [fp, #-28]
4800697c:	e2833004 	add	r3, r3, #4
48006980:	e1a00003 	mov	r0, r3
48006984:	ebfffedb 	bl	480064f8 <gic_read>
48006988:	e1a03000 	mov	r3, r0
4800698c:	e203301f 	and	r3, r3, #31
48006990:	e50b3008 	str	r3, [fp, #-8]
48006994:	e51b3008 	ldr	r3, [fp, #-8]
48006998:	e2833001 	add	r3, r3, #1
4800699c:	e1a03283 	lsl	r3, r3, #5
480069a0:	e50b3008 	str	r3, [fp, #-8]
480069a4:	e51b3008 	ldr	r3, [fp, #-8]
480069a8:	e3530fff 	cmp	r3, #1020	; 0x3fc
480069ac:	9a000001 	bls	480069b8 <gic_dist_init+0x108>
480069b0:	e3a03fff 	mov	r3, #1020	; 0x3fc
480069b4:	e50b3008 	str	r3, [fp, #-8]
480069b8:	e3a03020 	mov	r3, #32
480069bc:	e50b300c 	str	r3, [fp, #-12]
480069c0:	ea00000b 	b	480069f4 <gic_dist_init+0x144>
480069c4:	e51b300c 	ldr	r3, [fp, #-12]
480069c8:	e1a03103 	lsl	r3, r3, #2
480069cc:	e1a02223 	lsr	r2, r3, #4
480069d0:	e51b301c 	ldr	r3, [fp, #-28]
480069d4:	e0823003 	add	r3, r2, r3
480069d8:	e2833b03 	add	r3, r3, #3072	; 0xc00
480069dc:	e3a00000 	mov	r0, #0
480069e0:	e1a01003 	mov	r1, r3
480069e4:	ebfffeb8 	bl	480064cc <gic_write>
480069e8:	e51b300c 	ldr	r3, [fp, #-12]
480069ec:	e2833010 	add	r3, r3, #16
480069f0:	e50b300c 	str	r3, [fp, #-12]
480069f4:	e51b200c 	ldr	r2, [fp, #-12]
480069f8:	e51b3008 	ldr	r3, [fp, #-8]
480069fc:	e1520003 	cmp	r2, r3
48006a00:	3affffef 	bcc	480069c4 <gic_dist_init+0x114>
48006a04:	e3a03020 	mov	r3, #32
48006a08:	e50b300c 	str	r3, [fp, #-12]
48006a0c:	ea00000b 	b	48006a40 <gic_dist_init+0x190>
48006a10:	e51b300c 	ldr	r3, [fp, #-12]
48006a14:	e1a03103 	lsl	r3, r3, #2
48006a18:	e1a02123 	lsr	r2, r3, #2
48006a1c:	e51b301c 	ldr	r3, [fp, #-28]
48006a20:	e0823003 	add	r3, r2, r3
48006a24:	e2833b02 	add	r3, r3, #2048	; 0x800
48006a28:	e51b0010 	ldr	r0, [fp, #-16]
48006a2c:	e1a01003 	mov	r1, r3
48006a30:	ebfffea5 	bl	480064cc <gic_write>
48006a34:	e51b300c 	ldr	r3, [fp, #-12]
48006a38:	e2833004 	add	r3, r3, #4
48006a3c:	e50b300c 	str	r3, [fp, #-12]
48006a40:	e51b200c 	ldr	r2, [fp, #-12]
48006a44:	e51b3008 	ldr	r3, [fp, #-8]
48006a48:	e1520003 	cmp	r2, r3
48006a4c:	3affffef 	bcc	48006a10 <gic_dist_init+0x160>
48006a50:	e3a03000 	mov	r3, #0
48006a54:	e50b300c 	str	r3, [fp, #-12]
48006a58:	ea00000c 	b	48006a90 <gic_dist_init+0x1e0>
48006a5c:	e51b300c 	ldr	r3, [fp, #-12]
48006a60:	e1a03103 	lsl	r3, r3, #2
48006a64:	e1a02123 	lsr	r2, r3, #2
48006a68:	e51b301c 	ldr	r3, [fp, #-28]
48006a6c:	e0823003 	add	r3, r2, r3
48006a70:	e2833b01 	add	r3, r3, #1024	; 0x400
48006a74:	e30a00a0 	movw	r0, #41120	; 0xa0a0
48006a78:	e34a00a0 	movt	r0, #41120	; 0xa0a0
48006a7c:	e1a01003 	mov	r1, r3
48006a80:	ebfffe91 	bl	480064cc <gic_write>
48006a84:	e51b300c 	ldr	r3, [fp, #-12]
48006a88:	e2833004 	add	r3, r3, #4
48006a8c:	e50b300c 	str	r3, [fp, #-12]
48006a90:	e51b200c 	ldr	r2, [fp, #-12]
48006a94:	e51b3008 	ldr	r3, [fp, #-8]
48006a98:	e1520003 	cmp	r2, r3
48006a9c:	3affffee 	bcc	48006a5c <gic_dist_init+0x1ac>
48006aa0:	e3a03000 	mov	r3, #0
48006aa4:	e50b300c 	str	r3, [fp, #-12]
48006aa8:	ea00000b 	b	48006adc <gic_dist_init+0x22c>
48006aac:	e51b300c 	ldr	r3, [fp, #-12]
48006ab0:	e1a03103 	lsl	r3, r3, #2
48006ab4:	e1a022a3 	lsr	r2, r3, #5
48006ab8:	e51b301c 	ldr	r3, [fp, #-28]
48006abc:	e0823003 	add	r3, r2, r3
48006ac0:	e2833d06 	add	r3, r3, #384	; 0x180
48006ac4:	e3e00000 	mvn	r0, #0
48006ac8:	e1a01003 	mov	r1, r3
48006acc:	ebfffe7e 	bl	480064cc <gic_write>
48006ad0:	e51b300c 	ldr	r3, [fp, #-12]
48006ad4:	e2833020 	add	r3, r3, #32
48006ad8:	e50b300c 	str	r3, [fp, #-12]
48006adc:	e51b200c 	ldr	r2, [fp, #-12]
48006ae0:	e51b3008 	ldr	r3, [fp, #-8]
48006ae4:	e1520003 	cmp	r2, r3
48006ae8:	3affffef 	bcc	48006aac <gic_dist_init+0x1fc>
48006aec:	e3a00001 	mov	r0, #1
48006af0:	e51b101c 	ldr	r1, [fp, #-28]
48006af4:	ebfffe74 	bl	480064cc <gic_write>
48006af8:	e3a03000 	mov	r3, #0
48006afc:	e1a00003 	mov	r0, r3
48006b00:	e24bd004 	sub	sp, fp, #4
48006b04:	e8bd8800 	pop	{fp, pc}

48006b08 <gic_cpu_init>:
48006b08:	e92d4800 	push	{fp, lr}
48006b0c:	e28db004 	add	fp, sp, #4
48006b10:	e24dd008 	sub	sp, sp, #8
48006b14:	e50b0008 	str	r0, [fp, #-8]
48006b18:	e50b100c 	str	r1, [fp, #-12]
48006b1c:	e51b3008 	ldr	r3, [fp, #-8]
48006b20:	e3530000 	cmp	r3, #0
48006b24:	0a000001 	beq	48006b30 <gic_cpu_init+0x28>
48006b28:	e3e03000 	mvn	r3, #0
48006b2c:	ea000014 	b	48006b84 <gic_cpu_init+0x7c>
48006b30:	e3082000 	movw	r2, #32768	; 0x8000
48006b34:	e3442801 	movt	r2, #18433	; 0x4801
48006b38:	e51b1008 	ldr	r1, [fp, #-8]
48006b3c:	e3a00008 	mov	r0, #8
48006b40:	e1a03001 	mov	r3, r1
48006b44:	e1a03083 	lsl	r3, r3, #1
48006b48:	e0833001 	add	r3, r3, r1
48006b4c:	e1a03103 	lsl	r3, r3, #2
48006b50:	e0823003 	add	r3, r2, r3
48006b54:	e0833000 	add	r3, r3, r0
48006b58:	e51b200c 	ldr	r2, [fp, #-12]
48006b5c:	e5832000 	str	r2, [r3]
48006b60:	e51b300c 	ldr	r3, [fp, #-12]
48006b64:	e2833004 	add	r3, r3, #4
48006b68:	e3a000f0 	mov	r0, #240	; 0xf0
48006b6c:	e1a01003 	mov	r1, r3
48006b70:	ebfffe55 	bl	480064cc <gic_write>
48006b74:	e3a00001 	mov	r0, #1
48006b78:	e51b100c 	ldr	r1, [fp, #-12]
48006b7c:	ebfffe52 	bl	480064cc <gic_write>
48006b80:	e3a03000 	mov	r3, #0
48006b84:	e1a00003 	mov	r0, r3
48006b88:	e24bd004 	sub	sp, fp, #4
48006b8c:	e8bd8800 	pop	{fp, pc}

48006b90 <arm_readl>:
48006b90:	e52db004 	push	{fp}		; (str fp, [sp, #-4]!)
48006b94:	e28db000 	add	fp, sp, #0
48006b98:	e24dd00c 	sub	sp, sp, #12
48006b9c:	e50b0008 	str	r0, [fp, #-8]
48006ba0:	e51b3008 	ldr	r3, [fp, #-8]
48006ba4:	e5933000 	ldr	r3, [r3]
48006ba8:	e1a00003 	mov	r0, r3
48006bac:	e24bd000 	sub	sp, fp, #0
48006bb0:	e49db004 	pop	{fp}		; (ldr fp, [sp], #4)
48006bb4:	e12fff1e 	bx	lr

48006bb8 <arm_writel>:
48006bb8:	e52db004 	push	{fp}		; (str fp, [sp, #-4]!)
48006bbc:	e28db000 	add	fp, sp, #0
48006bc0:	e24dd00c 	sub	sp, sp, #12
48006bc4:	e50b0008 	str	r0, [fp, #-8]
48006bc8:	e50b100c 	str	r1, [fp, #-12]
48006bcc:	e51b300c 	ldr	r3, [fp, #-12]
48006bd0:	e51b2008 	ldr	r2, [fp, #-8]
48006bd4:	e5832000 	str	r2, [r3]
48006bd8:	e24bd000 	sub	sp, fp, #0
48006bdc:	e49db004 	pop	{fp}		; (ldr fp, [sp], #4)
48006be0:	e12fff1e 	bx	lr

48006be4 <sp804_enable>:
48006be4:	e92d4800 	push	{fp, lr}
48006be8:	e28db004 	add	fp, sp, #4
48006bec:	e24dd008 	sub	sp, sp, #8
48006bf0:	e3083010 	movw	r3, #32784	; 0x8010
48006bf4:	e3443801 	movt	r3, #18433	; 0x4801
48006bf8:	e5933000 	ldr	r3, [r3]
48006bfc:	e2833008 	add	r3, r3, #8
48006c00:	e1a00003 	mov	r0, r3
48006c04:	ebffffe1 	bl	48006b90 <arm_readl>
48006c08:	e50b0008 	str	r0, [fp, #-8]
48006c0c:	e51b3008 	ldr	r3, [fp, #-8]
48006c10:	e3833080 	orr	r3, r3, #128	; 0x80
48006c14:	e50b3008 	str	r3, [fp, #-8]
48006c18:	e3083010 	movw	r3, #32784	; 0x8010
48006c1c:	e3443801 	movt	r3, #18433	; 0x4801
48006c20:	e5933000 	ldr	r3, [r3]
48006c24:	e2833008 	add	r3, r3, #8
48006c28:	e51b0008 	ldr	r0, [fp, #-8]
48006c2c:	e1a01003 	mov	r1, r3
48006c30:	ebffffe0 	bl	48006bb8 <arm_writel>
48006c34:	e24bd004 	sub	sp, fp, #4
48006c38:	e8bd8800 	pop	{fp, pc}

48006c3c <sp804_disable>:
48006c3c:	e92d4800 	push	{fp, lr}
48006c40:	e28db004 	add	fp, sp, #4
48006c44:	e24dd008 	sub	sp, sp, #8
48006c48:	e3083010 	movw	r3, #32784	; 0x8010
48006c4c:	e3443801 	movt	r3, #18433	; 0x4801
48006c50:	e5933000 	ldr	r3, [r3]
48006c54:	e2833008 	add	r3, r3, #8
48006c58:	e1a00003 	mov	r0, r3
48006c5c:	ebffffcb 	bl	48006b90 <arm_readl>
48006c60:	e50b0008 	str	r0, [fp, #-8]
48006c64:	e51b3008 	ldr	r3, [fp, #-8]
48006c68:	e3c33080 	bic	r3, r3, #128	; 0x80
48006c6c:	e50b3008 	str	r3, [fp, #-8]
48006c70:	e3083010 	movw	r3, #32784	; 0x8010
48006c74:	e3443801 	movt	r3, #18433	; 0x4801
48006c78:	e5933000 	ldr	r3, [r3]
48006c7c:	e2833008 	add	r3, r3, #8
48006c80:	e51b0008 	ldr	r0, [fp, #-8]
48006c84:	e1a01003 	mov	r1, r3
48006c88:	ebffffca 	bl	48006bb8 <arm_writel>
48006c8c:	e24bd004 	sub	sp, fp, #4
48006c90:	e8bd8800 	pop	{fp, pc}

48006c94 <sp804_change_period>:
48006c94:	e92d4800 	push	{fp, lr}
48006c98:	e28db004 	add	fp, sp, #4
48006c9c:	e24dd008 	sub	sp, sp, #8
48006ca0:	e50b0008 	str	r0, [fp, #-8]
48006ca4:	e3083010 	movw	r3, #32784	; 0x8010
48006ca8:	e3443801 	movt	r3, #18433	; 0x4801
48006cac:	e5933000 	ldr	r3, [r3]
48006cb0:	e51b0008 	ldr	r0, [fp, #-8]
48006cb4:	e1a01003 	mov	r1, r3
48006cb8:	ebffffbe 	bl	48006bb8 <arm_writel>
48006cbc:	e24bd004 	sub	sp, fp, #4
48006cc0:	e8bd8800 	pop	{fp, pc}

48006cc4 <sp804_irqcount>:
48006cc4:	e52db004 	push	{fp}		; (str fp, [sp, #-4]!)
48006cc8:	e28db000 	add	fp, sp, #0
48006ccc:	e3083018 	movw	r3, #32792	; 0x8018
48006cd0:	e3443801 	movt	r3, #18433	; 0x4801
48006cd4:	e1c320d0 	ldrd	r2, [r3]
48006cd8:	e1a00002 	mov	r0, r2
48006cdc:	e1a01003 	mov	r1, r3
48006ce0:	e24bd000 	sub	sp, fp, #0
48006ce4:	e49db004 	pop	{fp}		; (ldr fp, [sp], #4)
48006ce8:	e12fff1e 	bx	lr

48006cec <sp804_irqdelay>:
48006cec:	e52db004 	push	{fp}		; (str fp, [sp, #-4]!)
48006cf0:	e28db000 	add	fp, sp, #0
48006cf4:	e3083030 	movw	r3, #32816	; 0x8030
48006cf8:	e3443801 	movt	r3, #18433	; 0x4801
48006cfc:	e1c320d0 	ldrd	r2, [r3]
48006d00:	e1a00002 	mov	r0, r2
48006d04:	e1a01003 	mov	r1, r3
48006d08:	e24bd000 	sub	sp, fp, #0
48006d0c:	e49db004 	pop	{fp}		; (ldr fp, [sp], #4)
48006d10:	e12fff1e 	bx	lr

48006d14 <sp804_timestamp>:
48006d14:	e92d4830 	push	{r4, r5, fp, lr}
48006d18:	e28db00c 	add	fp, sp, #12
48006d1c:	e24dd018 	sub	sp, sp, #24
48006d20:	e3083010 	movw	r3, #32784	; 0x8010
48006d24:	e3443801 	movt	r3, #18433	; 0x4801
48006d28:	e5933000 	ldr	r3, [r3]
48006d2c:	e2833024 	add	r3, r3, #36	; 0x24
48006d30:	e1a00003 	mov	r0, r3
48006d34:	ebffff95 	bl	48006b90 <arm_readl>
48006d38:	e1a03000 	mov	r3, r0
48006d3c:	e1e03003 	mvn	r3, r3
48006d40:	e1a02003 	mov	r2, r3
48006d44:	e3a03000 	mov	r3, #0
48006d48:	e14b21f4 	strd	r2, [fp, #-20]	; 0xffffffec
48006d4c:	e3083050 	movw	r3, #32848	; 0x8050
48006d50:	e3443801 	movt	r3, #18433	; 0x4801
48006d54:	e1c320d0 	ldrd	r2, [r3]
48006d58:	e14b01d4 	ldrd	r0, [fp, #-20]	; 0xffffffec
48006d5c:	e0500002 	subs	r0, r0, r2
48006d60:	e0c11003 	sbc	r1, r1, r3
48006d64:	e3083038 	movw	r3, #32824	; 0x8038
48006d68:	e3443801 	movt	r3, #18433	; 0x4801
48006d6c:	e1c320d0 	ldrd	r2, [r3]
48006d70:	e0022000 	and	r2, r2, r0
48006d74:	e0033001 	and	r3, r3, r1
48006d78:	e14b21fc 	strd	r2, [fp, #-28]	; 0xffffffe4
48006d7c:	e3083050 	movw	r3, #32848	; 0x8050
48006d80:	e3443801 	movt	r3, #18433	; 0x4801
48006d84:	e14b01d4 	ldrd	r0, [fp, #-20]	; 0xffffffec
48006d88:	e1c300f0 	strd	r0, [r3]
48006d8c:	e3083048 	movw	r3, #32840	; 0x8048
48006d90:	e3443801 	movt	r3, #18433	; 0x4801
48006d94:	e1c320d0 	ldrd	r2, [r3]
48006d98:	e51b101c 	ldr	r1, [fp, #-28]
48006d9c:	e0000193 	mul	r0, r3, r1
48006da0:	e51b1018 	ldr	r1, [fp, #-24]
48006da4:	e0010192 	mul	r1, r2, r1
48006da8:	e0801001 	add	r1, r0, r1
48006dac:	e51b001c 	ldr	r0, [fp, #-28]
48006db0:	e0832290 	umull	r2, r3, r0, r2
48006db4:	e0811003 	add	r1, r1, r3
48006db8:	e1a03001 	mov	r3, r1
48006dbc:	e3081040 	movw	r1, #32832	; 0x8040
48006dc0:	e3441801 	movt	r1, #18433	; 0x4801
48006dc4:	e1c100d0 	ldrd	r0, [r1]
48006dc8:	e1a01000 	mov	r1, r0
48006dcc:	e261c020 	rsb	ip, r1, #32
48006dd0:	e2410020 	sub	r0, r1, #32
48006dd4:	e1a04132 	lsr	r4, r2, r1
48006dd8:	e1844c13 	orr	r4, r4, r3, lsl ip
48006ddc:	e1844033 	orr	r4, r4, r3, lsr r0
48006de0:	e1a05133 	lsr	r5, r3, r1
48006de4:	e14b42f4 	strd	r4, [fp, #-36]	; 0xffffffdc
48006de8:	e3083058 	movw	r3, #32856	; 0x8058
48006dec:	e3443801 	movt	r3, #18433	; 0x4801
48006df0:	e1c300d0 	ldrd	r0, [r3]
48006df4:	e14b22d4 	ldrd	r2, [fp, #-36]	; 0xffffffdc
48006df8:	e0900002 	adds	r0, r0, r2
48006dfc:	e0a11003 	adc	r1, r1, r3
48006e00:	e3083058 	movw	r3, #32856	; 0x8058
48006e04:	e3443801 	movt	r3, #18433	; 0x4801
48006e08:	e1c300f0 	strd	r0, [r3]
48006e0c:	e3083058 	movw	r3, #32856	; 0x8058
48006e10:	e3443801 	movt	r3, #18433	; 0x4801
48006e14:	e1c320d0 	ldrd	r2, [r3]
48006e18:	e1a00002 	mov	r0, r2
48006e1c:	e1a01003 	mov	r1, r3
48006e20:	e24bd00c 	sub	sp, fp, #12
48006e24:	e8bd8830 	pop	{r4, r5, fp, pc}

48006e28 <sp804_irqhndl>:
48006e28:	e92d4830 	push	{r4, r5, fp, lr}
48006e2c:	e28db00c 	add	fp, sp, #12
48006e30:	e24dd010 	sub	sp, sp, #16
48006e34:	e50b0018 	str	r0, [fp, #-24]
48006e38:	e50b101c 	str	r1, [fp, #-28]
48006e3c:	ebffffb4 	bl	48006d14 <sp804_timestamp>
48006e40:	e14b01f4 	strd	r0, [fp, #-20]	; 0xffffffec
48006e44:	e3083028 	movw	r3, #32808	; 0x8028
48006e48:	e3443801 	movt	r3, #18433	; 0x4801
48006e4c:	e1c320d0 	ldrd	r2, [r3]
48006e50:	e1921003 	orrs	r1, r2, r3
48006e54:	1a000003 	bne	48006e68 <sp804_irqhndl+0x40>
48006e58:	e3083028 	movw	r3, #32808	; 0x8028
48006e5c:	e3443801 	movt	r3, #18433	; 0x4801
48006e60:	e14b01d4 	ldrd	r0, [fp, #-20]	; 0xffffffec
48006e64:	e1c300f0 	strd	r0, [r3]
48006e68:	e3083020 	movw	r3, #32800	; 0x8020
48006e6c:	e3443801 	movt	r3, #18433	; 0x4801
48006e70:	e1c320d0 	ldrd	r2, [r3]
48006e74:	e3530000 	cmp	r3, #0
48006e78:	03520c01 	cmpeq	r2, #256	; 0x100
48006e7c:	1a000014 	bne	48006ed4 <sp804_irqhndl+0xac>
48006e80:	e3083028 	movw	r3, #32808	; 0x8028
48006e84:	e3443801 	movt	r3, #18433	; 0x4801
48006e88:	e1c320d0 	ldrd	r2, [r3]
48006e8c:	e14b01d4 	ldrd	r0, [fp, #-20]	; 0xffffffec
48006e90:	e0502002 	subs	r2, r0, r2
48006e94:	e0c13003 	sbc	r3, r1, r3
48006e98:	e1a04422 	lsr	r4, r2, #8
48006e9c:	e1844c03 	orr	r4, r4, r3, lsl #24
48006ea0:	e1a05423 	lsr	r5, r3, #8
48006ea4:	e3083030 	movw	r3, #32816	; 0x8030
48006ea8:	e3443801 	movt	r3, #18433	; 0x4801
48006eac:	e1c340f0 	strd	r4, [r3]
48006eb0:	e3083020 	movw	r3, #32800	; 0x8020
48006eb4:	e3443801 	movt	r3, #18433	; 0x4801
48006eb8:	e3a00000 	mov	r0, #0
48006ebc:	e3a01000 	mov	r1, #0
48006ec0:	e1c300f0 	strd	r0, [r3]
48006ec4:	e3083028 	movw	r3, #32808	; 0x8028
48006ec8:	e3443801 	movt	r3, #18433	; 0x4801
48006ecc:	e14b01d4 	ldrd	r0, [fp, #-20]	; 0xffffffec
48006ed0:	e1c300f0 	strd	r0, [r3]
48006ed4:	e3083020 	movw	r3, #32800	; 0x8020
48006ed8:	e3443801 	movt	r3, #18433	; 0x4801
48006edc:	e1c320d0 	ldrd	r2, [r3]
48006ee0:	e2920001 	adds	r0, r2, #1
48006ee4:	e2a31000 	adc	r1, r3, #0
48006ee8:	e3083020 	movw	r3, #32800	; 0x8020
48006eec:	e3443801 	movt	r3, #18433	; 0x4801
48006ef0:	e1c300f0 	strd	r0, [r3]
48006ef4:	e3083018 	movw	r3, #32792	; 0x8018
48006ef8:	e3443801 	movt	r3, #18433	; 0x4801
48006efc:	e1c320d0 	ldrd	r2, [r3]
48006f00:	e2920001 	adds	r0, r2, #1
48006f04:	e2a31000 	adc	r1, r3, #0
48006f08:	e3083018 	movw	r3, #32792	; 0x8018
48006f0c:	e3443801 	movt	r3, #18433	; 0x4801
48006f10:	e1c300f0 	strd	r0, [r3]
48006f14:	e3083010 	movw	r3, #32784	; 0x8010
48006f18:	e3443801 	movt	r3, #18433	; 0x4801
48006f1c:	e5933000 	ldr	r3, [r3]
48006f20:	e283300c 	add	r3, r3, #12
48006f24:	e3a00001 	mov	r0, #1
48006f28:	e1a01003 	mov	r1, r3
48006f2c:	ebffff21 	bl	48006bb8 <arm_writel>
48006f30:	e3a03000 	mov	r3, #0
48006f34:	e1a00003 	mov	r0, r3
48006f38:	e24bd00c 	sub	sp, fp, #12
48006f3c:	e8bd8830 	pop	{r4, r5, fp, pc}

48006f40 <sp804_init>:
48006f40:	e92d4800 	push	{fp, lr}
48006f44:	e28db004 	add	fp, sp, #4
48006f48:	e24dd018 	sub	sp, sp, #24
48006f4c:	e50b0010 	str	r0, [fp, #-16]
48006f50:	e50b1014 	str	r1, [fp, #-20]
48006f54:	e50b2018 	str	r2, [fp, #-24]
48006f58:	e3083010 	movw	r3, #32784	; 0x8010
48006f5c:	e3443801 	movt	r3, #18433	; 0x4801
48006f60:	e51b2014 	ldr	r2, [fp, #-20]
48006f64:	e5832000 	str	r2, [r3]
48006f68:	e3083038 	movw	r3, #32824	; 0x8038
48006f6c:	e3443801 	movt	r3, #18433	; 0x4801
48006f70:	e1cb00d4 	ldrd	r0, [fp, #4]
48006f74:	e1c300f0 	strd	r0, [r3]
48006f78:	e3083040 	movw	r3, #32832	; 0x8040
48006f7c:	e3443801 	movt	r3, #18433	; 0x4801
48006f80:	e1cb01d4 	ldrd	r0, [fp, #20]
48006f84:	e1c300f0 	strd	r0, [r3]
48006f88:	e3083048 	movw	r3, #32840	; 0x8048
48006f8c:	e3443801 	movt	r3, #18433	; 0x4801
48006f90:	e1cb00dc 	ldrd	r0, [fp, #12]
48006f94:	e1c300f0 	strd	r0, [r3]
48006f98:	e3083050 	movw	r3, #32848	; 0x8050
48006f9c:	e3443801 	movt	r3, #18433	; 0x4801
48006fa0:	e3a00000 	mov	r0, #0
48006fa4:	e3a01000 	mov	r1, #0
48006fa8:	e1c300f0 	strd	r0, [r3]
48006fac:	e3083058 	movw	r3, #32856	; 0x8058
48006fb0:	e3443801 	movt	r3, #18433	; 0x4801
48006fb4:	e3a00000 	mov	r0, #0
48006fb8:	e3a01000 	mov	r1, #0
48006fbc:	e1c300f0 	strd	r0, [r3]
48006fc0:	e3083014 	movw	r3, #32788	; 0x8014
48006fc4:	e3443801 	movt	r3, #18433	; 0x4801
48006fc8:	e51b2018 	ldr	r2, [fp, #-24]
48006fcc:	e5832000 	str	r2, [r3]
48006fd0:	e3083018 	movw	r3, #32792	; 0x8018
48006fd4:	e3443801 	movt	r3, #18433	; 0x4801
48006fd8:	e3a00000 	mov	r0, #0
48006fdc:	e3a01000 	mov	r1, #0
48006fe0:	e1c300f0 	strd	r0, [r3]
48006fe4:	e3083020 	movw	r3, #32800	; 0x8020
48006fe8:	e3443801 	movt	r3, #18433	; 0x4801
48006fec:	e3a00000 	mov	r0, #0
48006ff0:	e3a01000 	mov	r1, #0
48006ff4:	e1c300f0 	strd	r0, [r3]
48006ff8:	e3083028 	movw	r3, #32808	; 0x8028
48006ffc:	e3443801 	movt	r3, #18433	; 0x4801
48007000:	e3a00000 	mov	r0, #0
48007004:	e3a01000 	mov	r1, #0
48007008:	e1c300f0 	strd	r0, [r3]
4800700c:	e3083030 	movw	r3, #32816	; 0x8030
48007010:	e3443801 	movt	r3, #18433	; 0x4801
48007014:	e3a00000 	mov	r0, #0
48007018:	e3a01000 	mov	r1, #0
4800701c:	e1c300f0 	strd	r0, [r3]
48007020:	e3083014 	movw	r3, #32788	; 0x8014
48007024:	e3443801 	movt	r3, #18433	; 0x4801
48007028:	e5933000 	ldr	r3, [r3]
4800702c:	e1a00003 	mov	r0, r3
48007030:	e3061e28 	movw	r1, #28200	; 0x6e28
48007034:	e3441800 	movt	r1, #18432	; 0x4800
48007038:	eb000996 	bl	48009698 <arm_irq_register>
4800703c:	e3083010 	movw	r3, #32784	; 0x8010
48007040:	e3443801 	movt	r3, #18433	; 0x4801
48007044:	e5933000 	ldr	r3, [r3]
48007048:	e2833008 	add	r3, r3, #8
4800704c:	e1a00003 	mov	r0, r3
48007050:	ebfffece 	bl	48006b90 <arm_readl>
48007054:	e50b0008 	str	r0, [fp, #-8]
48007058:	e51b3008 	ldr	r3, [fp, #-8]
4800705c:	e3c33080 	bic	r3, r3, #128	; 0x80
48007060:	e50b3008 	str	r3, [fp, #-8]
48007064:	e51b3008 	ldr	r3, [fp, #-8]
48007068:	e3833062 	orr	r3, r3, #98	; 0x62
4800706c:	e50b3008 	str	r3, [fp, #-8]
48007070:	e3083010 	movw	r3, #32784	; 0x8010
48007074:	e3443801 	movt	r3, #18433	; 0x4801
48007078:	e5933000 	ldr	r3, [r3]
4800707c:	e2833008 	add	r3, r3, #8
48007080:	e51b0008 	ldr	r0, [fp, #-8]
48007084:	e1a01003 	mov	r1, r3
48007088:	ebfffeca 	bl	48006bb8 <arm_writel>
4800708c:	e51b0010 	ldr	r0, [fp, #-16]
48007090:	ebfffeff 	bl	48006c94 <sp804_change_period>
48007094:	e3083010 	movw	r3, #32784	; 0x8010
48007098:	e3443801 	movt	r3, #18433	; 0x4801
4800709c:	e5933000 	ldr	r3, [r3]
480070a0:	e2833028 	add	r3, r3, #40	; 0x28
480070a4:	e3a00000 	mov	r0, #0
480070a8:	e1a01003 	mov	r1, r3
480070ac:	ebfffec1 	bl	48006bb8 <arm_writel>
480070b0:	e3083010 	movw	r3, #32784	; 0x8010
480070b4:	e3443801 	movt	r3, #18433	; 0x4801
480070b8:	e5933000 	ldr	r3, [r3]
480070bc:	e2833020 	add	r3, r3, #32
480070c0:	e3e00000 	mvn	r0, #0
480070c4:	e1a01003 	mov	r1, r3
480070c8:	ebfffeba 	bl	48006bb8 <arm_writel>
480070cc:	e3a030c2 	mov	r3, #194	; 0xc2
480070d0:	e50b3008 	str	r3, [fp, #-8]
480070d4:	e3083010 	movw	r3, #32784	; 0x8010
480070d8:	e3443801 	movt	r3, #18433	; 0x4801
480070dc:	e5933000 	ldr	r3, [r3]
480070e0:	e2833028 	add	r3, r3, #40	; 0x28
480070e4:	e51b0008 	ldr	r0, [fp, #-8]
480070e8:	e1a01003 	mov	r1, r3
480070ec:	ebfffeb1 	bl	48006bb8 <arm_writel>
480070f0:	e3a03000 	mov	r3, #0
480070f4:	e1a00003 	mov	r0, r3
480070f8:	e24bd004 	sub	sp, fp, #4
480070fc:	e8bd8800 	pop	{fp, pc}

48007100 <arm_readl>:
48007100:	e52db004 	push	{fp}		; (str fp, [sp, #-4]!)
48007104:	e28db000 	add	fp, sp, #0
48007108:	e24dd00c 	sub	sp, sp, #12
4800710c:	e50b0008 	str	r0, [fp, #-8]
48007110:	e51b3008 	ldr	r3, [fp, #-8]
48007114:	e5933000 	ldr	r3, [r3]
48007118:	e1a00003 	mov	r0, r3
4800711c:	e24bd000 	sub	sp, fp, #0
48007120:	e49db004 	pop	{fp}		; (ldr fp, [sp], #4)
48007124:	e12fff1e 	bx	lr

48007128 <arm_writel>:
48007128:	e52db004 	push	{fp}		; (str fp, [sp, #-4]!)
4800712c:	e28db000 	add	fp, sp, #0
48007130:	e24dd00c 	sub	sp, sp, #12
48007134:	e50b0008 	str	r0, [fp, #-8]
48007138:	e50b100c 	str	r1, [fp, #-12]
4800713c:	e51b300c 	ldr	r3, [fp, #-12]
48007140:	e51b2008 	ldr	r2, [fp, #-8]
48007144:	e5832000 	str	r2, [r3]
48007148:	e24bd000 	sub	sp, fp, #0
4800714c:	e49db004 	pop	{fp}		; (ldr fp, [sp], #4)
48007150:	e12fff1e 	bx	lr

48007154 <arm_udiv32>:
48007154:	e92d4800 	push	{fp, lr}
48007158:	e28db004 	add	fp, sp, #4
4800715c:	e24dd010 	sub	sp, sp, #16
48007160:	e50b0010 	str	r0, [fp, #-16]
48007164:	e50b1014 	str	r1, [fp, #-20]
48007168:	e24b3008 	sub	r3, fp, #8
4800716c:	e51b0010 	ldr	r0, [fp, #-16]
48007170:	e51b1014 	ldr	r1, [fp, #-20]
48007174:	e1a02003 	mov	r2, r3
48007178:	eb0012a9 	bl	4800bc24 <do_udiv32>
4800717c:	e1a03000 	mov	r3, r0
48007180:	e1a00003 	mov	r0, r3
48007184:	e24bd004 	sub	sp, fp, #4
48007188:	e8bd8800 	pop	{fp, pc}

4800718c <arm_umod32>:
4800718c:	e92d4800 	push	{fp, lr}
48007190:	e28db004 	add	fp, sp, #4
48007194:	e24dd010 	sub	sp, sp, #16
48007198:	e50b0010 	str	r0, [fp, #-16]
4800719c:	e50b1014 	str	r1, [fp, #-20]
480071a0:	e24b3008 	sub	r3, fp, #8
480071a4:	e51b0010 	ldr	r0, [fp, #-16]
480071a8:	e51b1014 	ldr	r1, [fp, #-20]
480071ac:	e1a02003 	mov	r2, r3
480071b0:	eb00129b 	bl	4800bc24 <do_udiv32>
480071b4:	e51b3008 	ldr	r3, [fp, #-8]
480071b8:	e1a00003 	mov	r0, r3
480071bc:	e24bd004 	sub	sp, fp, #4
480071c0:	e8bd8800 	pop	{fp, pc}

480071c4 <pl01x_putc>:
480071c4:	e92d4800 	push	{fp, lr}
480071c8:	e28db004 	add	fp, sp, #4
480071cc:	e24dd010 	sub	sp, sp, #16
480071d0:	e50b0008 	str	r0, [fp, #-8]
480071d4:	e50b100c 	str	r1, [fp, #-12]
480071d8:	e1a03002 	mov	r3, r2
480071dc:	e54b300d 	strb	r3, [fp, #-13]
480071e0:	e1a00000 	nop			; (mov r0, r0)
480071e4:	e51b3008 	ldr	r3, [fp, #-8]
480071e8:	e2833018 	add	r3, r3, #24
480071ec:	e1a00003 	mov	r0, r3
480071f0:	ebffffc2 	bl	48007100 <arm_readl>
480071f4:	e1a03000 	mov	r3, r0
480071f8:	e2033020 	and	r3, r3, #32
480071fc:	e3530000 	cmp	r3, #0
48007200:	1afffff7 	bne	480071e4 <pl01x_putc+0x20>
48007204:	e55b200d 	ldrb	r2, [fp, #-13]
48007208:	e51b3008 	ldr	r3, [fp, #-8]
4800720c:	e1a00002 	mov	r0, r2
48007210:	e1a01003 	mov	r1, r3
48007214:	ebffffc3 	bl	48007128 <arm_writel>
48007218:	e24bd004 	sub	sp, fp, #4
4800721c:	e8bd8800 	pop	{fp, pc}

48007220 <pl01x_getc>:
48007220:	e92d4800 	push	{fp, lr}
48007224:	e28db004 	add	fp, sp, #4
48007228:	e24dd010 	sub	sp, sp, #16
4800722c:	e50b0010 	str	r0, [fp, #-16]
48007230:	e50b1014 	str	r1, [fp, #-20]
48007234:	e1a00000 	nop			; (mov r0, r0)
48007238:	e51b3010 	ldr	r3, [fp, #-16]
4800723c:	e2833018 	add	r3, r3, #24
48007240:	e1a00003 	mov	r0, r3
48007244:	ebffffad 	bl	48007100 <arm_readl>
48007248:	e1a03000 	mov	r3, r0
4800724c:	e2033010 	and	r3, r3, #16
48007250:	e3530000 	cmp	r3, #0
48007254:	1afffff7 	bne	48007238 <pl01x_getc+0x18>
48007258:	e51b3010 	ldr	r3, [fp, #-16]
4800725c:	e1a00003 	mov	r0, r3
48007260:	ebffffa6 	bl	48007100 <arm_readl>
48007264:	e1a03000 	mov	r3, r0
48007268:	e54b3005 	strb	r3, [fp, #-5]
4800726c:	e55b3005 	ldrb	r3, [fp, #-5]
48007270:	e3c330ff 	bic	r3, r3, #255	; 0xff
48007274:	e3530000 	cmp	r3, #0
48007278:	0a000006 	beq	48007298 <pl01x_getc+0x78>
4800727c:	e51b3010 	ldr	r3, [fp, #-16]
48007280:	e2833004 	add	r3, r3, #4
48007284:	e3e00000 	mvn	r0, #0
48007288:	e1a01003 	mov	r1, r3
4800728c:	ebffffa5 	bl	48007128 <arm_writel>
48007290:	e3a030ff 	mov	r3, #255	; 0xff
48007294:	ea000000 	b	4800729c <pl01x_getc+0x7c>
48007298:	e55b3005 	ldrb	r3, [fp, #-5]
4800729c:	e1a00003 	mov	r0, r3
480072a0:	e24bd004 	sub	sp, fp, #4
480072a4:	e8bd8800 	pop	{fp, pc}

480072a8 <pl01x_init>:
480072a8:	e92d4800 	push	{fp, lr}
480072ac:	e28db004 	add	fp, sp, #4
480072b0:	e24dd020 	sub	sp, sp, #32
480072b4:	e50b0018 	str	r0, [fp, #-24]
480072b8:	e50b101c 	str	r1, [fp, #-28]
480072bc:	e50b2020 	str	r2, [fp, #-32]
480072c0:	e50b3024 	str	r3, [fp, #-36]	; 0x24
480072c4:	e51b301c 	ldr	r3, [fp, #-28]
480072c8:	e3530001 	cmp	r3, #1
480072cc:	1a000030 	bne	48007394 <pl01x_init+0xec>
480072d0:	e51b3018 	ldr	r3, [fp, #-24]
480072d4:	e2833030 	add	r3, r3, #48	; 0x30
480072d8:	e3a00000 	mov	r0, #0
480072dc:	e1a01003 	mov	r1, r3
480072e0:	ebffff90 	bl	48007128 <arm_writel>
480072e4:	e51b3020 	ldr	r3, [fp, #-32]
480072e8:	e1a03203 	lsl	r3, r3, #4
480072ec:	e50b300c 	str	r3, [fp, #-12]
480072f0:	e51b0024 	ldr	r0, [fp, #-36]	; 0x24
480072f4:	e51b100c 	ldr	r1, [fp, #-12]
480072f8:	ebffff95 	bl	48007154 <arm_udiv32>
480072fc:	e50b0008 	str	r0, [fp, #-8]
48007300:	e51b0024 	ldr	r0, [fp, #-36]	; 0x24
48007304:	e51b100c 	ldr	r1, [fp, #-12]
48007308:	ebffff9f 	bl	4800718c <arm_umod32>
4800730c:	e50b0010 	str	r0, [fp, #-16]
48007310:	e51b3010 	ldr	r3, [fp, #-16]
48007314:	e1a03183 	lsl	r3, r3, #3
48007318:	e1a00003 	mov	r0, r3
4800731c:	e51b1020 	ldr	r1, [fp, #-32]
48007320:	ebffff8b 	bl	48007154 <arm_udiv32>
48007324:	e50b000c 	str	r0, [fp, #-12]
48007328:	e51b300c 	ldr	r3, [fp, #-12]
4800732c:	e1a020a3 	lsr	r2, r3, #1
48007330:	e51b300c 	ldr	r3, [fp, #-12]
48007334:	e2033001 	and	r3, r3, #1
48007338:	e0823003 	add	r3, r2, r3
4800733c:	e50b3014 	str	r3, [fp, #-20]
48007340:	e51b3018 	ldr	r3, [fp, #-24]
48007344:	e2833024 	add	r3, r3, #36	; 0x24
48007348:	e51b0008 	ldr	r0, [fp, #-8]
4800734c:	e1a01003 	mov	r1, r3
48007350:	ebffff74 	bl	48007128 <arm_writel>
48007354:	e51b3018 	ldr	r3, [fp, #-24]
48007358:	e2833028 	add	r3, r3, #40	; 0x28
4800735c:	e51b0014 	ldr	r0, [fp, #-20]
48007360:	e1a01003 	mov	r1, r3
48007364:	ebffff6f 	bl	48007128 <arm_writel>
48007368:	e51b3018 	ldr	r3, [fp, #-24]
4800736c:	e283302c 	add	r3, r3, #44	; 0x2c
48007370:	e3a00070 	mov	r0, #112	; 0x70
48007374:	e1a01003 	mov	r1, r3
48007378:	ebffff6a 	bl	48007128 <arm_writel>
4800737c:	e51b3018 	ldr	r3, [fp, #-24]
48007380:	e2833030 	add	r3, r3, #48	; 0x30
48007384:	e3000301 	movw	r0, #769	; 0x301
48007388:	e1a01003 	mov	r1, r3
4800738c:	ebffff65 	bl	48007128 <arm_writel>
48007390:	ea00003f 	b	48007494 <pl01x_init+0x1ec>
48007394:	e51b3018 	ldr	r3, [fp, #-24]
48007398:	e2833014 	add	r3, r3, #20
4800739c:	e3a00000 	mov	r0, #0
480073a0:	e1a01003 	mov	r1, r3
480073a4:	ebffff5f 	bl	48007128 <arm_writel>
480073a8:	e51b3020 	ldr	r3, [fp, #-32]
480073ac:	e3530c96 	cmp	r3, #38400	; 0x9600
480073b0:	0a000013 	beq	48007404 <pl01x_init+0x15c>
480073b4:	e3530c96 	cmp	r3, #38400	; 0x9600
480073b8:	8a000004 	bhi	480073d0 <pl01x_init+0x128>
480073bc:	e3530d96 	cmp	r3, #9600	; 0x2580
480073c0:	0a000009 	beq	480073ec <pl01x_init+0x144>
480073c4:	e3530c4b 	cmp	r3, #19200	; 0x4b00
480073c8:	0a00000a 	beq	480073f8 <pl01x_init+0x150>
480073cc:	ea000015 	b	48007428 <pl01x_init+0x180>
480073d0:	e3530ce1 	cmp	r3, #57600	; 0xe100
480073d4:	0a00000d 	beq	48007410 <pl01x_init+0x168>
480073d8:	e3a02cc2 	mov	r2, #49664	; 0xc200
480073dc:	e3402001 	movt	r2, #1
480073e0:	e1530002 	cmp	r3, r2
480073e4:	0a00000c 	beq	4800741c <pl01x_init+0x174>
480073e8:	ea00000e 	b	48007428 <pl01x_init+0x180>
480073ec:	e3a0305f 	mov	r3, #95	; 0x5f
480073f0:	e50b3008 	str	r3, [fp, #-8]
480073f4:	ea00000d 	b	48007430 <pl01x_init+0x188>
480073f8:	e3a0305f 	mov	r3, #95	; 0x5f
480073fc:	e50b3008 	str	r3, [fp, #-8]
48007400:	ea00000a 	b	48007430 <pl01x_init+0x188>
48007404:	e3a03017 	mov	r3, #23
48007408:	e50b3008 	str	r3, [fp, #-8]
4800740c:	ea000007 	b	48007430 <pl01x_init+0x188>
48007410:	e3a0300f 	mov	r3, #15
48007414:	e50b3008 	str	r3, [fp, #-8]
48007418:	ea000004 	b	48007430 <pl01x_init+0x188>
4800741c:	e3a03007 	mov	r3, #7
48007420:	e50b3008 	str	r3, [fp, #-8]
48007424:	ea000001 	b	48007430 <pl01x_init+0x188>
48007428:	e3a03017 	mov	r3, #23
4800742c:	e50b3008 	str	r3, [fp, #-8]
48007430:	e51b3008 	ldr	r3, [fp, #-8]
48007434:	e2033c0f 	and	r3, r3, #3840	; 0xf00
48007438:	e1a02423 	lsr	r2, r3, #8
4800743c:	e51b3018 	ldr	r3, [fp, #-24]
48007440:	e283300c 	add	r3, r3, #12
48007444:	e1a00002 	mov	r0, r2
48007448:	e1a01003 	mov	r1, r3
4800744c:	ebffff35 	bl	48007128 <arm_writel>
48007450:	e51b3008 	ldr	r3, [fp, #-8]
48007454:	e6ef2073 	uxtb	r2, r3
48007458:	e51b3018 	ldr	r3, [fp, #-24]
4800745c:	e2833010 	add	r3, r3, #16
48007460:	e1a00002 	mov	r0, r2
48007464:	e1a01003 	mov	r1, r3
48007468:	ebffff2e 	bl	48007128 <arm_writel>
4800746c:	e51b3018 	ldr	r3, [fp, #-24]
48007470:	e2833008 	add	r3, r3, #8
48007474:	e3a00070 	mov	r0, #112	; 0x70
48007478:	e1a01003 	mov	r1, r3
4800747c:	ebffff29 	bl	48007128 <arm_writel>
48007480:	e51b3018 	ldr	r3, [fp, #-24]
48007484:	e2833014 	add	r3, r3, #20
48007488:	e3a00001 	mov	r0, #1
4800748c:	e1a01003 	mov	r1, r3
48007490:	ebffff24 	bl	48007128 <arm_writel>
48007494:	e24bd004 	sub	sp, fp, #4
48007498:	e8bd8800 	pop	{fp, pc}

4800749c <arm_timer_enable>:
4800749c:	e92d4800 	push	{fp, lr}
480074a0:	e28db004 	add	fp, sp, #4
480074a4:	ebfffb58 	bl	4800620c <arm_board_timer_enable>
480074a8:	e8bd8800 	pop	{fp, pc}

480074ac <arm_timer_disable>:
480074ac:	e92d4800 	push	{fp, lr}
480074b0:	e28db004 	add	fp, sp, #4
480074b4:	ebfffb59 	bl	48006220 <arm_board_timer_disable>
480074b8:	e8bd8800 	pop	{fp, pc}

480074bc <arm_timer_irqcount>:
480074bc:	e92d4800 	push	{fp, lr}
480074c0:	e28db004 	add	fp, sp, #4
480074c4:	ebfffb5a 	bl	48006234 <arm_board_timer_irqcount>
480074c8:	e1a02000 	mov	r2, r0
480074cc:	e1a03001 	mov	r3, r1
480074d0:	e1a00002 	mov	r0, r2
480074d4:	e1a01003 	mov	r1, r3
480074d8:	e8bd8800 	pop	{fp, pc}

480074dc <arm_timer_irqdelay>:
480074dc:	e92d4800 	push	{fp, lr}
480074e0:	e28db004 	add	fp, sp, #4
480074e4:	ebfffb5a 	bl	48006254 <arm_board_timer_irqdelay>
480074e8:	e1a02000 	mov	r2, r0
480074ec:	e1a03001 	mov	r3, r1
480074f0:	e1a00002 	mov	r0, r2
480074f4:	e1a01003 	mov	r1, r3
480074f8:	e8bd8800 	pop	{fp, pc}

480074fc <arm_timer_timestamp>:
480074fc:	e92d4800 	push	{fp, lr}
48007500:	e28db004 	add	fp, sp, #4
48007504:	ebfffb5a 	bl	48006274 <arm_board_timer_timestamp>
48007508:	e1a02000 	mov	r2, r0
4800750c:	e1a03001 	mov	r3, r1
48007510:	e1a00002 	mov	r0, r2
48007514:	e1a01003 	mov	r1, r3
48007518:	e8bd8800 	pop	{fp, pc}

4800751c <arm_timer_init>:
4800751c:	e92d4800 	push	{fp, lr}
48007520:	e28db004 	add	fp, sp, #4
48007524:	e24dd008 	sub	sp, sp, #8
48007528:	e50b0008 	str	r0, [fp, #-8]
4800752c:	e51b0008 	ldr	r0, [fp, #-8]
48007530:	ebfffb60 	bl	480062b8 <arm_board_timer_init>
48007534:	e1a03000 	mov	r3, r0
48007538:	e1a00003 	mov	r0, r3
4800753c:	e24bd004 	sub	sp, fp, #4
48007540:	e8bd8800 	pop	{fp, pc}

48007544 <arm_timer_change_period>:
48007544:	e92d4800 	push	{fp, lr}
48007548:	e28db004 	add	fp, sp, #4
4800754c:	e24dd008 	sub	sp, sp, #8
48007550:	e50b0008 	str	r0, [fp, #-8]
48007554:	e51b0008 	ldr	r0, [fp, #-8]
48007558:	ebfffb4d 	bl	48006294 <arm_board_timer_change_period>
4800755c:	e1a00000 	nop			; (mov r0, r0)
48007560:	e24bd004 	sub	sp, fp, #4
48007564:	e8bd8800 	pop	{fp, pc}

48007568 <arm_udiv64>:
48007568:	e92d4800 	push	{fp, lr}
4800756c:	e28db004 	add	fp, sp, #4
48007570:	e24dd018 	sub	sp, sp, #24
48007574:	e14b00fc 	strd	r0, [fp, #-12]
48007578:	e14b21f4 	strd	r2, [fp, #-20]	; 0xffffffec
4800757c:	e3a03000 	mov	r3, #0
48007580:	e58d3000 	str	r3, [sp]
48007584:	e14b00dc 	ldrd	r0, [fp, #-12]
48007588:	e14b21d4 	ldrd	r2, [fp, #-20]	; 0xffffffec
4800758c:	eb0010aa 	bl	4800b83c <do_udiv64>
48007590:	e1a02000 	mov	r2, r0
48007594:	e1a03001 	mov	r3, r1
48007598:	e1a00002 	mov	r0, r2
4800759c:	e1a01003 	mov	r1, r3
480075a0:	e24bd004 	sub	sp, fp, #4
480075a4:	e8bd8800 	pop	{fp, pc}

480075a8 <arm_init>:
480075a8:	e92d4800 	push	{fp, lr}
480075ac:	e28db004 	add	fp, sp, #4
480075b0:	eb00076d 	bl	4800936c <arm_heap_init>
480075b4:	eb000863 	bl	48009748 <arm_irq_disable>
480075b8:	eb0007d3 	bl	4800950c <arm_irq_setup>
480075bc:	eb00086d 	bl	48009778 <arm_stdio_init>
480075c0:	e3020710 	movw	r0, #10000	; 0x2710
480075c4:	ebffffd4 	bl	4800751c <arm_timer_init>
480075c8:	ebfffa72 	bl	48005f98 <arm_board_ram_size>
480075cc:	e1a03000 	mov	r3, r0
480075d0:	e1a02003 	mov	r2, r3
480075d4:	e3083060 	movw	r3, #32864	; 0x8060
480075d8:	e3443801 	movt	r3, #18433	; 0x4801
480075dc:	e5832000 	str	r2, [r3]
480075e0:	ebffffad 	bl	4800749c <arm_timer_enable>
480075e4:	eb000851 	bl	48009730 <arm_irq_enable>
480075e8:	e8bd8800 	pop	{fp, pc}

480075ec <arm_cmd_help>:
480075ec:	e92d4800 	push	{fp, lr}
480075f0:	e28db004 	add	fp, sp, #4
480075f4:	e24dd008 	sub	sp, sp, #8
480075f8:	e50b0008 	str	r0, [fp, #-8]
480075fc:	e50b100c 	str	r1, [fp, #-12]
48007600:	e3050180 	movw	r0, #20864	; 0x5180
48007604:	e3440801 	movt	r0, #18433	; 0x4801
48007608:	eb000883 	bl	4800981c <arm_puts>
4800760c:	e30501b0 	movw	r0, #20912	; 0x51b0
48007610:	e3440801 	movt	r0, #18433	; 0x4801
48007614:	eb000880 	bl	4800981c <arm_puts>
48007618:	e30501b4 	movw	r0, #20916	; 0x51b4
4800761c:	e3440801 	movt	r0, #18433	; 0x4801
48007620:	eb00087d 	bl	4800981c <arm_puts>
48007624:	e30501b0 	movw	r0, #20912	; 0x51b0
48007628:	e3440801 	movt	r0, #18433	; 0x4801
4800762c:	eb00087a 	bl	4800981c <arm_puts>
48007630:	e30501dc 	movw	r0, #20956	; 0x51dc
48007634:	e3440801 	movt	r0, #18433	; 0x4801
48007638:	eb000877 	bl	4800981c <arm_puts>
4800763c:	e30501b0 	movw	r0, #20912	; 0x51b0
48007640:	e3440801 	movt	r0, #18433	; 0x4801
48007644:	eb000874 	bl	4800981c <arm_puts>
48007648:	e3050208 	movw	r0, #21000	; 0x5208
4800764c:	e3440801 	movt	r0, #18433	; 0x4801
48007650:	eb000871 	bl	4800981c <arm_puts>
48007654:	e305024c 	movw	r0, #21068	; 0x524c
48007658:	e3440801 	movt	r0, #18433	; 0x4801
4800765c:	eb00086e 	bl	4800981c <arm_puts>
48007660:	e3050274 	movw	r0, #21108	; 0x5274
48007664:	e3440801 	movt	r0, #18433	; 0x4801
48007668:	eb00086b 	bl	4800981c <arm_puts>
4800766c:	e30501b0 	movw	r0, #20912	; 0x51b0
48007670:	e3440801 	movt	r0, #18433	; 0x4801
48007674:	eb000868 	bl	4800981c <arm_puts>
48007678:	e30502b0 	movw	r0, #21168	; 0x52b0
4800767c:	e3440801 	movt	r0, #18433	; 0x4801
48007680:	eb000865 	bl	4800981c <arm_puts>
48007684:	e30501b0 	movw	r0, #20912	; 0x51b0
48007688:	e3440801 	movt	r0, #18433	; 0x4801
4800768c:	eb000862 	bl	4800981c <arm_puts>
48007690:	e30502dc 	movw	r0, #21212	; 0x52dc
48007694:	e3440801 	movt	r0, #18433	; 0x4801
48007698:	eb00085f 	bl	4800981c <arm_puts>
4800769c:	e30501b0 	movw	r0, #20912	; 0x51b0
480076a0:	e3440801 	movt	r0, #18433	; 0x4801
480076a4:	eb00085c 	bl	4800981c <arm_puts>
480076a8:	e3050318 	movw	r0, #21272	; 0x5318
480076ac:	e3440801 	movt	r0, #18433	; 0x4801
480076b0:	eb000859 	bl	4800981c <arm_puts>
480076b4:	e30501b0 	movw	r0, #20912	; 0x51b0
480076b8:	e3440801 	movt	r0, #18433	; 0x4801
480076bc:	eb000856 	bl	4800981c <arm_puts>
480076c0:	e3050350 	movw	r0, #21328	; 0x5350
480076c4:	e3440801 	movt	r0, #18433	; 0x4801
480076c8:	eb000853 	bl	4800981c <arm_puts>
480076cc:	e30501b0 	movw	r0, #20912	; 0x51b0
480076d0:	e3440801 	movt	r0, #18433	; 0x4801
480076d4:	eb000850 	bl	4800981c <arm_puts>
480076d8:	e3050380 	movw	r0, #21376	; 0x5380
480076dc:	e3440801 	movt	r0, #18433	; 0x4801
480076e0:	eb00084d 	bl	4800981c <arm_puts>
480076e4:	e30501b0 	movw	r0, #20912	; 0x51b0
480076e8:	e3440801 	movt	r0, #18433	; 0x4801
480076ec:	eb00084a 	bl	4800981c <arm_puts>
480076f0:	e30503ac 	movw	r0, #21420	; 0x53ac
480076f4:	e3440801 	movt	r0, #18433	; 0x4801
480076f8:	eb000847 	bl	4800981c <arm_puts>
480076fc:	e30503d4 	movw	r0, #21460	; 0x53d4
48007700:	e3440801 	movt	r0, #18433	; 0x4801
48007704:	eb000844 	bl	4800981c <arm_puts>
48007708:	e30501b0 	movw	r0, #20912	; 0x51b0
4800770c:	e3440801 	movt	r0, #18433	; 0x4801
48007710:	eb000841 	bl	4800981c <arm_puts>
48007714:	e3050404 	movw	r0, #21508	; 0x5404
48007718:	e3440801 	movt	r0, #18433	; 0x4801
4800771c:	eb00083e 	bl	4800981c <arm_puts>
48007720:	e3050438 	movw	r0, #21560	; 0x5438
48007724:	e3440801 	movt	r0, #18433	; 0x4801
48007728:	eb00083b 	bl	4800981c <arm_puts>
4800772c:	e3050464 	movw	r0, #21604	; 0x5464
48007730:	e3440801 	movt	r0, #18433	; 0x4801
48007734:	eb000838 	bl	4800981c <arm_puts>
48007738:	e3050494 	movw	r0, #21652	; 0x5494
4800773c:	e3440801 	movt	r0, #18433	; 0x4801
48007740:	eb000835 	bl	4800981c <arm_puts>
48007744:	e30501b0 	movw	r0, #20912	; 0x51b0
48007748:	e3440801 	movt	r0, #18433	; 0x4801
4800774c:	eb000832 	bl	4800981c <arm_puts>
48007750:	e30504c0 	movw	r0, #21696	; 0x54c0
48007754:	e3440801 	movt	r0, #18433	; 0x4801
48007758:	eb00082f 	bl	4800981c <arm_puts>
4800775c:	e30504f8 	movw	r0, #21752	; 0x54f8
48007760:	e3440801 	movt	r0, #18433	; 0x4801
48007764:	eb00082c 	bl	4800981c <arm_puts>
48007768:	e3050528 	movw	r0, #21800	; 0x5528
4800776c:	e3440801 	movt	r0, #18433	; 0x4801
48007770:	eb000829 	bl	4800981c <arm_puts>
48007774:	e305055c 	movw	r0, #21852	; 0x555c
48007778:	e3440801 	movt	r0, #18433	; 0x4801
4800777c:	eb000826 	bl	4800981c <arm_puts>
48007780:	e3050494 	movw	r0, #21652	; 0x5494
48007784:	e3440801 	movt	r0, #18433	; 0x4801
48007788:	eb000823 	bl	4800981c <arm_puts>
4800778c:	e30501b0 	movw	r0, #20912	; 0x51b0
48007790:	e3440801 	movt	r0, #18433	; 0x4801
48007794:	eb000820 	bl	4800981c <arm_puts>
48007798:	e305058c 	movw	r0, #21900	; 0x558c
4800779c:	e3440801 	movt	r0, #18433	; 0x4801
480077a0:	eb00081d 	bl	4800981c <arm_puts>
480077a4:	e30505c0 	movw	r0, #21952	; 0x55c0
480077a8:	e3440801 	movt	r0, #18433	; 0x4801
480077ac:	eb00081a 	bl	4800981c <arm_puts>
480077b0:	e3050610 	movw	r0, #22032	; 0x5610
480077b4:	e3440801 	movt	r0, #18433	; 0x4801
480077b8:	eb000817 	bl	4800981c <arm_puts>
480077bc:	e3050644 	movw	r0, #22084	; 0x5644
480077c0:	e3440801 	movt	r0, #18433	; 0x4801
480077c4:	eb000814 	bl	4800981c <arm_puts>
480077c8:	e3050684 	movw	r0, #22148	; 0x5684
480077cc:	e3440801 	movt	r0, #18433	; 0x4801
480077d0:	eb000811 	bl	4800981c <arm_puts>
480077d4:	e30501b0 	movw	r0, #20912	; 0x51b0
480077d8:	e3440801 	movt	r0, #18433	; 0x4801
480077dc:	eb00080e 	bl	4800981c <arm_puts>
480077e0:	e30506bc 	movw	r0, #22204	; 0x56bc
480077e4:	e3440801 	movt	r0, #18433	; 0x4801
480077e8:	eb00080b 	bl	4800981c <arm_puts>
480077ec:	e30506fc 	movw	r0, #22268	; 0x56fc
480077f0:	e3440801 	movt	r0, #18433	; 0x4801
480077f4:	eb000808 	bl	4800981c <arm_puts>
480077f8:	e3050610 	movw	r0, #22032	; 0x5610
480077fc:	e3440801 	movt	r0, #18433	; 0x4801
48007800:	eb000805 	bl	4800981c <arm_puts>
48007804:	e305075c 	movw	r0, #22364	; 0x575c
48007808:	e3440801 	movt	r0, #18433	; 0x4801
4800780c:	eb000802 	bl	4800981c <arm_puts>
48007810:	e3050644 	movw	r0, #22084	; 0x5644
48007814:	e3440801 	movt	r0, #18433	; 0x4801
48007818:	eb0007ff 	bl	4800981c <arm_puts>
4800781c:	e3050684 	movw	r0, #22148	; 0x5684
48007820:	e3440801 	movt	r0, #18433	; 0x4801
48007824:	eb0007fc 	bl	4800981c <arm_puts>
48007828:	e30501b0 	movw	r0, #20912	; 0x51b0
4800782c:	e3440801 	movt	r0, #18433	; 0x4801
48007830:	eb0007f9 	bl	4800981c <arm_puts>
48007834:	e305078c 	movw	r0, #22412	; 0x578c
48007838:	e3440801 	movt	r0, #18433	; 0x4801
4800783c:	eb0007f6 	bl	4800981c <arm_puts>
48007840:	e30507bc 	movw	r0, #22460	; 0x57bc
48007844:	e3440801 	movt	r0, #18433	; 0x4801
48007848:	eb0007f3 	bl	4800981c <arm_puts>
4800784c:	e30507f4 	movw	r0, #22516	; 0x57f4
48007850:	e3440801 	movt	r0, #18433	; 0x4801
48007854:	eb0007f0 	bl	4800981c <arm_puts>
48007858:	e30501b0 	movw	r0, #20912	; 0x51b0
4800785c:	e3440801 	movt	r0, #18433	; 0x4801
48007860:	eb0007ed 	bl	4800981c <arm_puts>
48007864:	e305082c 	movw	r0, #22572	; 0x582c
48007868:	e3440801 	movt	r0, #18433	; 0x4801
4800786c:	eb0007ea 	bl	4800981c <arm_puts>
48007870:	e3050860 	movw	r0, #22624	; 0x5860
48007874:	e3440801 	movt	r0, #18433	; 0x4801
48007878:	eb0007e7 	bl	4800981c <arm_puts>
4800787c:	e3050898 	movw	r0, #22680	; 0x5898
48007880:	e3440801 	movt	r0, #18433	; 0x4801
48007884:	eb0007e4 	bl	4800981c <arm_puts>
48007888:	e30501b0 	movw	r0, #20912	; 0x51b0
4800788c:	e3440801 	movt	r0, #18433	; 0x4801
48007890:	eb0007e1 	bl	4800981c <arm_puts>
48007894:	e30508cc 	movw	r0, #22732	; 0x58cc
48007898:	e3440801 	movt	r0, #18433	; 0x4801
4800789c:	eb0007de 	bl	4800981c <arm_puts>
480078a0:	e30508fc 	movw	r0, #22780	; 0x58fc
480078a4:	e3440801 	movt	r0, #18433	; 0x4801
480078a8:	eb0007db 	bl	4800981c <arm_puts>
480078ac:	e30501b0 	movw	r0, #20912	; 0x51b0
480078b0:	e3440801 	movt	r0, #18433	; 0x4801
480078b4:	eb0007d8 	bl	4800981c <arm_puts>
480078b8:	e305091c 	movw	r0, #22812	; 0x591c
480078bc:	e3440801 	movt	r0, #18433	; 0x4801
480078c0:	eb0007d5 	bl	4800981c <arm_puts>
480078c4:	e3050944 	movw	r0, #22852	; 0x5944
480078c8:	e3440801 	movt	r0, #18433	; 0x4801
480078cc:	eb0007d2 	bl	4800981c <arm_puts>
480078d0:	e3050964 	movw	r0, #22884	; 0x5964
480078d4:	e3440801 	movt	r0, #18433	; 0x4801
480078d8:	eb0007cf 	bl	4800981c <arm_puts>
480078dc:	e30501b0 	movw	r0, #20912	; 0x51b0
480078e0:	e3440801 	movt	r0, #18433	; 0x4801
480078e4:	eb0007cc 	bl	4800981c <arm_puts>
480078e8:	e3050990 	movw	r0, #22928	; 0x5990
480078ec:	e3440801 	movt	r0, #18433	; 0x4801
480078f0:	eb0007c9 	bl	4800981c <arm_puts>
480078f4:	e30501b0 	movw	r0, #20912	; 0x51b0
480078f8:	e3440801 	movt	r0, #18433	; 0x4801
480078fc:	eb0007c6 	bl	4800981c <arm_puts>
48007900:	e24bd004 	sub	sp, fp, #4
48007904:	e8bd8800 	pop	{fp, pc}

48007908 <arm_cmd_hi>:
48007908:	e92d4800 	push	{fp, lr}
4800790c:	e28db004 	add	fp, sp, #4
48007910:	e24dd008 	sub	sp, sp, #8
48007914:	e50b0008 	str	r0, [fp, #-8]
48007918:	e50b100c 	str	r1, [fp, #-12]
4800791c:	e51b3008 	ldr	r3, [fp, #-8]
48007920:	e3530001 	cmp	r3, #1
48007924:	0a000003 	beq	48007938 <arm_cmd_hi+0x30>
48007928:	e30509b0 	movw	r0, #22960	; 0x59b0
4800792c:	e3440801 	movt	r0, #18433	; 0x4801
48007930:	eb0007b9 	bl	4800981c <arm_puts>
48007934:	ea000002 	b	48007944 <arm_cmd_hi+0x3c>
48007938:	e30509cc 	movw	r0, #22988	; 0x59cc
4800793c:	e3440801 	movt	r0, #18433	; 0x4801
48007940:	eb0007b5 	bl	4800981c <arm_puts>
48007944:	e24bd004 	sub	sp, fp, #4
48007948:	e8bd8800 	pop	{fp, pc}

4800794c <arm_cmd_hello>:
4800794c:	e92d4800 	push	{fp, lr}
48007950:	e28db004 	add	fp, sp, #4
48007954:	e24dd008 	sub	sp, sp, #8
48007958:	e50b0008 	str	r0, [fp, #-8]
4800795c:	e50b100c 	str	r1, [fp, #-12]
48007960:	e51b3008 	ldr	r3, [fp, #-8]
48007964:	e3530001 	cmp	r3, #1
48007968:	0a000003 	beq	4800797c <arm_cmd_hello+0x30>
4800796c:	e30509d4 	movw	r0, #22996	; 0x59d4
48007970:	e3440801 	movt	r0, #18433	; 0x4801
48007974:	eb0007a8 	bl	4800981c <arm_puts>
48007978:	ea000002 	b	48007988 <arm_cmd_hello+0x3c>
4800797c:	e30509f4 	movw	r0, #23028	; 0x59f4
48007980:	e3440801 	movt	r0, #18433	; 0x4801
48007984:	eb0007a4 	bl	4800981c <arm_puts>
48007988:	e24bd004 	sub	sp, fp, #4
4800798c:	e8bd8800 	pop	{fp, pc}

48007990 <arm_cmd_wfi_test>:
48007990:	e92d4800 	push	{fp, lr}
48007994:	e28db004 	add	fp, sp, #4
48007998:	e24ddf46 	sub	sp, sp, #280	; 0x118
4800799c:	e50b0118 	str	r0, [fp, #-280]	; 0x118
480079a0:	e50b111c 	str	r1, [fp, #-284]	; 0x11c
480079a4:	e3a03ffa 	mov	r3, #1000	; 0x3e8
480079a8:	e50b3008 	str	r3, [fp, #-8]
480079ac:	e51b3118 	ldr	r3, [fp, #-280]	; 0x118
480079b0:	e3530002 	cmp	r3, #2
480079b4:	da000003 	ble	480079c8 <arm_cmd_wfi_test+0x38>
480079b8:	e30509f8 	movw	r0, #23032	; 0x59f8
480079bc:	e3440801 	movt	r0, #18433	; 0x4801
480079c0:	eb000795 	bl	4800981c <arm_puts>
480079c4:	ea00002e 	b	48007a84 <arm_cmd_wfi_test+0xf4>
480079c8:	e51b3118 	ldr	r3, [fp, #-280]	; 0x118
480079cc:	e3530002 	cmp	r3, #2
480079d0:	1a000005 	bne	480079ec <arm_cmd_wfi_test+0x5c>
480079d4:	e51b311c 	ldr	r3, [fp, #-284]	; 0x11c
480079d8:	e2833004 	add	r3, r3, #4
480079dc:	e5933000 	ldr	r3, [r3]
480079e0:	e1a00003 	mov	r0, r3
480079e4:	eb000d36 	bl	4800aec4 <arm_str2int>
480079e8:	e50b0008 	str	r0, [fp, #-8]
480079ec:	e3050a20 	movw	r0, #23072	; 0x5a20
480079f0:	e3440801 	movt	r0, #18433	; 0x4801
480079f4:	eb000788 	bl	4800981c <arm_puts>
480079f8:	ebfffeab 	bl	480074ac <arm_timer_disable>
480079fc:	e51b3008 	ldr	r3, [fp, #-8]
48007a00:	e3a02ffa 	mov	r2, #1000	; 0x3e8
48007a04:	e0030392 	mul	r3, r2, r3
48007a08:	e1a00003 	mov	r0, r3
48007a0c:	ebfffecc 	bl	48007544 <arm_timer_change_period>
48007a10:	ebfffea1 	bl	4800749c <arm_timer_enable>
48007a14:	ebfffeb8 	bl	480074fc <arm_timer_timestamp>
48007a18:	e14b01f4 	strd	r0, [fp, #-20]	; 0xffffffec
48007a1c:	eb00074f 	bl	48009760 <arm_irq_wfi>
48007a20:	ebfffeb5 	bl	480074fc <arm_timer_timestamp>
48007a24:	e14b21d4 	ldrd	r2, [fp, #-20]	; 0xffffffec
48007a28:	e0502002 	subs	r2, r0, r2
48007a2c:	e0c13003 	sbc	r3, r1, r3
48007a30:	e14b21f4 	strd	r2, [fp, #-20]	; 0xffffffec
48007a34:	ebfffe9c 	bl	480074ac <arm_timer_disable>
48007a38:	e3020710 	movw	r0, #10000	; 0x2710
48007a3c:	ebfffec0 	bl	48007544 <arm_timer_change_period>
48007a40:	ebfffe95 	bl	4800749c <arm_timer_enable>
48007a44:	e3050a3c 	movw	r0, #23100	; 0x5a3c
48007a48:	e3440801 	movt	r0, #18433	; 0x4801
48007a4c:	eb000772 	bl	4800981c <arm_puts>
48007a50:	e3050a5c 	movw	r0, #23132	; 0x5a5c
48007a54:	e3440801 	movt	r0, #18433	; 0x4801
48007a58:	eb00076f 	bl	4800981c <arm_puts>
48007a5c:	e24b3f45 	sub	r3, fp, #276	; 0x114
48007a60:	e1a00003 	mov	r0, r3
48007a64:	e14b21d4 	ldrd	r2, [fp, #-20]	; 0xffffffec
48007a68:	eb000daf 	bl	4800b12c <arm_ulonglong2str>
48007a6c:	e24b3f45 	sub	r3, fp, #276	; 0x114
48007a70:	e1a00003 	mov	r0, r3
48007a74:	eb000768 	bl	4800981c <arm_puts>
48007a78:	e3050a70 	movw	r0, #23152	; 0x5a70
48007a7c:	e3440801 	movt	r0, #18433	; 0x4801
48007a80:	eb000765 	bl	4800981c <arm_puts>
48007a84:	e24bd004 	sub	sp, fp, #4
48007a88:	e8bd8800 	pop	{fp, pc}

48007a8c <arm_cmd_mmu_setup>:
48007a8c:	e92d4800 	push	{fp, lr}
48007a90:	e28db004 	add	fp, sp, #4
48007a94:	e24dd008 	sub	sp, sp, #8
48007a98:	e50b0008 	str	r0, [fp, #-8]
48007a9c:	e50b100c 	str	r1, [fp, #-12]
48007aa0:	e51b3008 	ldr	r3, [fp, #-8]
48007aa4:	e3530001 	cmp	r3, #1
48007aa8:	0a000003 	beq	48007abc <arm_cmd_mmu_setup+0x30>
48007aac:	e3050a78 	movw	r0, #23160	; 0x5a78
48007ab0:	e3440801 	movt	r0, #18433	; 0x4801
48007ab4:	eb000758 	bl	4800981c <arm_puts>
48007ab8:	ea000000 	b	48007ac0 <arm_cmd_mmu_setup+0x34>
48007abc:	ebfff81a 	bl	48005b2c <arm_mmu_setup>
48007ac0:	e24bd004 	sub	sp, fp, #4
48007ac4:	e8bd8800 	pop	{fp, pc}

48007ac8 <arm_cmd_mmu_state>:
48007ac8:	e92d4800 	push	{fp, lr}
48007acc:	e28db004 	add	fp, sp, #4
48007ad0:	e24dd008 	sub	sp, sp, #8
48007ad4:	e50b0008 	str	r0, [fp, #-8]
48007ad8:	e50b100c 	str	r1, [fp, #-12]
48007adc:	e51b3008 	ldr	r3, [fp, #-8]
48007ae0:	e3530001 	cmp	r3, #1
48007ae4:	0a000003 	beq	48007af8 <arm_cmd_mmu_state+0x30>
48007ae8:	e3050a9c 	movw	r0, #23196	; 0x5a9c
48007aec:	e3440801 	movt	r0, #18433	; 0x4801
48007af0:	eb000749 	bl	4800981c <arm_puts>
48007af4:	ea00000a 	b	48007b24 <arm_cmd_mmu_state+0x5c>
48007af8:	ebfff7f9 	bl	48005ae4 <arm_mmu_is_enabled>
48007afc:	e1a03000 	mov	r3, r0
48007b00:	e3530000 	cmp	r3, #0
48007b04:	0a000003 	beq	48007b18 <arm_cmd_mmu_state+0x50>
48007b08:	e3050ac0 	movw	r0, #23232	; 0x5ac0
48007b0c:	e3440801 	movt	r0, #18433	; 0x4801
48007b10:	eb000741 	bl	4800981c <arm_puts>
48007b14:	ea000002 	b	48007b24 <arm_cmd_mmu_state+0x5c>
48007b18:	e3050ad0 	movw	r0, #23248	; 0x5ad0
48007b1c:	e3440801 	movt	r0, #18433	; 0x4801
48007b20:	eb00073d 	bl	4800981c <arm_puts>
48007b24:	e24bd004 	sub	sp, fp, #4
48007b28:	e8bd8800 	pop	{fp, pc}

48007b2c <arm_cmd_mmu_test>:
48007b2c:	e92d4800 	push	{fp, lr}
48007b30:	e28db004 	add	fp, sp, #4
48007b34:	e24dd038 	sub	sp, sp, #56	; 0x38
48007b38:	e50b0038 	str	r0, [fp, #-56]	; 0x38
48007b3c:	e50b103c 	str	r1, [fp, #-60]	; 0x3c
48007b40:	e3a03000 	mov	r3, #0
48007b44:	e50b3028 	str	r3, [fp, #-40]	; 0x28
48007b48:	e3a03000 	mov	r3, #0
48007b4c:	e50b302c 	str	r3, [fp, #-44]	; 0x2c
48007b50:	e3a03000 	mov	r3, #0
48007b54:	e50b3030 	str	r3, [fp, #-48]	; 0x30
48007b58:	e51b3038 	ldr	r3, [fp, #-56]	; 0x38
48007b5c:	e3530001 	cmp	r3, #1
48007b60:	0a000003 	beq	48007b74 <arm_cmd_mmu_test+0x48>
48007b64:	e3050ae0 	movw	r0, #23264	; 0x5ae0
48007b68:	e3440801 	movt	r0, #18433	; 0x4801
48007b6c:	eb00072a 	bl	4800981c <arm_puts>
48007b70:	ea000073 	b	48007d44 <arm_cmd_mmu_test+0x218>
48007b74:	e3050b04 	movw	r0, #23300	; 0x5b04
48007b78:	e3440801 	movt	r0, #18433	; 0x4801
48007b7c:	eb000726 	bl	4800981c <arm_puts>
48007b80:	e3a03000 	mov	r3, #0
48007b84:	e50b3028 	str	r3, [fp, #-40]	; 0x28
48007b88:	e3a03000 	mov	r3, #0
48007b8c:	e50b302c 	str	r3, [fp, #-44]	; 0x2c
48007b90:	e3a03000 	mov	r3, #0
48007b94:	e50b3030 	str	r3, [fp, #-48]	; 0x30
48007b98:	e24b1028 	sub	r1, fp, #40	; 0x28
48007b9c:	e24b202c 	sub	r2, fp, #44	; 0x2c
48007ba0:	e24b3030 	sub	r3, fp, #48	; 0x30
48007ba4:	e1a00001 	mov	r0, r1
48007ba8:	e1a01002 	mov	r1, r2
48007bac:	e1a02003 	mov	r2, r3
48007bb0:	ebfff6ef 	bl	48005774 <arm_mmu_section_test>
48007bb4:	e3050b20 	movw	r0, #23328	; 0x5b20
48007bb8:	e3440801 	movt	r0, #18433	; 0x4801
48007bbc:	eb000716 	bl	4800981c <arm_puts>
48007bc0:	e51b3028 	ldr	r3, [fp, #-40]	; 0x28
48007bc4:	e24b2024 	sub	r2, fp, #36	; 0x24
48007bc8:	e1a00002 	mov	r0, r2
48007bcc:	e1a01003 	mov	r1, r3
48007bd0:	eb000cf3 	bl	4800afa4 <arm_int2str>
48007bd4:	e24b3024 	sub	r3, fp, #36	; 0x24
48007bd8:	e1a00003 	mov	r0, r3
48007bdc:	eb00070e 	bl	4800981c <arm_puts>
48007be0:	e30501b0 	movw	r0, #20912	; 0x51b0
48007be4:	e3440801 	movt	r0, #18433	; 0x4801
48007be8:	eb00070b 	bl	4800981c <arm_puts>
48007bec:	e3050b2c 	movw	r0, #23340	; 0x5b2c
48007bf0:	e3440801 	movt	r0, #18433	; 0x4801
48007bf4:	eb000708 	bl	4800981c <arm_puts>
48007bf8:	e51b302c 	ldr	r3, [fp, #-44]	; 0x2c
48007bfc:	e24b2024 	sub	r2, fp, #36	; 0x24
48007c00:	e1a00002 	mov	r0, r2
48007c04:	e1a01003 	mov	r1, r3
48007c08:	eb000ce5 	bl	4800afa4 <arm_int2str>
48007c0c:	e24b3024 	sub	r3, fp, #36	; 0x24
48007c10:	e1a00003 	mov	r0, r3
48007c14:	eb000700 	bl	4800981c <arm_puts>
48007c18:	e30501b0 	movw	r0, #20912	; 0x51b0
48007c1c:	e3440801 	movt	r0, #18433	; 0x4801
48007c20:	eb0006fd 	bl	4800981c <arm_puts>
48007c24:	e3050b38 	movw	r0, #23352	; 0x5b38
48007c28:	e3440801 	movt	r0, #18433	; 0x4801
48007c2c:	eb0006fa 	bl	4800981c <arm_puts>
48007c30:	e51b3030 	ldr	r3, [fp, #-48]	; 0x30
48007c34:	e24b2024 	sub	r2, fp, #36	; 0x24
48007c38:	e1a00002 	mov	r0, r2
48007c3c:	e1a01003 	mov	r1, r3
48007c40:	eb000cd7 	bl	4800afa4 <arm_int2str>
48007c44:	e24b3024 	sub	r3, fp, #36	; 0x24
48007c48:	e1a00003 	mov	r0, r3
48007c4c:	eb0006f2 	bl	4800981c <arm_puts>
48007c50:	e30501b0 	movw	r0, #20912	; 0x51b0
48007c54:	e3440801 	movt	r0, #18433	; 0x4801
48007c58:	eb0006ef 	bl	4800981c <arm_puts>
48007c5c:	e3050b44 	movw	r0, #23364	; 0x5b44
48007c60:	e3440801 	movt	r0, #18433	; 0x4801
48007c64:	eb0006ec 	bl	4800981c <arm_puts>
48007c68:	e3a03000 	mov	r3, #0
48007c6c:	e50b3028 	str	r3, [fp, #-40]	; 0x28
48007c70:	e3a03000 	mov	r3, #0
48007c74:	e50b302c 	str	r3, [fp, #-44]	; 0x2c
48007c78:	e3a03000 	mov	r3, #0
48007c7c:	e50b3030 	str	r3, [fp, #-48]	; 0x30
48007c80:	e24b1028 	sub	r1, fp, #40	; 0x28
48007c84:	e24b202c 	sub	r2, fp, #44	; 0x2c
48007c88:	e24b3030 	sub	r3, fp, #48	; 0x30
48007c8c:	e1a00001 	mov	r0, r1
48007c90:	e1a01002 	mov	r1, r2
48007c94:	e1a02003 	mov	r2, r3
48007c98:	ebfff723 	bl	4800592c <arm_mmu_page_test>
48007c9c:	e3050b20 	movw	r0, #23328	; 0x5b20
48007ca0:	e3440801 	movt	r0, #18433	; 0x4801
48007ca4:	eb0006dc 	bl	4800981c <arm_puts>
48007ca8:	e51b3028 	ldr	r3, [fp, #-40]	; 0x28
48007cac:	e24b2024 	sub	r2, fp, #36	; 0x24
48007cb0:	e1a00002 	mov	r0, r2
48007cb4:	e1a01003 	mov	r1, r3
48007cb8:	eb000cb9 	bl	4800afa4 <arm_int2str>
48007cbc:	e24b3024 	sub	r3, fp, #36	; 0x24
48007cc0:	e1a00003 	mov	r0, r3
48007cc4:	eb0006d4 	bl	4800981c <arm_puts>
48007cc8:	e30501b0 	movw	r0, #20912	; 0x51b0
48007ccc:	e3440801 	movt	r0, #18433	; 0x4801
48007cd0:	eb0006d1 	bl	4800981c <arm_puts>
48007cd4:	e3050b2c 	movw	r0, #23340	; 0x5b2c
48007cd8:	e3440801 	movt	r0, #18433	; 0x4801
48007cdc:	eb0006ce 	bl	4800981c <arm_puts>
48007ce0:	e51b302c 	ldr	r3, [fp, #-44]	; 0x2c
48007ce4:	e24b2024 	sub	r2, fp, #36	; 0x24
48007ce8:	e1a00002 	mov	r0, r2
48007cec:	e1a01003 	mov	r1, r3
48007cf0:	eb000cab 	bl	4800afa4 <arm_int2str>
48007cf4:	e24b3024 	sub	r3, fp, #36	; 0x24
48007cf8:	e1a00003 	mov	r0, r3
48007cfc:	eb0006c6 	bl	4800981c <arm_puts>
48007d00:	e30501b0 	movw	r0, #20912	; 0x51b0
48007d04:	e3440801 	movt	r0, #18433	; 0x4801
48007d08:	eb0006c3 	bl	4800981c <arm_puts>
48007d0c:	e3050b38 	movw	r0, #23352	; 0x5b38
48007d10:	e3440801 	movt	r0, #18433	; 0x4801
48007d14:	eb0006c0 	bl	4800981c <arm_puts>
48007d18:	e51b3030 	ldr	r3, [fp, #-48]	; 0x30
48007d1c:	e24b2024 	sub	r2, fp, #36	; 0x24
48007d20:	e1a00002 	mov	r0, r2
48007d24:	e1a01003 	mov	r1, r3
48007d28:	eb000c9d 	bl	4800afa4 <arm_int2str>
48007d2c:	e24b3024 	sub	r3, fp, #36	; 0x24
48007d30:	e1a00003 	mov	r0, r3
48007d34:	eb0006b8 	bl	4800981c <arm_puts>
48007d38:	e30501b0 	movw	r0, #20912	; 0x51b0
48007d3c:	e3440801 	movt	r0, #18433	; 0x4801
48007d40:	eb0006b5 	bl	4800981c <arm_puts>
48007d44:	e24bd004 	sub	sp, fp, #4
48007d48:	e8bd8800 	pop	{fp, pc}

48007d4c <arm_cmd_mmu_cleanup>:
48007d4c:	e92d4800 	push	{fp, lr}
48007d50:	e28db004 	add	fp, sp, #4
48007d54:	e24dd008 	sub	sp, sp, #8
48007d58:	e50b0008 	str	r0, [fp, #-8]
48007d5c:	e50b100c 	str	r1, [fp, #-12]
48007d60:	e51b3008 	ldr	r3, [fp, #-8]
48007d64:	e3530001 	cmp	r3, #1
48007d68:	0a000003 	beq	48007d7c <arm_cmd_mmu_cleanup+0x30>
48007d6c:	e3050b60 	movw	r0, #23392	; 0x5b60
48007d70:	e3440801 	movt	r0, #18433	; 0x4801
48007d74:	eb0006a8 	bl	4800981c <arm_puts>
48007d78:	ea000000 	b	48007d80 <arm_cmd_mmu_cleanup+0x34>
48007d7c:	ebfff827 	bl	48005e20 <arm_mmu_cleanup>
48007d80:	e24bd004 	sub	sp, fp, #4
48007d84:	e8bd8800 	pop	{fp, pc}

48007d88 <arm_cmd_timer>:
48007d88:	e92d4800 	push	{fp, lr}
48007d8c:	e28db004 	add	fp, sp, #4
48007d90:	e24dd040 	sub	sp, sp, #64	; 0x40
48007d94:	e50b0040 	str	r0, [fp, #-64]	; 0x40
48007d98:	e50b1044 	str	r1, [fp, #-68]	; 0x44
48007d9c:	e51b3040 	ldr	r3, [fp, #-64]	; 0x40
48007da0:	e3530001 	cmp	r3, #1
48007da4:	0a000003 	beq	48007db8 <arm_cmd_timer+0x30>
48007da8:	e3050b88 	movw	r0, #23432	; 0x5b88
48007dac:	e3440801 	movt	r0, #18433	; 0x4801
48007db0:	eb000699 	bl	4800981c <arm_puts>
48007db4:	ea00002f 	b	48007e78 <arm_cmd_timer+0xf0>
48007db8:	ebfffdbf 	bl	480074bc <arm_timer_irqcount>
48007dbc:	e14b00fc 	strd	r0, [fp, #-12]
48007dc0:	ebfffdc5 	bl	480074dc <arm_timer_irqdelay>
48007dc4:	e14b01f4 	strd	r0, [fp, #-20]	; 0xffffffec
48007dc8:	ebfffdcb 	bl	480074fc <arm_timer_timestamp>
48007dcc:	e14b01fc 	strd	r0, [fp, #-28]	; 0xffffffe4
48007dd0:	e3050ba8 	movw	r0, #23464	; 0x5ba8
48007dd4:	e3440801 	movt	r0, #18433	; 0x4801
48007dd8:	eb00068f 	bl	4800981c <arm_puts>
48007ddc:	e3050bc0 	movw	r0, #23488	; 0x5bc0
48007de0:	e3440801 	movt	r0, #18433	; 0x4801
48007de4:	eb00068c 	bl	4800981c <arm_puts>
48007de8:	e24b303c 	sub	r3, fp, #60	; 0x3c
48007dec:	e1a00003 	mov	r0, r3
48007df0:	e14b20dc 	ldrd	r2, [fp, #-12]
48007df4:	eb000db6 	bl	4800b4d4 <arm_ulonglong2hexstr>
48007df8:	e24b303c 	sub	r3, fp, #60	; 0x3c
48007dfc:	e1a00003 	mov	r0, r3
48007e00:	eb000685 	bl	4800981c <arm_puts>
48007e04:	e30501b0 	movw	r0, #20912	; 0x51b0
48007e08:	e3440801 	movt	r0, #18433	; 0x4801
48007e0c:	eb000682 	bl	4800981c <arm_puts>
48007e10:	e3050bd4 	movw	r0, #23508	; 0x5bd4
48007e14:	e3440801 	movt	r0, #18433	; 0x4801
48007e18:	eb00067f 	bl	4800981c <arm_puts>
48007e1c:	e24b303c 	sub	r3, fp, #60	; 0x3c
48007e20:	e1a00003 	mov	r0, r3
48007e24:	e14b21d4 	ldrd	r2, [fp, #-20]	; 0xffffffec
48007e28:	eb000cbf 	bl	4800b12c <arm_ulonglong2str>
48007e2c:	e24b303c 	sub	r3, fp, #60	; 0x3c
48007e30:	e1a00003 	mov	r0, r3
48007e34:	eb000678 	bl	4800981c <arm_puts>
48007e38:	e3050a70 	movw	r0, #23152	; 0x5a70
48007e3c:	e3440801 	movt	r0, #18433	; 0x4801
48007e40:	eb000675 	bl	4800981c <arm_puts>
48007e44:	e3050be4 	movw	r0, #23524	; 0x5be4
48007e48:	e3440801 	movt	r0, #18433	; 0x4801
48007e4c:	eb000672 	bl	4800981c <arm_puts>
48007e50:	e24b303c 	sub	r3, fp, #60	; 0x3c
48007e54:	e1a00003 	mov	r0, r3
48007e58:	e14b21dc 	ldrd	r2, [fp, #-28]	; 0xffffffe4
48007e5c:	eb000d9c 	bl	4800b4d4 <arm_ulonglong2hexstr>
48007e60:	e24b303c 	sub	r3, fp, #60	; 0x3c
48007e64:	e1a00003 	mov	r0, r3
48007e68:	eb00066b 	bl	4800981c <arm_puts>
48007e6c:	e30501b0 	movw	r0, #20912	; 0x51b0
48007e70:	e3440801 	movt	r0, #18433	; 0x4801
48007e74:	eb000668 	bl	4800981c <arm_puts>
48007e78:	e24bd004 	sub	sp, fp, #4
48007e7c:	e8bd8800 	pop	{fp, pc}

48007e80 <arm_cmd_dhrystone>:
48007e80:	e92d4800 	push	{fp, lr}
48007e84:	e28db004 	add	fp, sp, #4
48007e88:	e24dd030 	sub	sp, sp, #48	; 0x30
48007e8c:	e50b0030 	str	r0, [fp, #-48]	; 0x30
48007e90:	e50b1034 	str	r1, [fp, #-52]	; 0x34
48007e94:	e3043240 	movw	r3, #16960	; 0x4240
48007e98:	e340300f 	movt	r3, #15
48007e9c:	e50b3008 	str	r3, [fp, #-8]
48007ea0:	e51b3030 	ldr	r3, [fp, #-48]	; 0x30
48007ea4:	e3530002 	cmp	r3, #2
48007ea8:	da000003 	ble	48007ebc <arm_cmd_dhrystone+0x3c>
48007eac:	e3050bf8 	movw	r0, #23544	; 0x5bf8
48007eb0:	e3440801 	movt	r0, #18433	; 0x4801
48007eb4:	eb000658 	bl	4800981c <arm_puts>
48007eb8:	ea00001d 	b	48007f34 <arm_cmd_dhrystone+0xb4>
48007ebc:	e51b3030 	ldr	r3, [fp, #-48]	; 0x30
48007ec0:	e3530002 	cmp	r3, #2
48007ec4:	1a000006 	bne	48007ee4 <arm_cmd_dhrystone+0x64>
48007ec8:	e51b3034 	ldr	r3, [fp, #-52]	; 0x34
48007ecc:	e2833004 	add	r3, r3, #4
48007ed0:	e5933000 	ldr	r3, [r3]
48007ed4:	e1a00003 	mov	r0, r3
48007ed8:	eb000bf9 	bl	4800aec4 <arm_str2int>
48007edc:	e50b0008 	str	r0, [fp, #-8]
48007ee0:	ea00000f 	b	48007f24 <arm_cmd_dhrystone+0xa4>
48007ee4:	e3050c28 	movw	r0, #23592	; 0x5c28
48007ee8:	e3440801 	movt	r0, #18433	; 0x4801
48007eec:	eb00064a 	bl	4800981c <arm_puts>
48007ef0:	e3050c58 	movw	r0, #23640	; 0x5c58
48007ef4:	e3440801 	movt	r0, #18433	; 0x4801
48007ef8:	eb000647 	bl	4800981c <arm_puts>
48007efc:	e24b3028 	sub	r3, fp, #40	; 0x28
48007f00:	e1a00003 	mov	r0, r3
48007f04:	e51b1008 	ldr	r1, [fp, #-8]
48007f08:	eb000c25 	bl	4800afa4 <arm_int2str>
48007f0c:	e24b3028 	sub	r3, fp, #40	; 0x28
48007f10:	e1a00003 	mov	r0, r3
48007f14:	eb000640 	bl	4800981c <arm_puts>
48007f18:	e3050c74 	movw	r0, #23668	; 0x5c74
48007f1c:	e3440801 	movt	r0, #18433	; 0x4801
48007f20:	eb00063d 	bl	4800981c <arm_puts>
48007f24:	ebfffd60 	bl	480074ac <arm_timer_disable>
48007f28:	e51b0008 	ldr	r0, [fp, #-8]
48007f2c:	eb000fe3 	bl	4800bec0 <dhry_main>
48007f30:	ebfffd59 	bl	4800749c <arm_timer_enable>
48007f34:	e24bd004 	sub	sp, fp, #4
48007f38:	e8bd8800 	pop	{fp, pc}

48007f3c <arm_cmd_hexdump>:
48007f3c:	e92d4800 	push	{fp, lr}
48007f40:	e28db004 	add	fp, sp, #4
48007f44:	e24dd038 	sub	sp, sp, #56	; 0x38
48007f48:	e50b0038 	str	r0, [fp, #-56]	; 0x38
48007f4c:	e50b103c 	str	r1, [fp, #-60]	; 0x3c
48007f50:	e51b3038 	ldr	r3, [fp, #-56]	; 0x38
48007f54:	e3530003 	cmp	r3, #3
48007f58:	0a000003 	beq	48007f6c <arm_cmd_hexdump+0x30>
48007f5c:	e3050c84 	movw	r0, #23684	; 0x5c84
48007f60:	e3440801 	movt	r0, #18433	; 0x4801
48007f64:	eb00062c 	bl	4800981c <arm_puts>
48007f68:	ea00005f 	b	480080ec <arm_cmd_hexdump+0x1b0>
48007f6c:	e51b303c 	ldr	r3, [fp, #-60]	; 0x3c
48007f70:	e2833004 	add	r3, r3, #4
48007f74:	e5933000 	ldr	r3, [r3]
48007f78:	e1a00003 	mov	r0, r3
48007f7c:	eb000cb1 	bl	4800b248 <arm_hexstr2uint>
48007f80:	e1a03000 	mov	r3, r0
48007f84:	e50b3010 	str	r3, [fp, #-16]
48007f88:	e51b303c 	ldr	r3, [fp, #-60]	; 0x3c
48007f8c:	e2833008 	add	r3, r3, #8
48007f90:	e5933000 	ldr	r3, [r3]
48007f94:	e1a00003 	mov	r0, r3
48007f98:	eb000caa 	bl	4800b248 <arm_hexstr2uint>
48007f9c:	e50b0014 	str	r0, [fp, #-20]
48007fa0:	e3a03000 	mov	r3, #0
48007fa4:	e50b3008 	str	r3, [fp, #-8]
48007fa8:	ea000047 	b	480080cc <arm_cmd_hexdump+0x190>
48007fac:	e51b3008 	ldr	r3, [fp, #-8]
48007fb0:	e2033003 	and	r3, r3, #3
48007fb4:	e3530000 	cmp	r3, #0
48007fb8:	1a00001b 	bne	4800802c <arm_cmd_hexdump+0xf0>
48007fbc:	e51b3008 	ldr	r3, [fp, #-8]
48007fc0:	e1a03103 	lsl	r3, r3, #2
48007fc4:	e51b2010 	ldr	r2, [fp, #-16]
48007fc8:	e0823003 	add	r3, r2, r3
48007fcc:	e24b2034 	sub	r2, fp, #52	; 0x34
48007fd0:	e1a00002 	mov	r0, r2
48007fd4:	e1a01003 	mov	r1, r3
48007fd8:	eb000cfe 	bl	4800b3d8 <arm_uint2hexstr>
48007fdc:	e24b3034 	sub	r3, fp, #52	; 0x34
48007fe0:	e1a00003 	mov	r0, r3
48007fe4:	eb000b42 	bl	4800acf4 <arm_strlen>
48007fe8:	e50b000c 	str	r0, [fp, #-12]
48007fec:	ea000005 	b	48008008 <arm_cmd_hexdump+0xcc>
48007ff0:	e3050cb0 	movw	r0, #23728	; 0x5cb0
48007ff4:	e3440801 	movt	r0, #18433	; 0x4801
48007ff8:	eb000607 	bl	4800981c <arm_puts>
48007ffc:	e51b300c 	ldr	r3, [fp, #-12]
48008000:	e2833001 	add	r3, r3, #1
48008004:	e50b300c 	str	r3, [fp, #-12]
48008008:	e51b300c 	ldr	r3, [fp, #-12]
4800800c:	e3530007 	cmp	r3, #7
48008010:	9afffff6 	bls	48007ff0 <arm_cmd_hexdump+0xb4>
48008014:	e24b3034 	sub	r3, fp, #52	; 0x34
48008018:	e1a00003 	mov	r0, r3
4800801c:	eb0005fe 	bl	4800981c <arm_puts>
48008020:	e3050cb4 	movw	r0, #23732	; 0x5cb4
48008024:	e3440801 	movt	r0, #18433	; 0x4801
48008028:	eb0005fb 	bl	4800981c <arm_puts>
4800802c:	e51b3008 	ldr	r3, [fp, #-8]
48008030:	e1a03103 	lsl	r3, r3, #2
48008034:	e51b2010 	ldr	r2, [fp, #-16]
48008038:	e0823003 	add	r3, r2, r3
4800803c:	e5933000 	ldr	r3, [r3]
48008040:	e24b2034 	sub	r2, fp, #52	; 0x34
48008044:	e1a00002 	mov	r0, r2
48008048:	e1a01003 	mov	r1, r3
4800804c:	eb000ce1 	bl	4800b3d8 <arm_uint2hexstr>
48008050:	e24b3034 	sub	r3, fp, #52	; 0x34
48008054:	e1a00003 	mov	r0, r3
48008058:	eb000b25 	bl	4800acf4 <arm_strlen>
4800805c:	e50b000c 	str	r0, [fp, #-12]
48008060:	ea000005 	b	4800807c <arm_cmd_hexdump+0x140>
48008064:	e3050cb0 	movw	r0, #23728	; 0x5cb0
48008068:	e3440801 	movt	r0, #18433	; 0x4801
4800806c:	eb0005ea 	bl	4800981c <arm_puts>
48008070:	e51b300c 	ldr	r3, [fp, #-12]
48008074:	e2833001 	add	r3, r3, #1
48008078:	e50b300c 	str	r3, [fp, #-12]
4800807c:	e51b300c 	ldr	r3, [fp, #-12]
48008080:	e3530007 	cmp	r3, #7
48008084:	9afffff6 	bls	48008064 <arm_cmd_hexdump+0x128>
48008088:	e24b3034 	sub	r3, fp, #52	; 0x34
4800808c:	e1a00003 	mov	r0, r3
48008090:	eb0005e1 	bl	4800981c <arm_puts>
48008094:	e51b3008 	ldr	r3, [fp, #-8]
48008098:	e2033003 	and	r3, r3, #3
4800809c:	e3530003 	cmp	r3, #3
480080a0:	1a000003 	bne	480080b4 <arm_cmd_hexdump+0x178>
480080a4:	e30501b0 	movw	r0, #20912	; 0x51b0
480080a8:	e3440801 	movt	r0, #18433	; 0x4801
480080ac:	eb0005da 	bl	4800981c <arm_puts>
480080b0:	ea000002 	b	480080c0 <arm_cmd_hexdump+0x184>
480080b4:	e3050cb8 	movw	r0, #23736	; 0x5cb8
480080b8:	e3440801 	movt	r0, #18433	; 0x4801
480080bc:	eb0005d6 	bl	4800981c <arm_puts>
480080c0:	e51b3008 	ldr	r3, [fp, #-8]
480080c4:	e2833001 	add	r3, r3, #1
480080c8:	e50b3008 	str	r3, [fp, #-8]
480080cc:	e51b3014 	ldr	r3, [fp, #-20]
480080d0:	e1a02123 	lsr	r2, r3, #2
480080d4:	e51b3008 	ldr	r3, [fp, #-8]
480080d8:	e1520003 	cmp	r2, r3
480080dc:	8affffb2 	bhi	48007fac <arm_cmd_hexdump+0x70>
480080e0:	e30501b0 	movw	r0, #20912	; 0x51b0
480080e4:	e3440801 	movt	r0, #18433	; 0x4801
480080e8:	eb0005cb 	bl	4800981c <arm_puts>
480080ec:	e24bd004 	sub	sp, fp, #4
480080f0:	e8bd8800 	pop	{fp, pc}

480080f4 <arm_cmd_copy>:
480080f4:	e92d4800 	push	{fp, lr}
480080f8:	e28db004 	add	fp, sp, #4
480080fc:	e24ddf4a 	sub	sp, sp, #296	; 0x128
48008100:	e50b0128 	str	r0, [fp, #-296]	; 0x128
48008104:	e50b112c 	str	r1, [fp, #-300]	; 0x12c
48008108:	e51b3128 	ldr	r3, [fp, #-296]	; 0x128
4800810c:	e3530004 	cmp	r3, #4
48008110:	0a000003 	beq	48008124 <arm_cmd_copy+0x30>
48008114:	e3050cbc 	movw	r0, #23740	; 0x5cbc
48008118:	e3440801 	movt	r0, #18433	; 0x4801
4800811c:	eb0005be 	bl	4800981c <arm_puts>
48008120:	ea000063 	b	480082b4 <arm_cmd_copy+0x1c0>
48008124:	e51b312c 	ldr	r3, [fp, #-300]	; 0x12c
48008128:	e2833004 	add	r3, r3, #4
4800812c:	e5933000 	ldr	r3, [r3]
48008130:	e1a00003 	mov	r0, r3
48008134:	eb000c43 	bl	4800b248 <arm_hexstr2uint>
48008138:	e1a03000 	mov	r3, r0
4800813c:	e50b300c 	str	r3, [fp, #-12]
48008140:	e51b300c 	ldr	r3, [fp, #-12]
48008144:	e2033003 	and	r3, r3, #3
48008148:	e3530000 	cmp	r3, #0
4800814c:	0a000003 	beq	48008160 <arm_cmd_copy+0x6c>
48008150:	e3050cec 	movw	r0, #23788	; 0x5cec
48008154:	e3440801 	movt	r0, #18433	; 0x4801
48008158:	eb0005af 	bl	4800981c <arm_puts>
4800815c:	ea000054 	b	480082b4 <arm_cmd_copy+0x1c0>
48008160:	e51b300c 	ldr	r3, [fp, #-12]
48008164:	e50b3010 	str	r3, [fp, #-16]
48008168:	e51b312c 	ldr	r3, [fp, #-300]	; 0x12c
4800816c:	e2833008 	add	r3, r3, #8
48008170:	e5933000 	ldr	r3, [r3]
48008174:	e1a00003 	mov	r0, r3
48008178:	eb000c32 	bl	4800b248 <arm_hexstr2uint>
4800817c:	e1a03000 	mov	r3, r0
48008180:	e50b3014 	str	r3, [fp, #-20]
48008184:	e51b3014 	ldr	r3, [fp, #-20]
48008188:	e2033003 	and	r3, r3, #3
4800818c:	e3530000 	cmp	r3, #0
48008190:	0a000003 	beq	480081a4 <arm_cmd_copy+0xb0>
48008194:	e3050d14 	movw	r0, #23828	; 0x5d14
48008198:	e3440801 	movt	r0, #18433	; 0x4801
4800819c:	eb00059e 	bl	4800981c <arm_puts>
480081a0:	ea000043 	b	480082b4 <arm_cmd_copy+0x1c0>
480081a4:	e51b312c 	ldr	r3, [fp, #-300]	; 0x12c
480081a8:	e283300c 	add	r3, r3, #12
480081ac:	e5933000 	ldr	r3, [r3]
480081b0:	e1a00003 	mov	r0, r3
480081b4:	eb000c23 	bl	4800b248 <arm_hexstr2uint>
480081b8:	e50b0018 	str	r0, [fp, #-24]
480081bc:	ebfffcba 	bl	480074ac <arm_timer_disable>
480081c0:	ebfffccd 	bl	480074fc <arm_timer_timestamp>
480081c4:	e14b02f4 	strd	r0, [fp, #-36]	; 0xffffffdc
480081c8:	e51b2010 	ldr	r2, [fp, #-16]
480081cc:	e51b3018 	ldr	r3, [fp, #-24]
480081d0:	e0823003 	add	r3, r2, r3
480081d4:	e51b0010 	ldr	r0, [fp, #-16]
480081d8:	e1a01003 	mov	r1, r3
480081dc:	ebffe0ff 	bl	480005e0 <arm_clean_invalidate_dcache_mva_range>
480081e0:	e3a03000 	mov	r3, #0
480081e4:	e50b3008 	str	r3, [fp, #-8]
480081e8:	ea00000c 	b	48008220 <arm_cmd_copy+0x12c>
480081ec:	e51b3008 	ldr	r3, [fp, #-8]
480081f0:	e1a03103 	lsl	r3, r3, #2
480081f4:	e51b200c 	ldr	r2, [fp, #-12]
480081f8:	e0823003 	add	r3, r2, r3
480081fc:	e51b2008 	ldr	r2, [fp, #-8]
48008200:	e1a02102 	lsl	r2, r2, #2
48008204:	e51b1014 	ldr	r1, [fp, #-20]
48008208:	e0812002 	add	r2, r1, r2
4800820c:	e5922000 	ldr	r2, [r2]
48008210:	e5832000 	str	r2, [r3]
48008214:	e51b3008 	ldr	r3, [fp, #-8]
48008218:	e2833001 	add	r3, r3, #1
4800821c:	e50b3008 	str	r3, [fp, #-8]
48008220:	e51b3018 	ldr	r3, [fp, #-24]
48008224:	e1a02123 	lsr	r2, r3, #2
48008228:	e51b3008 	ldr	r3, [fp, #-8]
4800822c:	e1520003 	cmp	r2, r3
48008230:	8affffed 	bhi	480081ec <arm_cmd_copy+0xf8>
48008234:	ebfffcb0 	bl	480074fc <arm_timer_timestamp>
48008238:	e14b22d4 	ldrd	r2, [fp, #-36]	; 0xffffffdc
4800823c:	e0502002 	subs	r2, r0, r2
48008240:	e0c13003 	sbc	r3, r1, r3
48008244:	e14b22f4 	strd	r2, [fp, #-36]	; 0xffffffdc
48008248:	e14b02d4 	ldrd	r0, [fp, #-36]	; 0xffffffdc
4800824c:	e3a02ffa 	mov	r2, #1000	; 0x3e8
48008250:	e3a03000 	mov	r3, #0
48008254:	ebfffcc3 	bl	48007568 <arm_udiv64>
48008258:	e14b02f4 	strd	r0, [fp, #-36]	; 0xffffffdc
4800825c:	ebfffc8e 	bl	4800749c <arm_timer_enable>
48008260:	e24b3f49 	sub	r3, fp, #292	; 0x124
48008264:	e1a00003 	mov	r0, r3
48008268:	e14b22d4 	ldrd	r2, [fp, #-36]	; 0xffffffdc
4800826c:	eb000bae 	bl	4800b12c <arm_ulonglong2str>
48008270:	e3050d3c 	movw	r0, #23868	; 0x5d3c
48008274:	e3440801 	movt	r0, #18433	; 0x4801
48008278:	eb000567 	bl	4800981c <arm_puts>
4800827c:	e24b3f49 	sub	r3, fp, #292	; 0x124
48008280:	e1a00003 	mov	r0, r3
48008284:	eb000564 	bl	4800981c <arm_puts>
48008288:	e3050d48 	movw	r0, #23880	; 0x5d48
4800828c:	e3440801 	movt	r0, #18433	; 0x4801
48008290:	eb000561 	bl	4800981c <arm_puts>
48008294:	e51b312c 	ldr	r3, [fp, #-300]	; 0x12c
48008298:	e283300c 	add	r3, r3, #12
4800829c:	e5933000 	ldr	r3, [r3]
480082a0:	e1a00003 	mov	r0, r3
480082a4:	eb00055c 	bl	4800981c <arm_puts>
480082a8:	e3050d54 	movw	r0, #23892	; 0x5d54
480082ac:	e3440801 	movt	r0, #18433	; 0x4801
480082b0:	eb000559 	bl	4800981c <arm_puts>
480082b4:	e24bd004 	sub	sp, fp, #4
480082b8:	e8bd8800 	pop	{fp, pc}

480082bc <arm_cmd_start_linux>:
480082bc:	e92d4810 	push	{r4, fp, lr}
480082c0:	e28db008 	add	fp, sp, #8
480082c4:	e24dd04c 	sub	sp, sp, #76	; 0x4c
480082c8:	e50b0050 	str	r0, [fp, #-80]	; 0x50
480082cc:	e50b1054 	str	r1, [fp, #-84]	; 0x54
480082d0:	ebfff729 	bl	48005f7c <arm_board_ram_start>
480082d4:	e1a03000 	mov	r3, r0
480082d8:	e2833a01 	add	r3, r3, #4096	; 0x1000
480082dc:	e50b301c 	str	r3, [fp, #-28]
480082e0:	e51b3050 	ldr	r3, [fp, #-80]	; 0x50
480082e4:	e3530001 	cmp	r3, #1
480082e8:	ca000006 	bgt	48008308 <arm_cmd_start_linux+0x4c>
480082ec:	e3050d5c 	movw	r0, #23900	; 0x5d5c
480082f0:	e3440801 	movt	r0, #18433	; 0x4801
480082f4:	eb000548 	bl	4800981c <arm_puts>
480082f8:	e3050d88 	movw	r0, #23944	; 0x5d88
480082fc:	e3440801 	movt	r0, #18433	; 0x4801
48008300:	eb000545 	bl	4800981c <arm_puts>
48008304:	ea0000fd 	b	48008700 <arm_cmd_start_linux+0x444>
48008308:	e51b3054 	ldr	r3, [fp, #-84]	; 0x54
4800830c:	e2833004 	add	r3, r3, #4
48008310:	e5933000 	ldr	r3, [r3]
48008314:	e1a00003 	mov	r0, r3
48008318:	eb000bca 	bl	4800b248 <arm_hexstr2uint>
4800831c:	e50b0020 	str	r0, [fp, #-32]
48008320:	e51b3050 	ldr	r3, [fp, #-80]	; 0x50
48008324:	e3530002 	cmp	r3, #2
48008328:	da000006 	ble	48008348 <arm_cmd_start_linux+0x8c>
4800832c:	e51b3054 	ldr	r3, [fp, #-84]	; 0x54
48008330:	e2833008 	add	r3, r3, #8
48008334:	e5933000 	ldr	r3, [r3]
48008338:	e1a00003 	mov	r0, r3
4800833c:	eb000bc1 	bl	4800b248 <arm_hexstr2uint>
48008340:	e50b0014 	str	r0, [fp, #-20]
48008344:	ea000001 	b	48008350 <arm_cmd_start_linux+0x94>
48008348:	e3a03000 	mov	r3, #0
4800834c:	e50b3014 	str	r3, [fp, #-20]
48008350:	e51b3050 	ldr	r3, [fp, #-80]	; 0x50
48008354:	e3530003 	cmp	r3, #3
48008358:	da000006 	ble	48008378 <arm_cmd_start_linux+0xbc>
4800835c:	e51b3054 	ldr	r3, [fp, #-84]	; 0x54
48008360:	e283300c 	add	r3, r3, #12
48008364:	e5933000 	ldr	r3, [r3]
48008368:	e1a00003 	mov	r0, r3
4800836c:	eb000bb5 	bl	4800b248 <arm_hexstr2uint>
48008370:	e50b0018 	str	r0, [fp, #-24]
48008374:	ea000001 	b	48008380 <arm_cmd_start_linux+0xc4>
48008378:	e3a03000 	mov	r3, #0
4800837c:	e50b3018 	str	r3, [fp, #-24]
48008380:	e51b3020 	ldr	r3, [fp, #-32]
48008384:	e1a03a23 	lsr	r3, r3, #20
48008388:	e1a03a03 	lsl	r3, r3, #20
4800838c:	e50b3024 	str	r3, [fp, #-36]	; 0x24
48008390:	e51b3024 	ldr	r3, [fp, #-36]	; 0x24
48008394:	e2833601 	add	r3, r3, #1048576	; 0x100000
48008398:	e51b0024 	ldr	r0, [fp, #-36]	; 0x24
4800839c:	e1a01003 	mov	r1, r3
480083a0:	ebffe08e 	bl	480005e0 <arm_clean_invalidate_dcache_mva_range>
480083a4:	e3a03000 	mov	r3, #0
480083a8:	e50b3010 	str	r3, [fp, #-16]
480083ac:	ea000008 	b	480083d4 <arm_cmd_start_linux+0x118>
480083b0:	e51b3010 	ldr	r3, [fp, #-16]
480083b4:	e1a03103 	lsl	r3, r3, #2
480083b8:	e51b201c 	ldr	r2, [fp, #-28]
480083bc:	e0823003 	add	r3, r2, r3
480083c0:	e3a02000 	mov	r2, #0
480083c4:	e5832000 	str	r2, [r3]
480083c8:	e51b3010 	ldr	r3, [fp, #-16]
480083cc:	e2833001 	add	r3, r3, #1
480083d0:	e50b3010 	str	r3, [fp, #-16]
480083d4:	e51b3010 	ldr	r3, [fp, #-16]
480083d8:	e353007f 	cmp	r3, #127	; 0x7f
480083dc:	9afffff3 	bls	480083b0 <arm_cmd_start_linux+0xf4>
480083e0:	e3a03000 	mov	r3, #0
480083e4:	e50b3010 	str	r3, [fp, #-16]
480083e8:	e51b3010 	ldr	r3, [fp, #-16]
480083ec:	e2832001 	add	r2, r3, #1
480083f0:	e50b2010 	str	r2, [fp, #-16]
480083f4:	e1a03103 	lsl	r3, r3, #2
480083f8:	e51b201c 	ldr	r2, [fp, #-28]
480083fc:	e0823003 	add	r3, r2, r3
48008400:	e3a02005 	mov	r2, #5
48008404:	e5832000 	str	r2, [r3]
48008408:	e51b3010 	ldr	r3, [fp, #-16]
4800840c:	e2832001 	add	r2, r3, #1
48008410:	e50b2010 	str	r2, [fp, #-16]
48008414:	e1a03103 	lsl	r3, r3, #2
48008418:	e51b201c 	ldr	r2, [fp, #-28]
4800841c:	e0822003 	add	r2, r2, r3
48008420:	e3a03001 	mov	r3, #1
48008424:	e3453441 	movt	r3, #21569	; 0x5441
48008428:	e5823000 	str	r3, [r2]
4800842c:	e51b3010 	ldr	r3, [fp, #-16]
48008430:	e2832001 	add	r2, r3, #1
48008434:	e50b2010 	str	r2, [fp, #-16]
48008438:	e1a03103 	lsl	r3, r3, #2
4800843c:	e51b201c 	ldr	r2, [fp, #-28]
48008440:	e0823003 	add	r3, r2, r3
48008444:	e3a02001 	mov	r2, #1
48008448:	e5832000 	str	r2, [r3]
4800844c:	e51b3010 	ldr	r3, [fp, #-16]
48008450:	e2832001 	add	r2, r3, #1
48008454:	e50b2010 	str	r2, [fp, #-16]
48008458:	e1a03103 	lsl	r3, r3, #2
4800845c:	e51b201c 	ldr	r2, [fp, #-28]
48008460:	e0823003 	add	r3, r2, r3
48008464:	e3a02a01 	mov	r2, #4096	; 0x1000
48008468:	e5832000 	str	r2, [r3]
4800846c:	e51b3010 	ldr	r3, [fp, #-16]
48008470:	e2832001 	add	r2, r3, #1
48008474:	e50b2010 	str	r2, [fp, #-16]
48008478:	e1a03103 	lsl	r3, r3, #2
4800847c:	e51b201c 	ldr	r2, [fp, #-28]
48008480:	e0823003 	add	r3, r2, r3
48008484:	e3a02000 	mov	r2, #0
48008488:	e5832000 	str	r2, [r3]
4800848c:	e51b3010 	ldr	r3, [fp, #-16]
48008490:	e2832001 	add	r2, r3, #1
48008494:	e50b2010 	str	r2, [fp, #-16]
48008498:	e1a03103 	lsl	r3, r3, #2
4800849c:	e51b201c 	ldr	r2, [fp, #-28]
480084a0:	e0823003 	add	r3, r2, r3
480084a4:	e3a02004 	mov	r2, #4
480084a8:	e5832000 	str	r2, [r3]
480084ac:	e51b3010 	ldr	r3, [fp, #-16]
480084b0:	e2832001 	add	r2, r3, #1
480084b4:	e50b2010 	str	r2, [fp, #-16]
480084b8:	e1a03103 	lsl	r3, r3, #2
480084bc:	e51b201c 	ldr	r2, [fp, #-28]
480084c0:	e0822003 	add	r2, r2, r3
480084c4:	e3a03002 	mov	r3, #2
480084c8:	e3453441 	movt	r3, #21569	; 0x5441
480084cc:	e5823000 	str	r3, [r2]
480084d0:	e51b3010 	ldr	r3, [fp, #-16]
480084d4:	e2832001 	add	r2, r3, #1
480084d8:	e50b2010 	str	r2, [fp, #-16]
480084dc:	e1a03103 	lsl	r3, r3, #2
480084e0:	e51b201c 	ldr	r2, [fp, #-28]
480084e4:	e0822003 	add	r2, r2, r3
480084e8:	e3083060 	movw	r3, #32864	; 0x8060
480084ec:	e3443801 	movt	r3, #18433	; 0x4801
480084f0:	e5933000 	ldr	r3, [r3]
480084f4:	e5823000 	str	r3, [r2]
480084f8:	e51b3010 	ldr	r3, [fp, #-16]
480084fc:	e2832001 	add	r2, r3, #1
48008500:	e50b2010 	str	r2, [fp, #-16]
48008504:	e1a03103 	lsl	r3, r3, #2
48008508:	e51b201c 	ldr	r2, [fp, #-28]
4800850c:	e0824003 	add	r4, r2, r3
48008510:	ebfff699 	bl	48005f7c <arm_board_ram_start>
48008514:	e1a03000 	mov	r3, r0
48008518:	e5843000 	str	r3, [r4]
4800851c:	e51b3018 	ldr	r3, [fp, #-24]
48008520:	e3530000 	cmp	r3, #0
48008524:	0a000020 	beq	480085ac <arm_cmd_start_linux+0x2f0>
48008528:	e51b3010 	ldr	r3, [fp, #-16]
4800852c:	e2832001 	add	r2, r3, #1
48008530:	e50b2010 	str	r2, [fp, #-16]
48008534:	e1a03103 	lsl	r3, r3, #2
48008538:	e51b201c 	ldr	r2, [fp, #-28]
4800853c:	e0823003 	add	r3, r2, r3
48008540:	e3a02004 	mov	r2, #4
48008544:	e5832000 	str	r2, [r3]
48008548:	e51b3010 	ldr	r3, [fp, #-16]
4800854c:	e2832001 	add	r2, r3, #1
48008550:	e50b2010 	str	r2, [fp, #-16]
48008554:	e1a03103 	lsl	r3, r3, #2
48008558:	e51b201c 	ldr	r2, [fp, #-28]
4800855c:	e0822003 	add	r2, r2, r3
48008560:	e3a03005 	mov	r3, #5
48008564:	e3453442 	movt	r3, #21570	; 0x5442
48008568:	e5823000 	str	r3, [r2]
4800856c:	e51b3010 	ldr	r3, [fp, #-16]
48008570:	e2832001 	add	r2, r3, #1
48008574:	e50b2010 	str	r2, [fp, #-16]
48008578:	e1a03103 	lsl	r3, r3, #2
4800857c:	e51b201c 	ldr	r2, [fp, #-28]
48008580:	e0823003 	add	r3, r2, r3
48008584:	e51b2014 	ldr	r2, [fp, #-20]
48008588:	e5832000 	str	r2, [r3]
4800858c:	e51b3010 	ldr	r3, [fp, #-16]
48008590:	e2832001 	add	r2, r3, #1
48008594:	e50b2010 	str	r2, [fp, #-16]
48008598:	e1a03103 	lsl	r3, r3, #2
4800859c:	e51b201c 	ldr	r2, [fp, #-28]
480085a0:	e0823003 	add	r3, r2, r3
480085a4:	e51b2018 	ldr	r2, [fp, #-24]
480085a8:	e5832000 	str	r2, [r3]
480085ac:	e3083060 	movw	r3, #32864	; 0x8060
480085b0:	e3443801 	movt	r3, #18433	; 0x4801
480085b4:	e5933000 	ldr	r3, [r3]
480085b8:	e1a03a43 	asr	r3, r3, #20
480085bc:	e24b2048 	sub	r2, fp, #72	; 0x48
480085c0:	e1a00002 	mov	r0, r2
480085c4:	e3051dc4 	movw	r1, #24004	; 0x5dc4
480085c8:	e3441801 	movt	r1, #18433	; 0x4801
480085cc:	e1a02003 	mov	r2, r3
480085d0:	eb000855 	bl	4800a72c <arm_sprintf>
480085d4:	e24b3048 	sub	r3, fp, #72	; 0x48
480085d8:	e3080064 	movw	r0, #32868	; 0x8064
480085dc:	e3440801 	movt	r0, #18433	; 0x4801
480085e0:	e1a01003 	mov	r1, r3
480085e4:	eb0009fa 	bl	4800add4 <arm_strcat>
480085e8:	e3080064 	movw	r0, #32868	; 0x8064
480085ec:	e3440801 	movt	r0, #18433	; 0x4801
480085f0:	eb0009bf 	bl	4800acf4 <arm_strlen>
480085f4:	e50b0028 	str	r0, [fp, #-40]	; 0x28
480085f8:	e51b3028 	ldr	r3, [fp, #-40]	; 0x28
480085fc:	e3530000 	cmp	r3, #0
48008600:	0a000022 	beq	48008690 <arm_cmd_start_linux+0x3d4>
48008604:	e51b3010 	ldr	r3, [fp, #-16]
48008608:	e2833002 	add	r3, r3, #2
4800860c:	e1a03103 	lsl	r3, r3, #2
48008610:	e51b201c 	ldr	r2, [fp, #-28]
48008614:	e0823003 	add	r3, r2, r3
48008618:	e1a00003 	mov	r0, r3
4800861c:	e3081064 	movw	r1, #32868	; 0x8064
48008620:	e3441801 	movt	r1, #18433	; 0x4801
48008624:	eb0009c7 	bl	4800ad48 <arm_strcpy>
48008628:	e51b3028 	ldr	r3, [fp, #-40]	; 0x28
4800862c:	e1a03123 	lsr	r3, r3, #2
48008630:	e2833001 	add	r3, r3, #1
48008634:	e50b3028 	str	r3, [fp, #-40]	; 0x28
48008638:	e51b3010 	ldr	r3, [fp, #-16]
4800863c:	e2832001 	add	r2, r3, #1
48008640:	e50b2010 	str	r2, [fp, #-16]
48008644:	e1a03103 	lsl	r3, r3, #2
48008648:	e51b201c 	ldr	r2, [fp, #-28]
4800864c:	e0823003 	add	r3, r2, r3
48008650:	e51b2028 	ldr	r2, [fp, #-40]	; 0x28
48008654:	e2822002 	add	r2, r2, #2
48008658:	e5832000 	str	r2, [r3]
4800865c:	e51b3010 	ldr	r3, [fp, #-16]
48008660:	e2832001 	add	r2, r3, #1
48008664:	e50b2010 	str	r2, [fp, #-16]
48008668:	e1a03103 	lsl	r3, r3, #2
4800866c:	e51b201c 	ldr	r2, [fp, #-28]
48008670:	e0822003 	add	r2, r2, r3
48008674:	e3a03009 	mov	r3, #9
48008678:	e3453441 	movt	r3, #21569	; 0x5441
4800867c:	e5823000 	str	r3, [r2]
48008680:	e51b2010 	ldr	r2, [fp, #-16]
48008684:	e51b3028 	ldr	r3, [fp, #-40]	; 0x28
48008688:	e0823003 	add	r3, r2, r3
4800868c:	e50b3010 	str	r3, [fp, #-16]
48008690:	e51b3010 	ldr	r3, [fp, #-16]
48008694:	e2832001 	add	r2, r3, #1
48008698:	e50b2010 	str	r2, [fp, #-16]
4800869c:	e1a03103 	lsl	r3, r3, #2
480086a0:	e51b201c 	ldr	r2, [fp, #-28]
480086a4:	e0823003 	add	r3, r2, r3
480086a8:	e3a02000 	mov	r2, #0
480086ac:	e5832000 	str	r2, [r3]
480086b0:	e51b3010 	ldr	r3, [fp, #-16]
480086b4:	e2832001 	add	r2, r3, #1
480086b8:	e50b2010 	str	r2, [fp, #-16]
480086bc:	e1a03103 	lsl	r3, r3, #2
480086c0:	e51b201c 	ldr	r2, [fp, #-28]
480086c4:	e0823003 	add	r3, r2, r3
480086c8:	e3a02000 	mov	r2, #0
480086cc:	e5832000 	str	r2, [r3]
480086d0:	ebfffb75 	bl	480074ac <arm_timer_disable>
480086d4:	eb00041b 	bl	48009748 <arm_irq_disable>
480086d8:	e51b4020 	ldr	r4, [fp, #-32]
480086dc:	ebfff634 	bl	48005fb4 <arm_board_linux_machine_type>
480086e0:	e1a02000 	mov	r2, r0
480086e4:	e51b301c 	ldr	r3, [fp, #-28]
480086e8:	e3a00000 	mov	r0, #0
480086ec:	e1a01002 	mov	r1, r2
480086f0:	e1a02003 	mov	r2, r3
480086f4:	e3a03000 	mov	r3, #0
480086f8:	e12fff34 	blx	r4
480086fc:	eafffffe 	b	480086fc <arm_cmd_start_linux+0x440>
48008700:	e24bd008 	sub	sp, fp, #8
48008704:	e8bd8810 	pop	{r4, fp, pc}

48008708 <arm_cmd_start_linux_fdt>:
48008708:	e92d4800 	push	{fp, lr}
4800870c:	e28db004 	add	fp, sp, #4
48008710:	e24dd040 	sub	sp, sp, #64	; 0x40
48008714:	e50b0040 	str	r0, [fp, #-64]	; 0x40
48008718:	e50b1044 	str	r1, [fp, #-68]	; 0x44
4800871c:	e51b3040 	ldr	r3, [fp, #-64]	; 0x40
48008720:	e3530002 	cmp	r3, #2
48008724:	ca000006 	bgt	48008744 <arm_cmd_start_linux_fdt+0x3c>
48008728:	e3050dd0 	movw	r0, #24016	; 0x5dd0
4800872c:	e3440801 	movt	r0, #18433	; 0x4801
48008730:	eb000439 	bl	4800981c <arm_puts>
48008734:	e3050e0c 	movw	r0, #24076	; 0x5e0c
48008738:	e3440801 	movt	r0, #18433	; 0x4801
4800873c:	eb000436 	bl	4800981c <arm_puts>
48008740:	ea00005a 	b	480088b0 <arm_cmd_start_linux_fdt+0x1a8>
48008744:	e51b3044 	ldr	r3, [fp, #-68]	; 0x44
48008748:	e2833004 	add	r3, r3, #4
4800874c:	e5933000 	ldr	r3, [r3]
48008750:	e1a00003 	mov	r0, r3
48008754:	eb000abb 	bl	4800b248 <arm_hexstr2uint>
48008758:	e50b0010 	str	r0, [fp, #-16]
4800875c:	e51b3044 	ldr	r3, [fp, #-68]	; 0x44
48008760:	e2833008 	add	r3, r3, #8
48008764:	e5933000 	ldr	r3, [r3]
48008768:	e1a00003 	mov	r0, r3
4800876c:	eb000ab5 	bl	4800b248 <arm_hexstr2uint>
48008770:	e50b0014 	str	r0, [fp, #-20]
48008774:	e51b3040 	ldr	r3, [fp, #-64]	; 0x40
48008778:	e3530003 	cmp	r3, #3
4800877c:	da000006 	ble	4800879c <arm_cmd_start_linux_fdt+0x94>
48008780:	e51b3044 	ldr	r3, [fp, #-68]	; 0x44
48008784:	e283300c 	add	r3, r3, #12
48008788:	e5933000 	ldr	r3, [r3]
4800878c:	e1a00003 	mov	r0, r3
48008790:	eb000aac 	bl	4800b248 <arm_hexstr2uint>
48008794:	e50b0008 	str	r0, [fp, #-8]
48008798:	ea000001 	b	480087a4 <arm_cmd_start_linux_fdt+0x9c>
4800879c:	e3a03000 	mov	r3, #0
480087a0:	e50b3008 	str	r3, [fp, #-8]
480087a4:	e51b3040 	ldr	r3, [fp, #-64]	; 0x40
480087a8:	e3530004 	cmp	r3, #4
480087ac:	da000006 	ble	480087cc <arm_cmd_start_linux_fdt+0xc4>
480087b0:	e51b3044 	ldr	r3, [fp, #-68]	; 0x44
480087b4:	e2833010 	add	r3, r3, #16
480087b8:	e5933000 	ldr	r3, [r3]
480087bc:	e1a00003 	mov	r0, r3
480087c0:	eb000aa0 	bl	4800b248 <arm_hexstr2uint>
480087c4:	e50b000c 	str	r0, [fp, #-12]
480087c8:	ea000001 	b	480087d4 <arm_cmd_start_linux_fdt+0xcc>
480087cc:	e3a03000 	mov	r3, #0
480087d0:	e50b300c 	str	r3, [fp, #-12]
480087d4:	e51b3010 	ldr	r3, [fp, #-16]
480087d8:	e1a03a23 	lsr	r3, r3, #20
480087dc:	e1a03a03 	lsl	r3, r3, #20
480087e0:	e50b3018 	str	r3, [fp, #-24]
480087e4:	e51b3018 	ldr	r3, [fp, #-24]
480087e8:	e2833601 	add	r3, r3, #1048576	; 0x100000
480087ec:	e51b0018 	ldr	r0, [fp, #-24]
480087f0:	e1a01003 	mov	r1, r3
480087f4:	ebffdf79 	bl	480005e0 <arm_clean_invalidate_dcache_mva_range>
480087f8:	e3083060 	movw	r3, #32864	; 0x8060
480087fc:	e3443801 	movt	r3, #18433	; 0x4801
48008800:	e5933000 	ldr	r3, [r3]
48008804:	e1a03a43 	asr	r3, r3, #20
48008808:	e24b2038 	sub	r2, fp, #56	; 0x38
4800880c:	e1a00002 	mov	r0, r2
48008810:	e3051dc4 	movw	r1, #24004	; 0x5dc4
48008814:	e3441801 	movt	r1, #18433	; 0x4801
48008818:	e1a02003 	mov	r2, r3
4800881c:	eb0007c2 	bl	4800a72c <arm_sprintf>
48008820:	e24b3038 	sub	r3, fp, #56	; 0x38
48008824:	e3080064 	movw	r0, #32868	; 0x8064
48008828:	e3440801 	movt	r0, #18433	; 0x4801
4800882c:	e1a01003 	mov	r1, r3
48008830:	eb000967 	bl	4800add4 <arm_strcat>
48008834:	e51b3014 	ldr	r3, [fp, #-20]
48008838:	e1a00003 	mov	r0, r3
4800883c:	e3a01001 	mov	r1, #1
48008840:	e3082064 	movw	r2, #32868	; 0x8064
48008844:	e3442801 	movt	r2, #18433	; 0x4801
48008848:	eb0025ea 	bl	48011ff8 <fdt_chosen>
4800884c:	e51b300c 	ldr	r3, [fp, #-12]
48008850:	e3530000 	cmp	r3, #0
48008854:	0a000008 	beq	4800887c <arm_cmd_start_linux_fdt+0x174>
48008858:	e51b2014 	ldr	r2, [fp, #-20]
4800885c:	e51b1008 	ldr	r1, [fp, #-8]
48008860:	e51b300c 	ldr	r3, [fp, #-12]
48008864:	e0813003 	add	r3, r1, r3
48008868:	e1a00002 	mov	r0, r2
4800886c:	e51b1008 	ldr	r1, [fp, #-8]
48008870:	e1a02003 	mov	r2, r3
48008874:	e3a03001 	mov	r3, #1
48008878:	eb0024c7 	bl	48011b9c <fdt_initrd>
4800887c:	ebfffb0a 	bl	480074ac <arm_timer_disable>
48008880:	eb0003b0 	bl	48009748 <arm_irq_disable>
48008884:	ebfff565 	bl	48005e20 <arm_mmu_cleanup>
48008888:	e3050e4c 	movw	r0, #24140	; 0x5e4c
4800888c:	e3440801 	movt	r0, #18433	; 0x4801
48008890:	eb0003e1 	bl	4800981c <arm_puts>
48008894:	e51bc010 	ldr	ip, [fp, #-16]
48008898:	e3a00000 	mov	r0, #0
4800889c:	e3e01000 	mvn	r1, #0
480088a0:	e51b2014 	ldr	r2, [fp, #-20]
480088a4:	e3a03000 	mov	r3, #0
480088a8:	e12fff3c 	blx	ip
480088ac:	eafffffe 	b	480088ac <arm_cmd_start_linux_fdt+0x1a4>
480088b0:	e24bd004 	sub	sp, fp, #4
480088b4:	e8bd8800 	pop	{fp, pc}

480088b8 <arm_cmd_linux_cmdline>:
480088b8:	e92d4800 	push	{fp, lr}
480088bc:	e28db004 	add	fp, sp, #4
480088c0:	e24dd010 	sub	sp, sp, #16
480088c4:	e50b0010 	str	r0, [fp, #-16]
480088c8:	e50b1014 	str	r1, [fp, #-20]
480088cc:	e51b3010 	ldr	r3, [fp, #-16]
480088d0:	e3530001 	cmp	r3, #1
480088d4:	da00001b 	ble	48008948 <arm_cmd_linux_cmdline+0x90>
480088d8:	e3a03001 	mov	r3, #1
480088dc:	e50b3008 	str	r3, [fp, #-8]
480088e0:	e3083064 	movw	r3, #32868	; 0x8064
480088e4:	e3443801 	movt	r3, #18433	; 0x4801
480088e8:	e3a02000 	mov	r2, #0
480088ec:	e5c32000 	strb	r2, [r3]
480088f0:	ea000010 	b	48008938 <arm_cmd_linux_cmdline+0x80>
480088f4:	e51b3008 	ldr	r3, [fp, #-8]
480088f8:	e1a03103 	lsl	r3, r3, #2
480088fc:	e51b2014 	ldr	r2, [fp, #-20]
48008900:	e0823003 	add	r3, r2, r3
48008904:	e5933000 	ldr	r3, [r3]
48008908:	e3080064 	movw	r0, #32868	; 0x8064
4800890c:	e3440801 	movt	r0, #18433	; 0x4801
48008910:	e1a01003 	mov	r1, r3
48008914:	eb00092e 	bl	4800add4 <arm_strcat>
48008918:	e3080064 	movw	r0, #32868	; 0x8064
4800891c:	e3440801 	movt	r0, #18433	; 0x4801
48008920:	e3051cb8 	movw	r1, #23736	; 0x5cb8
48008924:	e3441801 	movt	r1, #18433	; 0x4801
48008928:	eb000929 	bl	4800add4 <arm_strcat>
4800892c:	e51b3008 	ldr	r3, [fp, #-8]
48008930:	e2833001 	add	r3, r3, #1
48008934:	e50b3008 	str	r3, [fp, #-8]
48008938:	e51b2008 	ldr	r2, [fp, #-8]
4800893c:	e51b3010 	ldr	r3, [fp, #-16]
48008940:	e1520003 	cmp	r2, r3
48008944:	baffffea 	blt	480088f4 <arm_cmd_linux_cmdline+0x3c>
48008948:	e3050e64 	movw	r0, #24164	; 0x5e64
4800894c:	e3440801 	movt	r0, #18433	; 0x4801
48008950:	eb0003b1 	bl	4800981c <arm_puts>
48008954:	e3080064 	movw	r0, #32868	; 0x8064
48008958:	e3440801 	movt	r0, #18433	; 0x4801
4800895c:	eb0003ae 	bl	4800981c <arm_puts>
48008960:	e3050e78 	movw	r0, #24184	; 0x5e78
48008964:	e3440801 	movt	r0, #18433	; 0x4801
48008968:	eb0003ab 	bl	4800981c <arm_puts>
4800896c:	e1a00000 	nop			; (mov r0, r0)
48008970:	e24bd004 	sub	sp, fp, #4
48008974:	e8bd8800 	pop	{fp, pc}

48008978 <arm_cmd_linux_memory_size>:
48008978:	e92d4800 	push	{fp, lr}
4800897c:	e28db004 	add	fp, sp, #4
48008980:	e24dd028 	sub	sp, sp, #40	; 0x28
48008984:	e50b0028 	str	r0, [fp, #-40]	; 0x28
48008988:	e50b102c 	str	r1, [fp, #-44]	; 0x2c
4800898c:	e51b3028 	ldr	r3, [fp, #-40]	; 0x28
48008990:	e3530002 	cmp	r3, #2
48008994:	1a000009 	bne	480089c0 <arm_cmd_linux_memory_size+0x48>
48008998:	e51b302c 	ldr	r3, [fp, #-44]	; 0x2c
4800899c:	e2833004 	add	r3, r3, #4
480089a0:	e5933000 	ldr	r3, [r3]
480089a4:	e1a00003 	mov	r0, r3
480089a8:	eb000a26 	bl	4800b248 <arm_hexstr2uint>
480089ac:	e1a03000 	mov	r3, r0
480089b0:	e1a02003 	mov	r2, r3
480089b4:	e3083060 	movw	r3, #32864	; 0x8060
480089b8:	e3443801 	movt	r3, #18433	; 0x4801
480089bc:	e5832000 	str	r2, [r3]
480089c0:	e3050e7c 	movw	r0, #24188	; 0x5e7c
480089c4:	e3440801 	movt	r0, #18433	; 0x4801
480089c8:	eb000393 	bl	4800981c <arm_puts>
480089cc:	e3083060 	movw	r3, #32864	; 0x8060
480089d0:	e3443801 	movt	r3, #18433	; 0x4801
480089d4:	e5933000 	ldr	r3, [r3]
480089d8:	e24b2024 	sub	r2, fp, #36	; 0x24
480089dc:	e1a00002 	mov	r0, r2
480089e0:	e1a01003 	mov	r1, r3
480089e4:	eb000a7b 	bl	4800b3d8 <arm_uint2hexstr>
480089e8:	e24b3024 	sub	r3, fp, #36	; 0x24
480089ec:	e1a00003 	mov	r0, r3
480089f0:	eb000389 	bl	4800981c <arm_puts>
480089f4:	e3050e94 	movw	r0, #24212	; 0x5e94
480089f8:	e3440801 	movt	r0, #18433	; 0x4801
480089fc:	eb000386 	bl	4800981c <arm_puts>
48008a00:	e1a00000 	nop			; (mov r0, r0)
48008a04:	e24bd004 	sub	sp, fp, #4
48008a08:	e8bd8800 	pop	{fp, pc}

48008a0c <arm_cmd_autoexec>:
48008a0c:	e92d4800 	push	{fp, lr}
48008a10:	e28db004 	add	fp, sp, #4
48008a14:	e24dda01 	sub	sp, sp, #4096	; 0x1000
48008a18:	e24dd018 	sub	sp, sp, #24
48008a1c:	e30e3fec 	movw	r3, #61420	; 0xefec
48008a20:	e34f3fff 	movt	r3, #65535	; 0xffff
48008a24:	e24b2004 	sub	r2, fp, #4
48008a28:	e7820003 	str	r0, [r2, r3]
48008a2c:	e30e3fe8 	movw	r3, #61416	; 0xefe8
48008a30:	e34f3fff 	movt	r3, #65535	; 0xffff
48008a34:	e24b2004 	sub	r2, fp, #4
48008a38:	e7821003 	str	r1, [r2, r3]
48008a3c:	e3a03000 	mov	r3, #0
48008a40:	e50b300c 	str	r3, [fp, #-12]
48008a44:	ebfff56c 	bl	48005ffc <arm_board_flash_addr>
48008a48:	e1a03000 	mov	r3, r0
48008a4c:	e2833aff 	add	r3, r3, #1044480	; 0xff000
48008a50:	e50b3010 	str	r3, [fp, #-16]
48008a54:	e30e3fec 	movw	r3, #61420	; 0xefec
48008a58:	e34f3fff 	movt	r3, #65535	; 0xffff
48008a5c:	e24b1004 	sub	r1, fp, #4
48008a60:	e7913003 	ldr	r3, [r1, r3]
48008a64:	e3530001 	cmp	r3, #1
48008a68:	0a000003 	beq	48008a7c <arm_cmd_autoexec+0x70>
48008a6c:	e3050e9c 	movw	r0, #24220	; 0x5e9c
48008a70:	e3440801 	movt	r0, #18433	; 0x4801
48008a74:	eb000368 	bl	4800981c <arm_puts>
48008a78:	ea000080 	b	48008c80 <arm_cmd_autoexec+0x274>
48008a7c:	e3083464 	movw	r3, #33892	; 0x8464
48008a80:	e3443801 	movt	r3, #18433	; 0x4801
48008a84:	e5933000 	ldr	r3, [r3]
48008a88:	e3530000 	cmp	r3, #0
48008a8c:	0a000003 	beq	48008aa0 <arm_cmd_autoexec+0x94>
48008a90:	e3050ec0 	movw	r0, #24256	; 0x5ec0
48008a94:	e3440801 	movt	r0, #18433	; 0x4801
48008a98:	eb00035f 	bl	4800981c <arm_puts>
48008a9c:	ea000077 	b	48008c80 <arm_cmd_autoexec+0x274>
48008aa0:	e3083464 	movw	r3, #33892	; 0x8464
48008aa4:	e3443801 	movt	r3, #18433	; 0x4801
48008aa8:	e3a02001 	mov	r2, #1
48008aac:	e5832000 	str	r2, [r3]
48008ab0:	e3a03000 	mov	r3, #0
48008ab4:	e50b3008 	str	r3, [fp, #-8]
48008ab8:	ea000002 	b	48008ac8 <arm_cmd_autoexec+0xbc>
48008abc:	e51b3008 	ldr	r3, [fp, #-8]
48008ac0:	e2833001 	add	r3, r3, #1
48008ac4:	e50b3008 	str	r3, [fp, #-8]
48008ac8:	e51b3008 	ldr	r3, [fp, #-8]
48008acc:	e3530a01 	cmp	r3, #4096	; 0x1000
48008ad0:	aa000008 	bge	48008af8 <arm_cmd_autoexec+0xec>
48008ad4:	e51b3008 	ldr	r3, [fp, #-8]
48008ad8:	e51b2010 	ldr	r2, [fp, #-16]
48008adc:	e0823003 	add	r3, r2, r3
48008ae0:	e5d33000 	ldrb	r3, [r3]
48008ae4:	e1a00003 	mov	r0, r3
48008ae8:	eb00032d 	bl	480097a4 <arm_isprintable>
48008aec:	e1a03000 	mov	r3, r0
48008af0:	e3530000 	cmp	r3, #0
48008af4:	1afffff0 	bne	48008abc <arm_cmd_autoexec+0xb0>
48008af8:	e51b3008 	ldr	r3, [fp, #-8]
48008afc:	e3530000 	cmp	r3, #0
48008b00:	1a000003 	bne	48008b14 <arm_cmd_autoexec+0x108>
48008b04:	e3050ee4 	movw	r0, #24292	; 0x5ee4
48008b08:	e3440801 	movt	r0, #18433	; 0x4801
48008b0c:	eb000342 	bl	4800981c <arm_puts>
48008b10:	ea00005a 	b	48008c80 <arm_cmd_autoexec+0x274>
48008b14:	e51b3008 	ldr	r3, [fp, #-8]
48008b18:	e3530a01 	cmp	r3, #4096	; 0x1000
48008b1c:	ba000004 	blt	48008b34 <arm_cmd_autoexec+0x128>
48008b20:	e3050f00 	movw	r0, #24320	; 0x5f00
48008b24:	e3440801 	movt	r0, #18433	; 0x4801
48008b28:	e51b1008 	ldr	r1, [fp, #-8]
48008b2c:	eb000728 	bl	4800a7d4 <arm_printf>
48008b30:	ea000052 	b	48008c80 <arm_cmd_autoexec+0x274>
48008b34:	e51b2008 	ldr	r2, [fp, #-8]
48008b38:	e24b3a01 	sub	r3, fp, #4096	; 0x1000
48008b3c:	e2433004 	sub	r3, r3, #4
48008b40:	e243300c 	sub	r3, r3, #12
48008b44:	e1a00003 	mov	r0, r3
48008b48:	e51b1010 	ldr	r1, [fp, #-16]
48008b4c:	eb000732 	bl	4800a81c <arm_memcpy>
48008b50:	e30e3ff4 	movw	r3, #61428	; 0xeff4
48008b54:	e34f3fff 	movt	r3, #65535	; 0xffff
48008b58:	e24b1004 	sub	r1, fp, #4
48008b5c:	e0812003 	add	r2, r1, r3
48008b60:	e51b3008 	ldr	r3, [fp, #-8]
48008b64:	e0823003 	add	r3, r2, r3
48008b68:	e3a02000 	mov	r2, #0
48008b6c:	e5c32000 	strb	r2, [r3]
48008b70:	ea000039 	b	48008c5c <arm_cmd_autoexec+0x250>
48008b74:	e24b3a01 	sub	r3, fp, #4096	; 0x1000
48008b78:	e2433004 	sub	r3, r3, #4
48008b7c:	e243300c 	sub	r3, r3, #12
48008b80:	e51b200c 	ldr	r2, [fp, #-12]
48008b84:	e0833002 	add	r3, r3, r2
48008b88:	e50b3010 	str	r3, [fp, #-16]
48008b8c:	ea000002 	b	48008b9c <arm_cmd_autoexec+0x190>
48008b90:	e51b300c 	ldr	r3, [fp, #-12]
48008b94:	e2833001 	add	r3, r3, #1
48008b98:	e50b300c 	str	r3, [fp, #-12]
48008b9c:	e30e3ff4 	movw	r3, #61428	; 0xeff4
48008ba0:	e34f3fff 	movt	r3, #65535	; 0xffff
48008ba4:	e24b1004 	sub	r1, fp, #4
48008ba8:	e0812003 	add	r2, r1, r3
48008bac:	e51b300c 	ldr	r3, [fp, #-12]
48008bb0:	e0823003 	add	r3, r2, r3
48008bb4:	e5d33000 	ldrb	r3, [r3]
48008bb8:	e353000d 	cmp	r3, #13
48008bbc:	0a000011 	beq	48008c08 <arm_cmd_autoexec+0x1fc>
48008bc0:	e30e3ff4 	movw	r3, #61428	; 0xeff4
48008bc4:	e34f3fff 	movt	r3, #65535	; 0xffff
48008bc8:	e24b1004 	sub	r1, fp, #4
48008bcc:	e0812003 	add	r2, r1, r3
48008bd0:	e51b300c 	ldr	r3, [fp, #-12]
48008bd4:	e0823003 	add	r3, r2, r3
48008bd8:	e5d33000 	ldrb	r3, [r3]
48008bdc:	e353000a 	cmp	r3, #10
48008be0:	0a000008 	beq	48008c08 <arm_cmd_autoexec+0x1fc>
48008be4:	e30e3ff4 	movw	r3, #61428	; 0xeff4
48008be8:	e34f3fff 	movt	r3, #65535	; 0xffff
48008bec:	e24b1004 	sub	r1, fp, #4
48008bf0:	e0812003 	add	r2, r1, r3
48008bf4:	e51b300c 	ldr	r3, [fp, #-12]
48008bf8:	e0823003 	add	r3, r2, r3
48008bfc:	e5d33000 	ldrb	r3, [r3]
48008c00:	e3530000 	cmp	r3, #0
48008c04:	1affffe1 	bne	48008b90 <arm_cmd_autoexec+0x184>
48008c08:	e30e3ff4 	movw	r3, #61428	; 0xeff4
48008c0c:	e34f3fff 	movt	r3, #65535	; 0xffff
48008c10:	e24b1004 	sub	r1, fp, #4
48008c14:	e0812003 	add	r2, r1, r3
48008c18:	e51b300c 	ldr	r3, [fp, #-12]
48008c1c:	e0823003 	add	r3, r2, r3
48008c20:	e3a02000 	mov	r2, #0
48008c24:	e5c32000 	strb	r2, [r3]
48008c28:	e51b300c 	ldr	r3, [fp, #-12]
48008c2c:	e2833001 	add	r3, r3, #1
48008c30:	e50b300c 	str	r3, [fp, #-12]
48008c34:	e3050f24 	movw	r0, #24356	; 0x5f24
48008c38:	e3440801 	movt	r0, #18433	; 0x4801
48008c3c:	eb0002f6 	bl	4800981c <arm_puts>
48008c40:	e51b0010 	ldr	r0, [fp, #-16]
48008c44:	eb0002f4 	bl	4800981c <arm_puts>
48008c48:	e3050f30 	movw	r0, #24368	; 0x5f30
48008c4c:	e3440801 	movt	r0, #18433	; 0x4801
48008c50:	eb0002f1 	bl	4800981c <arm_puts>
48008c54:	e51b0010 	ldr	r0, [fp, #-16]
48008c58:	eb000047 	bl	48008d7c <arm_exec>
48008c5c:	e51b200c 	ldr	r2, [fp, #-12]
48008c60:	e51b3008 	ldr	r3, [fp, #-8]
48008c64:	e1520003 	cmp	r2, r3
48008c68:	baffffc1 	blt	48008b74 <arm_cmd_autoexec+0x168>
48008c6c:	e3083464 	movw	r3, #33892	; 0x8464
48008c70:	e3443801 	movt	r3, #18433	; 0x4801
48008c74:	e3a02000 	mov	r2, #0
48008c78:	e5832000 	str	r2, [r3]
48008c7c:	e1a00000 	nop			; (mov r0, r0)
48008c80:	e24bd004 	sub	sp, fp, #4
48008c84:	e8bd8800 	pop	{fp, pc}

48008c88 <arm_cmd_go>:
48008c88:	e92d4800 	push	{fp, lr}
48008c8c:	e28db004 	add	fp, sp, #4
48008c90:	e24dd030 	sub	sp, sp, #48	; 0x30
48008c94:	e50b0030 	str	r0, [fp, #-48]	; 0x30
48008c98:	e50b1034 	str	r1, [fp, #-52]	; 0x34
48008c9c:	e51b3030 	ldr	r3, [fp, #-48]	; 0x30
48008ca0:	e3530002 	cmp	r3, #2
48008ca4:	0a000003 	beq	48008cb8 <arm_cmd_go+0x30>
48008ca8:	e3050f34 	movw	r0, #24372	; 0x5f34
48008cac:	e3440801 	movt	r0, #18433	; 0x4801
48008cb0:	eb0002d9 	bl	4800981c <arm_puts>
48008cb4:	ea00001b 	b	48008d28 <arm_cmd_go+0xa0>
48008cb8:	ebfff9fb 	bl	480074ac <arm_timer_disable>
48008cbc:	e51b3034 	ldr	r3, [fp, #-52]	; 0x34
48008cc0:	e2833004 	add	r3, r3, #4
48008cc4:	e5933000 	ldr	r3, [r3]
48008cc8:	e1a00003 	mov	r0, r3
48008ccc:	eb00095d 	bl	4800b248 <arm_hexstr2uint>
48008cd0:	e1a03000 	mov	r3, r0
48008cd4:	e50b3008 	str	r3, [fp, #-8]
48008cd8:	e51b3008 	ldr	r3, [fp, #-8]
48008cdc:	e24b2028 	sub	r2, fp, #40	; 0x28
48008ce0:	e1a00002 	mov	r0, r2
48008ce4:	e1a01003 	mov	r1, r3
48008ce8:	eb0009ba 	bl	4800b3d8 <arm_uint2hexstr>
48008cec:	e3050f5c 	movw	r0, #24412	; 0x5f5c
48008cf0:	e3440801 	movt	r0, #18433	; 0x4801
48008cf4:	eb0002c8 	bl	4800981c <arm_puts>
48008cf8:	e24b3028 	sub	r3, fp, #40	; 0x28
48008cfc:	e1a00003 	mov	r0, r3
48008d00:	eb0002c5 	bl	4800981c <arm_puts>
48008d04:	e3050f74 	movw	r0, #24436	; 0x5f74
48008d08:	e3440801 	movt	r0, #18433	; 0x4801
48008d0c:	eb0002c2 	bl	4800981c <arm_puts>
48008d10:	e51b3008 	ldr	r3, [fp, #-8]
48008d14:	e12fff33 	blx	r3
48008d18:	e3050f7c 	movw	r0, #24444	; 0x5f7c
48008d1c:	e3440801 	movt	r0, #18433	; 0x4801
48008d20:	eb0002bd 	bl	4800981c <arm_puts>
48008d24:	ebfff9dc 	bl	4800749c <arm_timer_enable>
48008d28:	e24bd004 	sub	sp, fp, #4
48008d2c:	e8bd8800 	pop	{fp, pc}

48008d30 <arm_cmd_reset>:
48008d30:	e92d4800 	push	{fp, lr}
48008d34:	e28db004 	add	fp, sp, #4
48008d38:	e24dd008 	sub	sp, sp, #8
48008d3c:	e50b0008 	str	r0, [fp, #-8]
48008d40:	e50b100c 	str	r1, [fp, #-12]
48008d44:	e51b3008 	ldr	r3, [fp, #-8]
48008d48:	e3530001 	cmp	r3, #1
48008d4c:	0a000003 	beq	48008d60 <arm_cmd_reset+0x30>
48008d50:	e3050f90 	movw	r0, #24464	; 0x5f90
48008d54:	e3440801 	movt	r0, #18433	; 0x4801
48008d58:	eb0002af 	bl	4800981c <arm_puts>
48008d5c:	ea000004 	b	48008d74 <arm_cmd_reset+0x44>
48008d60:	e3050fb0 	movw	r0, #24496	; 0x5fb0
48008d64:	e3440801 	movt	r0, #18433	; 0x4801
48008d68:	eb0002ab 	bl	4800981c <arm_puts>
48008d6c:	ebfff465 	bl	48005f08 <arm_board_reset>
48008d70:	eafffffe 	b	48008d70 <arm_cmd_reset+0x40>
48008d74:	e24bd004 	sub	sp, fp, #4
48008d78:	e8bd8800 	pop	{fp, pc}

48008d7c <arm_exec>:
48008d7c:	e92d4800 	push	{fp, lr}
48008d80:	e28db004 	add	fp, sp, #4
48008d84:	e24dd098 	sub	sp, sp, #152	; 0x98
48008d88:	e50b0098 	str	r0, [fp, #-152]	; 0x98
48008d8c:	e3a03000 	mov	r3, #0
48008d90:	e50b3008 	str	r3, [fp, #-8]
48008d94:	e3a03000 	mov	r3, #0
48008d98:	e50b300c 	str	r3, [fp, #-12]
48008d9c:	e3a03000 	mov	r3, #0
48008da0:	e50b3010 	str	r3, [fp, #-16]
48008da4:	ea000038 	b	48008e8c <arm_exec+0x110>
48008da8:	e51b300c 	ldr	r3, [fp, #-12]
48008dac:	e51b2098 	ldr	r2, [fp, #-152]	; 0x98
48008db0:	e0823003 	add	r3, r2, r3
48008db4:	e5d33000 	ldrb	r3, [r3]
48008db8:	e353000d 	cmp	r3, #13
48008dbc:	0a000005 	beq	48008dd8 <arm_exec+0x5c>
48008dc0:	e51b300c 	ldr	r3, [fp, #-12]
48008dc4:	e51b2098 	ldr	r2, [fp, #-152]	; 0x98
48008dc8:	e0823003 	add	r3, r2, r3
48008dcc:	e5d33000 	ldrb	r3, [r3]
48008dd0:	e353000a 	cmp	r3, #10
48008dd4:	1a000005 	bne	48008df0 <arm_exec+0x74>
48008dd8:	e51b300c 	ldr	r3, [fp, #-12]
48008ddc:	e51b2098 	ldr	r2, [fp, #-152]	; 0x98
48008de0:	e0823003 	add	r3, r2, r3
48008de4:	e3a02000 	mov	r2, #0
48008de8:	e5c32000 	strb	r2, [r3]
48008dec:	ea00002f 	b	48008eb0 <arm_exec+0x134>
48008df0:	e51b300c 	ldr	r3, [fp, #-12]
48008df4:	e51b2098 	ldr	r2, [fp, #-152]	; 0x98
48008df8:	e0823003 	add	r3, r2, r3
48008dfc:	e5d33000 	ldrb	r3, [r3]
48008e00:	e3530020 	cmp	r3, #32
48008e04:	1a00000a 	bne	48008e34 <arm_exec+0xb8>
48008e08:	e51b3010 	ldr	r3, [fp, #-16]
48008e0c:	e3530000 	cmp	r3, #0
48008e10:	da00001a 	ble	48008e80 <arm_exec+0x104>
48008e14:	e51b300c 	ldr	r3, [fp, #-12]
48008e18:	e51b2098 	ldr	r2, [fp, #-152]	; 0x98
48008e1c:	e0823003 	add	r3, r2, r3
48008e20:	e3a02000 	mov	r2, #0
48008e24:	e5c32000 	strb	r2, [r3]
48008e28:	e3a03000 	mov	r3, #0
48008e2c:	e50b3010 	str	r3, [fp, #-16]
48008e30:	ea000012 	b	48008e80 <arm_exec+0x104>
48008e34:	e51b3010 	ldr	r3, [fp, #-16]
48008e38:	e3530000 	cmp	r3, #0
48008e3c:	1a00000c 	bne	48008e74 <arm_exec+0xf8>
48008e40:	e51b300c 	ldr	r3, [fp, #-12]
48008e44:	e51b2098 	ldr	r2, [fp, #-152]	; 0x98
48008e48:	e0822003 	add	r2, r2, r3
48008e4c:	e51b1008 	ldr	r1, [fp, #-8]
48008e50:	e3e0308b 	mvn	r3, #139	; 0x8b
48008e54:	e1a01101 	lsl	r1, r1, #2
48008e58:	e24b0004 	sub	r0, fp, #4
48008e5c:	e0801001 	add	r1, r0, r1
48008e60:	e0813003 	add	r3, r1, r3
48008e64:	e5832000 	str	r2, [r3]
48008e68:	e51b3008 	ldr	r3, [fp, #-8]
48008e6c:	e2833001 	add	r3, r3, #1
48008e70:	e50b3008 	str	r3, [fp, #-8]
48008e74:	e51b3010 	ldr	r3, [fp, #-16]
48008e78:	e2833001 	add	r3, r3, #1
48008e7c:	e50b3010 	str	r3, [fp, #-16]
48008e80:	e51b300c 	ldr	r3, [fp, #-12]
48008e84:	e2833001 	add	r3, r3, #1
48008e88:	e50b300c 	str	r3, [fp, #-12]
48008e8c:	e51b300c 	ldr	r3, [fp, #-12]
48008e90:	e51b2098 	ldr	r2, [fp, #-152]	; 0x98
48008e94:	e0823003 	add	r3, r2, r3
48008e98:	e5d33000 	ldrb	r3, [r3]
48008e9c:	e3530000 	cmp	r3, #0
48008ea0:	0a000002 	beq	48008eb0 <arm_exec+0x134>
48008ea4:	e51b3008 	ldr	r3, [fp, #-8]
48008ea8:	e353001f 	cmp	r3, #31
48008eac:	daffffbd 	ble	48008da8 <arm_exec+0x2c>
48008eb0:	e51b3008 	ldr	r3, [fp, #-8]
48008eb4:	e3530000 	cmp	r3, #0
48008eb8:	0a0000f9 	beq	480092a4 <arm_exec+0x528>
48008ebc:	e51b3090 	ldr	r3, [fp, #-144]	; 0x90
48008ec0:	e1a00003 	mov	r0, r3
48008ec4:	e3051fc4 	movw	r1, #24516	; 0x5fc4
48008ec8:	e3441801 	movt	r1, #18433	; 0x4801
48008ecc:	eb0007d1 	bl	4800ae18 <arm_strcmp>
48008ed0:	e1a03000 	mov	r3, r0
48008ed4:	e3530000 	cmp	r3, #0
48008ed8:	1a000004 	bne	48008ef0 <arm_exec+0x174>
48008edc:	e24b3090 	sub	r3, fp, #144	; 0x90
48008ee0:	e51b0008 	ldr	r0, [fp, #-8]
48008ee4:	e1a01003 	mov	r1, r3
48008ee8:	ebfff9bf 	bl	480075ec <arm_cmd_help>
48008eec:	ea0000ec 	b	480092a4 <arm_exec+0x528>
48008ef0:	e51b3090 	ldr	r3, [fp, #-144]	; 0x90
48008ef4:	e1a00003 	mov	r0, r3
48008ef8:	e3051fcc 	movw	r1, #24524	; 0x5fcc
48008efc:	e3441801 	movt	r1, #18433	; 0x4801
48008f00:	eb0007c4 	bl	4800ae18 <arm_strcmp>
48008f04:	e1a03000 	mov	r3, r0
48008f08:	e3530000 	cmp	r3, #0
48008f0c:	1a000004 	bne	48008f24 <arm_exec+0x1a8>
48008f10:	e24b3090 	sub	r3, fp, #144	; 0x90
48008f14:	e51b0008 	ldr	r0, [fp, #-8]
48008f18:	e1a01003 	mov	r1, r3
48008f1c:	ebfffa79 	bl	48007908 <arm_cmd_hi>
48008f20:	ea0000df 	b	480092a4 <arm_exec+0x528>
48008f24:	e51b3090 	ldr	r3, [fp, #-144]	; 0x90
48008f28:	e1a00003 	mov	r0, r3
48008f2c:	e3051fd0 	movw	r1, #24528	; 0x5fd0
48008f30:	e3441801 	movt	r1, #18433	; 0x4801
48008f34:	eb0007b7 	bl	4800ae18 <arm_strcmp>
48008f38:	e1a03000 	mov	r3, r0
48008f3c:	e3530000 	cmp	r3, #0
48008f40:	1a000004 	bne	48008f58 <arm_exec+0x1dc>
48008f44:	e24b3090 	sub	r3, fp, #144	; 0x90
48008f48:	e51b0008 	ldr	r0, [fp, #-8]
48008f4c:	e1a01003 	mov	r1, r3
48008f50:	ebfffa7d 	bl	4800794c <arm_cmd_hello>
48008f54:	ea0000d2 	b	480092a4 <arm_exec+0x528>
48008f58:	e51b3090 	ldr	r3, [fp, #-144]	; 0x90
48008f5c:	e1a00003 	mov	r0, r3
48008f60:	e3051fd8 	movw	r1, #24536	; 0x5fd8
48008f64:	e3441801 	movt	r1, #18433	; 0x4801
48008f68:	eb0007aa 	bl	4800ae18 <arm_strcmp>
48008f6c:	e1a03000 	mov	r3, r0
48008f70:	e3530000 	cmp	r3, #0
48008f74:	1a000004 	bne	48008f8c <arm_exec+0x210>
48008f78:	e24b3090 	sub	r3, fp, #144	; 0x90
48008f7c:	e51b0008 	ldr	r0, [fp, #-8]
48008f80:	e1a01003 	mov	r1, r3
48008f84:	ebfffa81 	bl	48007990 <arm_cmd_wfi_test>
48008f88:	ea0000c5 	b	480092a4 <arm_exec+0x528>
48008f8c:	e51b3090 	ldr	r3, [fp, #-144]	; 0x90
48008f90:	e1a00003 	mov	r0, r3
48008f94:	e3051fe4 	movw	r1, #24548	; 0x5fe4
48008f98:	e3441801 	movt	r1, #18433	; 0x4801
48008f9c:	eb00079d 	bl	4800ae18 <arm_strcmp>
48008fa0:	e1a03000 	mov	r3, r0
48008fa4:	e3530000 	cmp	r3, #0
48008fa8:	1a000004 	bne	48008fc0 <arm_exec+0x244>
48008fac:	e24b3090 	sub	r3, fp, #144	; 0x90
48008fb0:	e51b0008 	ldr	r0, [fp, #-8]
48008fb4:	e1a01003 	mov	r1, r3
48008fb8:	ebfffab3 	bl	48007a8c <arm_cmd_mmu_setup>
48008fbc:	ea0000b8 	b	480092a4 <arm_exec+0x528>
48008fc0:	e51b3090 	ldr	r3, [fp, #-144]	; 0x90
48008fc4:	e1a00003 	mov	r0, r3
48008fc8:	e3051ff0 	movw	r1, #24560	; 0x5ff0
48008fcc:	e3441801 	movt	r1, #18433	; 0x4801
48008fd0:	eb000790 	bl	4800ae18 <arm_strcmp>
48008fd4:	e1a03000 	mov	r3, r0
48008fd8:	e3530000 	cmp	r3, #0
48008fdc:	1a000004 	bne	48008ff4 <arm_exec+0x278>
48008fe0:	e24b3090 	sub	r3, fp, #144	; 0x90
48008fe4:	e51b0008 	ldr	r0, [fp, #-8]
48008fe8:	e1a01003 	mov	r1, r3
48008fec:	ebfffab5 	bl	48007ac8 <arm_cmd_mmu_state>
48008ff0:	ea0000ab 	b	480092a4 <arm_exec+0x528>
48008ff4:	e51b3090 	ldr	r3, [fp, #-144]	; 0x90
48008ff8:	e1a00003 	mov	r0, r3
48008ffc:	e3051ffc 	movw	r1, #24572	; 0x5ffc
48009000:	e3441801 	movt	r1, #18433	; 0x4801
48009004:	eb000783 	bl	4800ae18 <arm_strcmp>
48009008:	e1a03000 	mov	r3, r0
4800900c:	e3530000 	cmp	r3, #0
48009010:	1a000004 	bne	48009028 <arm_exec+0x2ac>
48009014:	e24b3090 	sub	r3, fp, #144	; 0x90
48009018:	e51b0008 	ldr	r0, [fp, #-8]
4800901c:	e1a01003 	mov	r1, r3
48009020:	ebfffac1 	bl	48007b2c <arm_cmd_mmu_test>
48009024:	ea00009e 	b	480092a4 <arm_exec+0x528>
48009028:	e51b3090 	ldr	r3, [fp, #-144]	; 0x90
4800902c:	e1a00003 	mov	r0, r3
48009030:	e3061008 	movw	r1, #24584	; 0x6008
48009034:	e3441801 	movt	r1, #18433	; 0x4801
48009038:	eb000776 	bl	4800ae18 <arm_strcmp>
4800903c:	e1a03000 	mov	r3, r0
48009040:	e3530000 	cmp	r3, #0
48009044:	1a000004 	bne	4800905c <arm_exec+0x2e0>
48009048:	e24b3090 	sub	r3, fp, #144	; 0x90
4800904c:	e51b0008 	ldr	r0, [fp, #-8]
48009050:	e1a01003 	mov	r1, r3
48009054:	ebfffb3c 	bl	48007d4c <arm_cmd_mmu_cleanup>
48009058:	ea000091 	b	480092a4 <arm_exec+0x528>
4800905c:	e51b3090 	ldr	r3, [fp, #-144]	; 0x90
48009060:	e1a00003 	mov	r0, r3
48009064:	e3061014 	movw	r1, #24596	; 0x6014
48009068:	e3441801 	movt	r1, #18433	; 0x4801
4800906c:	eb000769 	bl	4800ae18 <arm_strcmp>
48009070:	e1a03000 	mov	r3, r0
48009074:	e3530000 	cmp	r3, #0
48009078:	1a000004 	bne	48009090 <arm_exec+0x314>
4800907c:	e24b3090 	sub	r3, fp, #144	; 0x90
48009080:	e51b0008 	ldr	r0, [fp, #-8]
48009084:	e1a01003 	mov	r1, r3
48009088:	ebfffb3e 	bl	48007d88 <arm_cmd_timer>
4800908c:	ea000084 	b	480092a4 <arm_exec+0x528>
48009090:	e51b3090 	ldr	r3, [fp, #-144]	; 0x90
48009094:	e1a00003 	mov	r0, r3
48009098:	e306101c 	movw	r1, #24604	; 0x601c
4800909c:	e3441801 	movt	r1, #18433	; 0x4801
480090a0:	eb00075c 	bl	4800ae18 <arm_strcmp>
480090a4:	e1a03000 	mov	r3, r0
480090a8:	e3530000 	cmp	r3, #0
480090ac:	1a000004 	bne	480090c4 <arm_exec+0x348>
480090b0:	e24b3090 	sub	r3, fp, #144	; 0x90
480090b4:	e51b0008 	ldr	r0, [fp, #-8]
480090b8:	e1a01003 	mov	r1, r3
480090bc:	ebfffb6f 	bl	48007e80 <arm_cmd_dhrystone>
480090c0:	ea000077 	b	480092a4 <arm_exec+0x528>
480090c4:	e51b3090 	ldr	r3, [fp, #-144]	; 0x90
480090c8:	e1a00003 	mov	r0, r3
480090cc:	e3061028 	movw	r1, #24616	; 0x6028
480090d0:	e3441801 	movt	r1, #18433	; 0x4801
480090d4:	eb00074f 	bl	4800ae18 <arm_strcmp>
480090d8:	e1a03000 	mov	r3, r0
480090dc:	e3530000 	cmp	r3, #0
480090e0:	1a000004 	bne	480090f8 <arm_exec+0x37c>
480090e4:	e24b3090 	sub	r3, fp, #144	; 0x90
480090e8:	e51b0008 	ldr	r0, [fp, #-8]
480090ec:	e1a01003 	mov	r1, r3
480090f0:	ebfffb91 	bl	48007f3c <arm_cmd_hexdump>
480090f4:	ea00006a 	b	480092a4 <arm_exec+0x528>
480090f8:	e51b3090 	ldr	r3, [fp, #-144]	; 0x90
480090fc:	e1a00003 	mov	r0, r3
48009100:	e3061030 	movw	r1, #24624	; 0x6030
48009104:	e3441801 	movt	r1, #18433	; 0x4801
48009108:	eb000742 	bl	4800ae18 <arm_strcmp>
4800910c:	e1a03000 	mov	r3, r0
48009110:	e3530000 	cmp	r3, #0
48009114:	1a000004 	bne	4800912c <arm_exec+0x3b0>
48009118:	e24b3090 	sub	r3, fp, #144	; 0x90
4800911c:	e51b0008 	ldr	r0, [fp, #-8]
48009120:	e1a01003 	mov	r1, r3
48009124:	ebfffbf2 	bl	480080f4 <arm_cmd_copy>
48009128:	ea00005d 	b	480092a4 <arm_exec+0x528>
4800912c:	e51b3090 	ldr	r3, [fp, #-144]	; 0x90
48009130:	e1a00003 	mov	r0, r3
48009134:	e3061038 	movw	r1, #24632	; 0x6038
48009138:	e3441801 	movt	r1, #18433	; 0x4801
4800913c:	eb000735 	bl	4800ae18 <arm_strcmp>
48009140:	e1a03000 	mov	r3, r0
48009144:	e3530000 	cmp	r3, #0
48009148:	1a000004 	bne	48009160 <arm_exec+0x3e4>
4800914c:	e24b3090 	sub	r3, fp, #144	; 0x90
48009150:	e51b0008 	ldr	r0, [fp, #-8]
48009154:	e1a01003 	mov	r1, r3
48009158:	ebfffc57 	bl	480082bc <arm_cmd_start_linux>
4800915c:	ea000050 	b	480092a4 <arm_exec+0x528>
48009160:	e51b3090 	ldr	r3, [fp, #-144]	; 0x90
48009164:	e1a00003 	mov	r0, r3
48009168:	e3061044 	movw	r1, #24644	; 0x6044
4800916c:	e3441801 	movt	r1, #18433	; 0x4801
48009170:	eb000728 	bl	4800ae18 <arm_strcmp>
48009174:	e1a03000 	mov	r3, r0
48009178:	e3530000 	cmp	r3, #0
4800917c:	1a000004 	bne	48009194 <arm_exec+0x418>
48009180:	e24b3090 	sub	r3, fp, #144	; 0x90
48009184:	e51b0008 	ldr	r0, [fp, #-8]
48009188:	e1a01003 	mov	r1, r3
4800918c:	ebfffd5d 	bl	48008708 <arm_cmd_start_linux_fdt>
48009190:	ea000043 	b	480092a4 <arm_exec+0x528>
48009194:	e51b3090 	ldr	r3, [fp, #-144]	; 0x90
48009198:	e1a00003 	mov	r0, r3
4800919c:	e3061054 	movw	r1, #24660	; 0x6054
480091a0:	e3441801 	movt	r1, #18433	; 0x4801
480091a4:	eb00071b 	bl	4800ae18 <arm_strcmp>
480091a8:	e1a03000 	mov	r3, r0
480091ac:	e3530000 	cmp	r3, #0
480091b0:	1a000004 	bne	480091c8 <arm_exec+0x44c>
480091b4:	e24b3090 	sub	r3, fp, #144	; 0x90
480091b8:	e51b0008 	ldr	r0, [fp, #-8]
480091bc:	e1a01003 	mov	r1, r3
480091c0:	ebfffdbc 	bl	480088b8 <arm_cmd_linux_cmdline>
480091c4:	ea000036 	b	480092a4 <arm_exec+0x528>
480091c8:	e51b3090 	ldr	r3, [fp, #-144]	; 0x90
480091cc:	e1a00003 	mov	r0, r3
480091d0:	e3061064 	movw	r1, #24676	; 0x6064
480091d4:	e3441801 	movt	r1, #18433	; 0x4801
480091d8:	eb00070e 	bl	4800ae18 <arm_strcmp>
480091dc:	e1a03000 	mov	r3, r0
480091e0:	e3530000 	cmp	r3, #0
480091e4:	1a000004 	bne	480091fc <arm_exec+0x480>
480091e8:	e24b3090 	sub	r3, fp, #144	; 0x90
480091ec:	e51b0008 	ldr	r0, [fp, #-8]
480091f0:	e1a01003 	mov	r1, r3
480091f4:	ebfffddf 	bl	48008978 <arm_cmd_linux_memory_size>
480091f8:	ea000029 	b	480092a4 <arm_exec+0x528>
480091fc:	e51b3090 	ldr	r3, [fp, #-144]	; 0x90
48009200:	e1a00003 	mov	r0, r3
48009204:	e3061078 	movw	r1, #24696	; 0x6078
48009208:	e3441801 	movt	r1, #18433	; 0x4801
4800920c:	eb000701 	bl	4800ae18 <arm_strcmp>
48009210:	e1a03000 	mov	r3, r0
48009214:	e3530000 	cmp	r3, #0
48009218:	1a000004 	bne	48009230 <arm_exec+0x4b4>
4800921c:	e24b3090 	sub	r3, fp, #144	; 0x90
48009220:	e51b0008 	ldr	r0, [fp, #-8]
48009224:	e1a01003 	mov	r1, r3
48009228:	ebfffdf7 	bl	48008a0c <arm_cmd_autoexec>
4800922c:	ea00001c 	b	480092a4 <arm_exec+0x528>
48009230:	e51b3090 	ldr	r3, [fp, #-144]	; 0x90
48009234:	e1a00003 	mov	r0, r3
48009238:	e3061084 	movw	r1, #24708	; 0x6084
4800923c:	e3441801 	movt	r1, #18433	; 0x4801
48009240:	eb0006f4 	bl	4800ae18 <arm_strcmp>
48009244:	e1a03000 	mov	r3, r0
48009248:	e3530000 	cmp	r3, #0
4800924c:	1a000004 	bne	48009264 <arm_exec+0x4e8>
48009250:	e24b3090 	sub	r3, fp, #144	; 0x90
48009254:	e51b0008 	ldr	r0, [fp, #-8]
48009258:	e1a01003 	mov	r1, r3
4800925c:	ebfffe89 	bl	48008c88 <arm_cmd_go>
48009260:	ea00000f 	b	480092a4 <arm_exec+0x528>
48009264:	e51b3090 	ldr	r3, [fp, #-144]	; 0x90
48009268:	e1a00003 	mov	r0, r3
4800926c:	e3061088 	movw	r1, #24712	; 0x6088
48009270:	e3441801 	movt	r1, #18433	; 0x4801
48009274:	eb0006e7 	bl	4800ae18 <arm_strcmp>
48009278:	e1a03000 	mov	r3, r0
4800927c:	e3530000 	cmp	r3, #0
48009280:	1a000004 	bne	48009298 <arm_exec+0x51c>
48009284:	e24b3090 	sub	r3, fp, #144	; 0x90
48009288:	e51b0008 	ldr	r0, [fp, #-8]
4800928c:	e1a01003 	mov	r1, r3
48009290:	ebfffea6 	bl	48008d30 <arm_cmd_reset>
48009294:	ea000002 	b	480092a4 <arm_exec+0x528>
48009298:	e3060090 	movw	r0, #24720	; 0x6090
4800929c:	e3440801 	movt	r0, #18433	; 0x4801
480092a0:	eb00015d 	bl	4800981c <arm_puts>
480092a4:	e24bd004 	sub	sp, fp, #4
480092a8:	e8bd8800 	pop	{fp, pc}

480092ac <arm_main>:
480092ac:	e92d4800 	push	{fp, lr}
480092b0:	e28db004 	add	fp, sp, #4
480092b4:	e24ddc01 	sub	sp, sp, #256	; 0x100
480092b8:	e3080064 	movw	r0, #32868	; 0x8064
480092bc:	e3440801 	movt	r0, #18433	; 0x4801
480092c0:	e3a01b01 	mov	r1, #1024	; 0x400
480092c4:	ebfff341 	bl	48005fd0 <arm_board_linux_default_cmdline>
480092c8:	ebfff323 	bl	48005f5c <arm_board_name>
480092cc:	e1a03000 	mov	r3, r0
480092d0:	e1a00003 	mov	r0, r3
480092d4:	eb000150 	bl	4800981c <arm_puts>
480092d8:	e30600a4 	movw	r0, #24740	; 0x60a4
480092dc:	e3440801 	movt	r0, #18433	; 0x4801
480092e0:	eb00014d 	bl	4800981c <arm_puts>
480092e4:	ebfff317 	bl	48005f48 <arm_board_init>
480092e8:	e30600b8 	movw	r0, #24760	; 0x60b8
480092ec:	e3440801 	movt	r0, #18433	; 0x4801
480092f0:	eb000149 	bl	4800981c <arm_puts>
480092f4:	e24b3f41 	sub	r3, fp, #260	; 0x104
480092f8:	e1a00003 	mov	r0, r3
480092fc:	e3a01c01 	mov	r1, #256	; 0x100
48009300:	e3a0200a 	mov	r2, #10
48009304:	eb000156 	bl	48009864 <arm_gets>
48009308:	e24b3f41 	sub	r3, fp, #260	; 0x104
4800930c:	e1a00003 	mov	r0, r3
48009310:	ebfffe99 	bl	48008d7c <arm_exec>
48009314:	eafffff3 	b	480092e8 <arm_main+0x3c>

48009318 <arm_malloc>:
48009318:	e52db004 	push	{fp}		; (str fp, [sp, #-4]!)
4800931c:	e28db000 	add	fp, sp, #0
48009320:	e24dd014 	sub	sp, sp, #20
48009324:	e50b0010 	str	r0, [fp, #-16]
48009328:	e3043014 	movw	r3, #16404	; 0x4014
4800932c:	e3443802 	movt	r3, #18434	; 0x4802
48009330:	e5933000 	ldr	r3, [r3]
48009334:	e50b3008 	str	r3, [fp, #-8]
48009338:	e3043014 	movw	r3, #16404	; 0x4014
4800933c:	e3443802 	movt	r3, #18434	; 0x4802
48009340:	e5932000 	ldr	r2, [r3]
48009344:	e51b3010 	ldr	r3, [fp, #-16]
48009348:	e0822003 	add	r2, r2, r3
4800934c:	e3043014 	movw	r3, #16404	; 0x4014
48009350:	e3443802 	movt	r3, #18434	; 0x4802
48009354:	e5832000 	str	r2, [r3]
48009358:	e51b3008 	ldr	r3, [fp, #-8]
4800935c:	e1a00003 	mov	r0, r3
48009360:	e24bd000 	sub	sp, fp, #0
48009364:	e49db004 	pop	{fp}		; (ldr fp, [sp], #4)
48009368:	e12fff1e 	bx	lr

4800936c <arm_heap_init>:
4800936c:	e52db004 	push	{fp}		; (str fp, [sp, #-4]!)
48009370:	e28db000 	add	fp, sp, #0
48009374:	e3043014 	movw	r3, #16404	; 0x4014
48009378:	e3443802 	movt	r3, #18434	; 0x4802
4800937c:	e3072824 	movw	r2, #30756	; 0x7824
48009380:	e3442802 	movt	r2, #18434	; 0x4802
48009384:	e5832000 	str	r2, [r3]
48009388:	e24bd000 	sub	sp, fp, #0
4800938c:	e49db004 	pop	{fp}		; (ldr fp, [sp], #4)
48009390:	e12fff1e 	bx	lr

48009394 <do_undefined_instruction>:
48009394:	e52db004 	push	{fp}		; (str fp, [sp, #-4]!)
48009398:	e28db000 	add	fp, sp, #0
4800939c:	e24dd00c 	sub	sp, sp, #12
480093a0:	e50b0008 	str	r0, [fp, #-8]
480093a4:	e24bd000 	sub	sp, fp, #0
480093a8:	e49db004 	pop	{fp}		; (ldr fp, [sp], #4)
480093ac:	e12fff1e 	bx	lr

480093b0 <do_software_interrupt>:
480093b0:	e92d4800 	push	{fp, lr}
480093b4:	e28db004 	add	fp, sp, #4
480093b8:	e24dd008 	sub	sp, sp, #8
480093bc:	e50b0008 	str	r0, [fp, #-8]
480093c0:	e51b0008 	ldr	r0, [fp, #-8]
480093c4:	ebffdc9d 	bl	48000640 <arm_mmu_syscall>
480093c8:	e24bd004 	sub	sp, fp, #4
480093cc:	e8bd8800 	pop	{fp, pc}

480093d0 <do_prefetch_abort>:
480093d0:	e92d4800 	push	{fp, lr}
480093d4:	e28db004 	add	fp, sp, #4
480093d8:	e24dd008 	sub	sp, sp, #8
480093dc:	e50b0008 	str	r0, [fp, #-8]
480093e0:	e51b0008 	ldr	r0, [fp, #-8]
480093e4:	ebffdcb7 	bl	480006c8 <arm_mmu_prefetch_abort>
480093e8:	e24bd004 	sub	sp, fp, #4
480093ec:	e8bd8800 	pop	{fp, pc}

480093f0 <do_data_abort>:
480093f0:	e92d4800 	push	{fp, lr}
480093f4:	e28db004 	add	fp, sp, #4
480093f8:	e24dd008 	sub	sp, sp, #8
480093fc:	e50b0008 	str	r0, [fp, #-8]
48009400:	e51b0008 	ldr	r0, [fp, #-8]
48009404:	ebffdcdd 	bl	48000780 <arm_mmu_data_abort>
48009408:	e24bd004 	sub	sp, fp, #4
4800940c:	e8bd8800 	pop	{fp, pc}

48009410 <do_not_used>:
48009410:	e52db004 	push	{fp}		; (str fp, [sp, #-4]!)
48009414:	e28db000 	add	fp, sp, #0
48009418:	e24dd00c 	sub	sp, sp, #12
4800941c:	e50b0008 	str	r0, [fp, #-8]
48009420:	e24bd000 	sub	sp, fp, #0
48009424:	e49db004 	pop	{fp}		; (ldr fp, [sp], #4)
48009428:	e12fff1e 	bx	lr

4800942c <do_irq>:
4800942c:	e92d4800 	push	{fp, lr}
48009430:	e28db004 	add	fp, sp, #4
48009434:	e24dd010 	sub	sp, sp, #16
48009438:	e50b0010 	str	r0, [fp, #-16]
4800943c:	e3a03000 	mov	r3, #0
48009440:	e50b3008 	str	r3, [fp, #-8]
48009444:	ebfff33f 	bl	48006148 <arm_board_pic_active_irq>
48009448:	e1a03000 	mov	r3, r0
4800944c:	e50b300c 	str	r3, [fp, #-12]
48009450:	e51b300c 	ldr	r3, [fp, #-12]
48009454:	e3530000 	cmp	r3, #0
48009458:	ba000022 	blt	480094e8 <do_irq+0xbc>
4800945c:	e51b300c 	ldr	r3, [fp, #-12]
48009460:	e1a00003 	mov	r0, r3
48009464:	ebfff33e 	bl	48006164 <arm_board_pic_ack_irq>
48009468:	e50b0008 	str	r0, [fp, #-8]
4800946c:	e51b3008 	ldr	r3, [fp, #-8]
48009470:	e3530000 	cmp	r3, #0
48009474:	0a000000 	beq	4800947c <do_irq+0x50>
48009478:	eafffffe 	b	48009478 <do_irq+0x4c>
4800947c:	e3043018 	movw	r3, #16408	; 0x4018
48009480:	e3443802 	movt	r3, #18434	; 0x4802
48009484:	e51b200c 	ldr	r2, [fp, #-12]
48009488:	e7933102 	ldr	r3, [r3, r2, lsl #2]
4800948c:	e3530000 	cmp	r3, #0
48009490:	0a00000c 	beq	480094c8 <do_irq+0x9c>
48009494:	e3043018 	movw	r3, #16408	; 0x4018
48009498:	e3443802 	movt	r3, #18434	; 0x4802
4800949c:	e51b200c 	ldr	r2, [fp, #-12]
480094a0:	e7933102 	ldr	r3, [r3, r2, lsl #2]
480094a4:	e51b200c 	ldr	r2, [fp, #-12]
480094a8:	e1a00002 	mov	r0, r2
480094ac:	e51b1010 	ldr	r1, [fp, #-16]
480094b0:	e12fff33 	blx	r3
480094b4:	e50b0008 	str	r0, [fp, #-8]
480094b8:	e51b3008 	ldr	r3, [fp, #-8]
480094bc:	e3530000 	cmp	r3, #0
480094c0:	0a000000 	beq	480094c8 <do_irq+0x9c>
480094c4:	eafffffe 	b	480094c4 <do_irq+0x98>
480094c8:	e51b300c 	ldr	r3, [fp, #-12]
480094cc:	e1a00003 	mov	r0, r3
480094d0:	ebfff32c 	bl	48006188 <arm_board_pic_eoi_irq>
480094d4:	e50b0008 	str	r0, [fp, #-8]
480094d8:	e51b3008 	ldr	r3, [fp, #-8]
480094dc:	e3530000 	cmp	r3, #0
480094e0:	0a000000 	beq	480094e8 <do_irq+0xbc>
480094e4:	eafffffe 	b	480094e4 <do_irq+0xb8>
480094e8:	e24bd004 	sub	sp, fp, #4
480094ec:	e8bd8800 	pop	{fp, pc}

480094f0 <do_fiq>:
480094f0:	e52db004 	push	{fp}		; (str fp, [sp, #-4]!)
480094f4:	e28db000 	add	fp, sp, #0
480094f8:	e24dd00c 	sub	sp, sp, #12
480094fc:	e50b0008 	str	r0, [fp, #-8]
48009500:	e24bd000 	sub	sp, fp, #0
48009504:	e49db004 	pop	{fp}		; (ldr fp, [sp], #4)
48009508:	e12fff1e 	bx	lr

4800950c <arm_irq_setup>:
4800950c:	e92d4810 	push	{r4, fp, lr}
48009510:	e28db008 	add	fp, sp, #8
48009514:	e24dd014 	sub	sp, sp, #20
48009518:	e3a03000 	mov	r3, #0
4800951c:	e50b3014 	str	r3, [fp, #-20]
48009520:	e51b3014 	ldr	r3, [fp, #-20]
48009524:	e2833020 	add	r3, r3, #32
48009528:	e50b3018 	str	r3, [fp, #-24]
4800952c:	e3a03000 	mov	r3, #0
48009530:	e50b3010 	str	r3, [fp, #-16]
48009534:	ea000015 	b	48009590 <arm_irq_setup+0x84>
48009538:	e51b3010 	ldr	r3, [fp, #-16]
4800953c:	e1a03103 	lsl	r3, r3, #2
48009540:	e51b2014 	ldr	r2, [fp, #-20]
48009544:	e0822003 	add	r2, r2, r3
48009548:	e3003120 	movw	r3, #288	; 0x120
4800954c:	e3443800 	movt	r3, #18432	; 0x4800
48009550:	e51b1010 	ldr	r1, [fp, #-16]
48009554:	e7933101 	ldr	r3, [r3, r1, lsl #2]
48009558:	e5823000 	str	r3, [r2]
4800955c:	e51b3010 	ldr	r3, [fp, #-16]
48009560:	e1a03103 	lsl	r3, r3, #2
48009564:	e51b2018 	ldr	r2, [fp, #-24]
48009568:	e0822003 	add	r2, r2, r3
4800956c:	e51b3010 	ldr	r3, [fp, #-16]
48009570:	e2831008 	add	r1, r3, #8
48009574:	e3003120 	movw	r3, #288	; 0x120
48009578:	e3443800 	movt	r3, #18432	; 0x4800
4800957c:	e7933101 	ldr	r3, [r3, r1, lsl #2]
48009580:	e5823000 	str	r3, [r2]
48009584:	e51b3010 	ldr	r3, [fp, #-16]
48009588:	e2833001 	add	r3, r3, #1
4800958c:	e50b3010 	str	r3, [fp, #-16]
48009590:	e51b3010 	ldr	r3, [fp, #-16]
48009594:	e3530007 	cmp	r3, #7
48009598:	daffffe6 	ble	48009538 <arm_irq_setup+0x2c>
4800959c:	e3a03000 	mov	r3, #0
480095a0:	e50b3010 	str	r3, [fp, #-16]
480095a4:	ea00001a 	b	48009614 <arm_irq_setup+0x108>
480095a8:	e51b3010 	ldr	r3, [fp, #-16]
480095ac:	e1a03103 	lsl	r3, r3, #2
480095b0:	e51b2014 	ldr	r2, [fp, #-20]
480095b4:	e0823003 	add	r3, r2, r3
480095b8:	e5932000 	ldr	r2, [r3]
480095bc:	e3003120 	movw	r3, #288	; 0x120
480095c0:	e3443800 	movt	r3, #18432	; 0x4800
480095c4:	e51b1010 	ldr	r1, [fp, #-16]
480095c8:	e7933101 	ldr	r3, [r3, r1, lsl #2]
480095cc:	e1520003 	cmp	r2, r3
480095d0:	1a00000b 	bne	48009604 <arm_irq_setup+0xf8>
480095d4:	e51b3010 	ldr	r3, [fp, #-16]
480095d8:	e1a03103 	lsl	r3, r3, #2
480095dc:	e51b2018 	ldr	r2, [fp, #-24]
480095e0:	e0823003 	add	r3, r2, r3
480095e4:	e5932000 	ldr	r2, [r3]
480095e8:	e51b3010 	ldr	r3, [fp, #-16]
480095ec:	e2831008 	add	r1, r3, #8
480095f0:	e3003120 	movw	r3, #288	; 0x120
480095f4:	e3443800 	movt	r3, #18432	; 0x4800
480095f8:	e7933101 	ldr	r3, [r3, r1, lsl #2]
480095fc:	e1520003 	cmp	r2, r3
48009600:	0a000000 	beq	48009608 <arm_irq_setup+0xfc>
48009604:	eafffffe 	b	48009604 <arm_irq_setup+0xf8>
48009608:	e51b3010 	ldr	r3, [fp, #-16]
4800960c:	e2833001 	add	r3, r3, #1
48009610:	e50b3010 	str	r3, [fp, #-16]
48009614:	e51b3010 	ldr	r3, [fp, #-16]
48009618:	e3530007 	cmp	r3, #7
4800961c:	daffffe1 	ble	480095a8 <arm_irq_setup+0x9c>
48009620:	e3a03000 	mov	r3, #0
48009624:	e50b3010 	str	r3, [fp, #-16]
48009628:	ea000007 	b	4800964c <arm_irq_setup+0x140>
4800962c:	e3043018 	movw	r3, #16408	; 0x4018
48009630:	e3443802 	movt	r3, #18434	; 0x4802
48009634:	e51b2010 	ldr	r2, [fp, #-16]
48009638:	e3a01000 	mov	r1, #0
4800963c:	e7831102 	str	r1, [r3, r2, lsl #2]
48009640:	e51b3010 	ldr	r3, [fp, #-16]
48009644:	e2833001 	add	r3, r3, #1
48009648:	e50b3010 	str	r3, [fp, #-16]
4800964c:	e51b4010 	ldr	r4, [fp, #-16]
48009650:	ebfff299 	bl	480060bc <arm_board_pic_nr_irqs>
48009654:	e1a03000 	mov	r3, r0
48009658:	e3530b01 	cmp	r3, #1024	; 0x400
4800965c:	2a000002 	bcs	4800966c <arm_irq_setup+0x160>
48009660:	ebfff295 	bl	480060bc <arm_board_pic_nr_irqs>
48009664:	e1a03000 	mov	r3, r0
48009668:	ea000000 	b	48009670 <arm_irq_setup+0x164>
4800966c:	e3a03b01 	mov	r3, #1024	; 0x400
48009670:	e1540003 	cmp	r4, r3
48009674:	3affffec 	bcc	4800962c <arm_irq_setup+0x120>
48009678:	ebfff296 	bl	480060d8 <arm_board_pic_init>
4800967c:	e50b0010 	str	r0, [fp, #-16]
48009680:	e51b3010 	ldr	r3, [fp, #-16]
48009684:	e3530000 	cmp	r3, #0
48009688:	0a000000 	beq	48009690 <arm_irq_setup+0x184>
4800968c:	eafffffe 	b	4800968c <arm_irq_setup+0x180>
48009690:	e24bd008 	sub	sp, fp, #8
48009694:	e8bd8810 	pop	{r4, fp, pc}

48009698 <arm_irq_register>:
48009698:	e92d4800 	push	{fp, lr}
4800969c:	e28db004 	add	fp, sp, #4
480096a0:	e24dd010 	sub	sp, sp, #16
480096a4:	e50b0010 	str	r0, [fp, #-16]
480096a8:	e50b1014 	str	r1, [fp, #-20]
480096ac:	e3a03000 	mov	r3, #0
480096b0:	e50b3008 	str	r3, [fp, #-8]
480096b4:	ebfff280 	bl	480060bc <arm_board_pic_nr_irqs>
480096b8:	e1a03000 	mov	r3, r0
480096bc:	e3530b01 	cmp	r3, #1024	; 0x400
480096c0:	2a000002 	bcs	480096d0 <arm_irq_register+0x38>
480096c4:	ebfff27c 	bl	480060bc <arm_board_pic_nr_irqs>
480096c8:	e1a03000 	mov	r3, r0
480096cc:	ea000000 	b	480096d4 <arm_irq_register+0x3c>
480096d0:	e3a03b01 	mov	r3, #1024	; 0x400
480096d4:	e51b2010 	ldr	r2, [fp, #-16]
480096d8:	e1530002 	cmp	r3, r2
480096dc:	9a000011 	bls	48009728 <arm_irq_register+0x90>
480096e0:	e3043018 	movw	r3, #16408	; 0x4018
480096e4:	e3443802 	movt	r3, #18434	; 0x4802
480096e8:	e51b2010 	ldr	r2, [fp, #-16]
480096ec:	e51b1014 	ldr	r1, [fp, #-20]
480096f0:	e7831102 	str	r1, [r3, r2, lsl #2]
480096f4:	e3043018 	movw	r3, #16408	; 0x4018
480096f8:	e3443802 	movt	r3, #18434	; 0x4802
480096fc:	e51b2010 	ldr	r2, [fp, #-16]
48009700:	e7933102 	ldr	r3, [r3, r2, lsl #2]
48009704:	e3530000 	cmp	r3, #0
48009708:	0a000006 	beq	48009728 <arm_irq_register+0x90>
4800970c:	e51b0010 	ldr	r0, [fp, #-16]
48009710:	ebfff2b2 	bl	480061e0 <arm_board_pic_unmask>
48009714:	e50b0008 	str	r0, [fp, #-8]
48009718:	e51b3008 	ldr	r3, [fp, #-8]
4800971c:	e3530000 	cmp	r3, #0
48009720:	0a000000 	beq	48009728 <arm_irq_register+0x90>
48009724:	eafffffe 	b	48009724 <arm_irq_register+0x8c>
48009728:	e24bd004 	sub	sp, fp, #4
4800972c:	e8bd8800 	pop	{fp, pc}

48009730 <arm_irq_enable>:
48009730:	e52db004 	push	{fp}		; (str fp, [sp, #-4]!)
48009734:	e28db000 	add	fp, sp, #0
48009738:	ef011800 	svc	0x00011800
4800973c:	e24bd000 	sub	sp, fp, #0
48009740:	e49db004 	pop	{fp}		; (ldr fp, [sp], #4)
48009744:	e12fff1e 	bx	lr

48009748 <arm_irq_disable>:
48009748:	e52db004 	push	{fp}		; (str fp, [sp, #-4]!)
4800974c:	e28db000 	add	fp, sp, #0
48009750:	ef019800 	svc	0x00019800
48009754:	e24bd000 	sub	sp, fp, #0
48009758:	e49db004 	pop	{fp}		; (ldr fp, [sp], #4)
4800975c:	e12fff1e 	bx	lr

48009760 <arm_irq_wfi>:
48009760:	e52db004 	push	{fp}		; (str fp, [sp, #-4]!)
48009764:	e28db000 	add	fp, sp, #0
48009768:	ef0c0000 	svc	0x000c0000
4800976c:	e24bd000 	sub	sp, fp, #0
48009770:	e49db004 	pop	{fp}		; (ldr fp, [sp], #4)
48009774:	e12fff1e 	bx	lr

48009778 <arm_stdio_init>:
48009778:	e92d4800 	push	{fp, lr}
4800977c:	e28db004 	add	fp, sp, #4
48009780:	e24dd008 	sub	sp, sp, #8
48009784:	ebfff304 	bl	4800639c <arm_board_serial_init>
48009788:	e50b0008 	str	r0, [fp, #-8]
4800978c:	e51b3008 	ldr	r3, [fp, #-8]
48009790:	e3530000 	cmp	r3, #0
48009794:	0a000000 	beq	4800979c <arm_stdio_init+0x24>
48009798:	eafffffe 	b	48009798 <arm_stdio_init+0x20>
4800979c:	e24bd004 	sub	sp, fp, #4
480097a0:	e8bd8800 	pop	{fp, pc}

480097a4 <arm_isprintable>:
480097a4:	e52db004 	push	{fp}		; (str fp, [sp, #-4]!)
480097a8:	e28db000 	add	fp, sp, #0
480097ac:	e24dd00c 	sub	sp, sp, #12
480097b0:	e1a03000 	mov	r3, r0
480097b4:	e54b3005 	strb	r3, [fp, #-5]
480097b8:	e55b3005 	ldrb	r3, [fp, #-5]
480097bc:	e353001f 	cmp	r3, #31
480097c0:	9a000002 	bls	480097d0 <arm_isprintable+0x2c>
480097c4:	e55b3005 	ldrb	r3, [fp, #-5]
480097c8:	e353007e 	cmp	r3, #126	; 0x7e
480097cc:	9a00000b 	bls	48009800 <arm_isprintable+0x5c>
480097d0:	e55b3005 	ldrb	r3, [fp, #-5]
480097d4:	e353000c 	cmp	r3, #12
480097d8:	0a000008 	beq	48009800 <arm_isprintable+0x5c>
480097dc:	e55b3005 	ldrb	r3, [fp, #-5]
480097e0:	e353000d 	cmp	r3, #13
480097e4:	0a000005 	beq	48009800 <arm_isprintable+0x5c>
480097e8:	e55b3005 	ldrb	r3, [fp, #-5]
480097ec:	e353000a 	cmp	r3, #10
480097f0:	0a000002 	beq	48009800 <arm_isprintable+0x5c>
480097f4:	e55b3005 	ldrb	r3, [fp, #-5]
480097f8:	e3530009 	cmp	r3, #9
480097fc:	1a000001 	bne	48009808 <arm_isprintable+0x64>
48009800:	e3a03001 	mov	r3, #1
48009804:	ea000000 	b	4800980c <arm_isprintable+0x68>
48009808:	e3a03000 	mov	r3, #0
4800980c:	e1a00003 	mov	r0, r3
48009810:	e24bd000 	sub	sp, fp, #0
48009814:	e49db004 	pop	{fp}		; (ldr fp, [sp], #4)
48009818:	e12fff1e 	bx	lr

4800981c <arm_puts>:
4800981c:	e92d4800 	push	{fp, lr}
48009820:	e28db004 	add	fp, sp, #4
48009824:	e24dd008 	sub	sp, sp, #8
48009828:	e50b0008 	str	r0, [fp, #-8]
4800982c:	ea000006 	b	4800984c <arm_puts+0x30>
48009830:	e51b3008 	ldr	r3, [fp, #-8]
48009834:	e5d33000 	ldrb	r3, [r3]
48009838:	e1a00003 	mov	r0, r3
4800983c:	ebfff2e3 	bl	480063d0 <arm_board_serial_putc>
48009840:	e51b3008 	ldr	r3, [fp, #-8]
48009844:	e2833001 	add	r3, r3, #1
48009848:	e50b3008 	str	r3, [fp, #-8]
4800984c:	e51b3008 	ldr	r3, [fp, #-8]
48009850:	e5d33000 	ldrb	r3, [r3]
48009854:	e3530000 	cmp	r3, #0
48009858:	1afffff4 	bne	48009830 <arm_puts+0x14>
4800985c:	e24bd004 	sub	sp, fp, #4
48009860:	e8bd8800 	pop	{fp, pc}

48009864 <arm_gets>:
48009864:	e92d4800 	push	{fp, lr}
48009868:	e28db004 	add	fp, sp, #4
4800986c:	e24dd018 	sub	sp, sp, #24
48009870:	e50b0010 	str	r0, [fp, #-16]
48009874:	e50b1014 	str	r1, [fp, #-20]
48009878:	e1a03002 	mov	r3, r2
4800987c:	e54b3015 	strb	r3, [fp, #-21]
48009880:	e51b3010 	ldr	r3, [fp, #-16]
48009884:	e50b3008 	str	r3, [fp, #-8]
48009888:	ebfff2e5 	bl	48006424 <arm_board_serial_getc>
4800988c:	e1a03000 	mov	r3, r0
48009890:	e54b3009 	strb	r3, [fp, #-9]
48009894:	ea00000f 	b	480098d8 <arm_gets+0x74>
48009898:	e51b3008 	ldr	r3, [fp, #-8]
4800989c:	e55b2009 	ldrb	r2, [fp, #-9]
480098a0:	e5c32000 	strb	r2, [r3]
480098a4:	e51b3008 	ldr	r3, [fp, #-8]
480098a8:	e2833001 	add	r3, r3, #1
480098ac:	e50b3008 	str	r3, [fp, #-8]
480098b0:	e51b3014 	ldr	r3, [fp, #-20]
480098b4:	e2433001 	sub	r3, r3, #1
480098b8:	e50b3014 	str	r3, [fp, #-20]
480098bc:	e51b3014 	ldr	r3, [fp, #-20]
480098c0:	e3530000 	cmp	r3, #0
480098c4:	1a000000 	bne	480098cc <arm_gets+0x68>
480098c8:	ea000009 	b	480098f4 <arm_gets+0x90>
480098cc:	ebfff2d4 	bl	48006424 <arm_board_serial_getc>
480098d0:	e1a03000 	mov	r3, r0
480098d4:	e54b3009 	strb	r3, [fp, #-9]
480098d8:	e55b2009 	ldrb	r2, [fp, #-9]
480098dc:	e55b3015 	ldrb	r3, [fp, #-21]
480098e0:	e1520003 	cmp	r2, r3
480098e4:	0a000002 	beq	480098f4 <arm_gets+0x90>
480098e8:	e51b3014 	ldr	r3, [fp, #-20]
480098ec:	e3530000 	cmp	r3, #0
480098f0:	caffffe8 	bgt	48009898 <arm_gets+0x34>
480098f4:	e51b3008 	ldr	r3, [fp, #-8]
480098f8:	e3a02000 	mov	r2, #0
480098fc:	e5c32000 	strb	r2, [r3]
48009900:	e1a00000 	nop			; (mov r0, r0)
48009904:	e24bd004 	sub	sp, fp, #4
48009908:	e8bd8800 	pop	{fp, pc}

4800990c <printc>:
4800990c:	e92d4800 	push	{fp, lr}
48009910:	e28db004 	add	fp, sp, #4
48009914:	e24dd010 	sub	sp, sp, #16
48009918:	e50b0008 	str	r0, [fp, #-8]
4800991c:	e50b100c 	str	r1, [fp, #-12]
48009920:	e1a03002 	mov	r3, r2
48009924:	e54b300d 	strb	r3, [fp, #-13]
48009928:	e51b3008 	ldr	r3, [fp, #-8]
4800992c:	e3530000 	cmp	r3, #0
48009930:	0a000023 	beq	480099c4 <printc+0xb8>
48009934:	e51b3008 	ldr	r3, [fp, #-8]
48009938:	e5933000 	ldr	r3, [r3]
4800993c:	e3530000 	cmp	r3, #0
48009940:	0a000022 	beq	480099d0 <printc+0xc4>
48009944:	e51b300c 	ldr	r3, [fp, #-12]
48009948:	e3530000 	cmp	r3, #0
4800994c:	0a000012 	beq	4800999c <printc+0x90>
48009950:	e51b300c 	ldr	r3, [fp, #-12]
48009954:	e5933000 	ldr	r3, [r3]
48009958:	e3530000 	cmp	r3, #0
4800995c:	0a00000e 	beq	4800999c <printc+0x90>
48009960:	e51b3008 	ldr	r3, [fp, #-8]
48009964:	e5933000 	ldr	r3, [r3]
48009968:	e55b200d 	ldrb	r2, [fp, #-13]
4800996c:	e5c32000 	strb	r2, [r3]
48009970:	e51b3008 	ldr	r3, [fp, #-8]
48009974:	e5933000 	ldr	r3, [r3]
48009978:	e2832001 	add	r2, r3, #1
4800997c:	e51b3008 	ldr	r3, [fp, #-8]
48009980:	e5832000 	str	r2, [r3]
48009984:	e51b300c 	ldr	r3, [fp, #-12]
48009988:	e5933000 	ldr	r3, [r3]
4800998c:	e2432001 	sub	r2, r3, #1
48009990:	e51b300c 	ldr	r3, [fp, #-12]
48009994:	e5832000 	str	r2, [r3]
48009998:	ea00000c 	b	480099d0 <printc+0xc4>
4800999c:	e51b3008 	ldr	r3, [fp, #-8]
480099a0:	e5933000 	ldr	r3, [r3]
480099a4:	e55b200d 	ldrb	r2, [fp, #-13]
480099a8:	e5c32000 	strb	r2, [r3]
480099ac:	e51b3008 	ldr	r3, [fp, #-8]
480099b0:	e5933000 	ldr	r3, [r3]
480099b4:	e2832001 	add	r2, r3, #1
480099b8:	e51b3008 	ldr	r3, [fp, #-8]
480099bc:	e5832000 	str	r2, [r3]
480099c0:	ea000002 	b	480099d0 <printc+0xc4>
480099c4:	e55b300d 	ldrb	r3, [fp, #-13]
480099c8:	e1a00003 	mov	r0, r3
480099cc:	ebfff27f 	bl	480063d0 <arm_board_serial_putc>
480099d0:	e24bd004 	sub	sp, fp, #4
480099d4:	e8bd8800 	pop	{fp, pc}

480099d8 <prints>:
480099d8:	e92d4800 	push	{fp, lr}
480099dc:	e28db004 	add	fp, sp, #4
480099e0:	e24dd020 	sub	sp, sp, #32
480099e4:	e50b0018 	str	r0, [fp, #-24]
480099e8:	e50b101c 	str	r1, [fp, #-28]
480099ec:	e50b2020 	str	r2, [fp, #-32]
480099f0:	e50b3024 	str	r3, [fp, #-36]	; 0x24
480099f4:	e3a03000 	mov	r3, #0
480099f8:	e50b3008 	str	r3, [fp, #-8]
480099fc:	e3a03020 	mov	r3, #32
48009a00:	e54b3009 	strb	r3, [fp, #-9]
48009a04:	e51b3024 	ldr	r3, [fp, #-36]	; 0x24
48009a08:	e3530000 	cmp	r3, #0
48009a0c:	da00001f 	ble	48009a90 <prints+0xb8>
48009a10:	e3a03000 	mov	r3, #0
48009a14:	e50b3010 	str	r3, [fp, #-16]
48009a18:	e51b3020 	ldr	r3, [fp, #-32]
48009a1c:	e50b3014 	str	r3, [fp, #-20]
48009a20:	ea000005 	b	48009a3c <prints+0x64>
48009a24:	e51b3010 	ldr	r3, [fp, #-16]
48009a28:	e2833001 	add	r3, r3, #1
48009a2c:	e50b3010 	str	r3, [fp, #-16]
48009a30:	e51b3014 	ldr	r3, [fp, #-20]
48009a34:	e2833001 	add	r3, r3, #1
48009a38:	e50b3014 	str	r3, [fp, #-20]
48009a3c:	e51b3014 	ldr	r3, [fp, #-20]
48009a40:	e5d33000 	ldrb	r3, [r3]
48009a44:	e3530000 	cmp	r3, #0
48009a48:	1afffff5 	bne	48009a24 <prints+0x4c>
48009a4c:	e51b2010 	ldr	r2, [fp, #-16]
48009a50:	e51b3024 	ldr	r3, [fp, #-36]	; 0x24
48009a54:	e1520003 	cmp	r2, r3
48009a58:	ba000002 	blt	48009a68 <prints+0x90>
48009a5c:	e3a03000 	mov	r3, #0
48009a60:	e50b3024 	str	r3, [fp, #-36]	; 0x24
48009a64:	ea000003 	b	48009a78 <prints+0xa0>
48009a68:	e51b2024 	ldr	r2, [fp, #-36]	; 0x24
48009a6c:	e51b3010 	ldr	r3, [fp, #-16]
48009a70:	e0633002 	rsb	r3, r3, r2
48009a74:	e50b3024 	str	r3, [fp, #-36]	; 0x24
48009a78:	e59b3004 	ldr	r3, [fp, #4]
48009a7c:	e2033002 	and	r3, r3, #2
48009a80:	e3530000 	cmp	r3, #0
48009a84:	0a000001 	beq	48009a90 <prints+0xb8>
48009a88:	e3a03030 	mov	r3, #48	; 0x30
48009a8c:	e54b3009 	strb	r3, [fp, #-9]
48009a90:	e59b3004 	ldr	r3, [fp, #4]
48009a94:	e2033001 	and	r3, r3, #1
48009a98:	e3530000 	cmp	r3, #0
48009a9c:	1a00000e 	bne	48009adc <prints+0x104>
48009aa0:	ea00000a 	b	48009ad0 <prints+0xf8>
48009aa4:	e55b3009 	ldrb	r3, [fp, #-9]
48009aa8:	e51b0018 	ldr	r0, [fp, #-24]
48009aac:	e51b101c 	ldr	r1, [fp, #-28]
48009ab0:	e1a02003 	mov	r2, r3
48009ab4:	ebffff94 	bl	4800990c <printc>
48009ab8:	e51b3008 	ldr	r3, [fp, #-8]
48009abc:	e2833001 	add	r3, r3, #1
48009ac0:	e50b3008 	str	r3, [fp, #-8]
48009ac4:	e51b3024 	ldr	r3, [fp, #-36]	; 0x24
48009ac8:	e2433001 	sub	r3, r3, #1
48009acc:	e50b3024 	str	r3, [fp, #-36]	; 0x24
48009ad0:	e51b3024 	ldr	r3, [fp, #-36]	; 0x24
48009ad4:	e3530000 	cmp	r3, #0
48009ad8:	cafffff1 	bgt	48009aa4 <prints+0xcc>
48009adc:	ea00000b 	b	48009b10 <prints+0x138>
48009ae0:	e51b3020 	ldr	r3, [fp, #-32]
48009ae4:	e5d33000 	ldrb	r3, [r3]
48009ae8:	e51b0018 	ldr	r0, [fp, #-24]
48009aec:	e51b101c 	ldr	r1, [fp, #-28]
48009af0:	e1a02003 	mov	r2, r3
48009af4:	ebffff84 	bl	4800990c <printc>
48009af8:	e51b3008 	ldr	r3, [fp, #-8]
48009afc:	e2833001 	add	r3, r3, #1
48009b00:	e50b3008 	str	r3, [fp, #-8]
48009b04:	e51b3020 	ldr	r3, [fp, #-32]
48009b08:	e2833001 	add	r3, r3, #1
48009b0c:	e50b3020 	str	r3, [fp, #-32]
48009b10:	e51b3020 	ldr	r3, [fp, #-32]
48009b14:	e5d33000 	ldrb	r3, [r3]
48009b18:	e3530000 	cmp	r3, #0
48009b1c:	1affffef 	bne	48009ae0 <prints+0x108>
48009b20:	ea00000a 	b	48009b50 <prints+0x178>
48009b24:	e55b3009 	ldrb	r3, [fp, #-9]
48009b28:	e51b0018 	ldr	r0, [fp, #-24]
48009b2c:	e51b101c 	ldr	r1, [fp, #-28]
48009b30:	e1a02003 	mov	r2, r3
48009b34:	ebffff74 	bl	4800990c <printc>
48009b38:	e51b3008 	ldr	r3, [fp, #-8]
48009b3c:	e2833001 	add	r3, r3, #1
48009b40:	e50b3008 	str	r3, [fp, #-8]
48009b44:	e51b3024 	ldr	r3, [fp, #-36]	; 0x24
48009b48:	e2433001 	sub	r3, r3, #1
48009b4c:	e50b3024 	str	r3, [fp, #-36]	; 0x24
48009b50:	e51b3024 	ldr	r3, [fp, #-36]	; 0x24
48009b54:	e3530000 	cmp	r3, #0
48009b58:	cafffff1 	bgt	48009b24 <prints+0x14c>
48009b5c:	e51b3008 	ldr	r3, [fp, #-8]
48009b60:	e1a00003 	mov	r0, r3
48009b64:	e24bd004 	sub	sp, fp, #4
48009b68:	e8bd8800 	pop	{fp, pc}

48009b6c <printi>:
48009b6c:	e92d4800 	push	{fp, lr}
48009b70:	e28db004 	add	fp, sp, #4
48009b74:	e24dd078 	sub	sp, sp, #120	; 0x78
48009b78:	e50b0068 	str	r0, [fp, #-104]	; 0x68
48009b7c:	e50b106c 	str	r1, [fp, #-108]	; 0x6c
48009b80:	e14b27f4 	strd	r2, [fp, #-116]	; 0xffffff8c
48009b84:	e3a03000 	mov	r3, #0
48009b88:	e50b300c 	str	r3, [fp, #-12]
48009b8c:	e3a03000 	mov	r3, #0
48009b90:	e50b3010 	str	r3, [fp, #-16]
48009b94:	e14b27d4 	ldrd	r2, [fp, #-116]	; 0xffffff8c
48009b98:	e14b21fc 	strd	r2, [fp, #-28]	; 0xffffffe4
48009b9c:	e59b3008 	ldr	r3, [fp, #8]
48009ba0:	e3530000 	cmp	r3, #0
48009ba4:	0a00000c 	beq	48009bdc <printi+0x70>
48009ba8:	e59b3004 	ldr	r3, [fp, #4]
48009bac:	e353000a 	cmp	r3, #10
48009bb0:	1a000009 	bne	48009bdc <printi+0x70>
48009bb4:	e14b27d4 	ldrd	r2, [fp, #-116]	; 0xffffff8c
48009bb8:	e3520000 	cmp	r2, #0
48009bbc:	e2d31000 	sbcs	r1, r3, #0
48009bc0:	aa000005 	bge	48009bdc <printi+0x70>
48009bc4:	e3a03001 	mov	r3, #1
48009bc8:	e50b300c 	str	r3, [fp, #-12]
48009bcc:	e14b27d4 	ldrd	r2, [fp, #-116]	; 0xffffff8c
48009bd0:	e2722000 	rsbs	r2, r2, #0
48009bd4:	e2e33000 	rsc	r3, r3, #0
48009bd8:	e14b21fc 	strd	r2, [fp, #-28]	; 0xffffffe4
48009bdc:	e24b305c 	sub	r3, fp, #92	; 0x5c
48009be0:	e283303f 	add	r3, r3, #63	; 0x3f
48009be4:	e50b3008 	str	r3, [fp, #-8]
48009be8:	e51b3008 	ldr	r3, [fp, #-8]
48009bec:	e3a02000 	mov	r2, #0
48009bf0:	e5c32000 	strb	r2, [r3]
48009bf4:	e14b21dc 	ldrd	r2, [fp, #-28]	; 0xffffffe4
48009bf8:	e1921003 	orrs	r1, r2, r3
48009bfc:	1a000006 	bne	48009c1c <printi+0xb0>
48009c00:	e51b3008 	ldr	r3, [fp, #-8]
48009c04:	e2433001 	sub	r3, r3, #1
48009c08:	e50b3008 	str	r3, [fp, #-8]
48009c0c:	e51b3008 	ldr	r3, [fp, #-8]
48009c10:	e3a02030 	mov	r2, #48	; 0x30
48009c14:	e5c32000 	strb	r2, [r3]
48009c18:	ea000020 	b	48009ca0 <printi+0x134>
48009c1c:	ea00001c 	b	48009c94 <printi+0x128>
48009c20:	e59b3004 	ldr	r3, [fp, #4]
48009c24:	e1a02003 	mov	r2, r3
48009c28:	e1a03fc2 	asr	r3, r2, #31
48009c2c:	e24b1064 	sub	r1, fp, #100	; 0x64
48009c30:	e58d1000 	str	r1, [sp]
48009c34:	e14b01dc 	ldrd	r0, [fp, #-28]	; 0xffffffe4
48009c38:	eb0006ff 	bl	4800b83c <do_udiv64>
48009c3c:	e14b01fc 	strd	r0, [fp, #-28]	; 0xffffffe4
48009c40:	e14b26d4 	ldrd	r2, [fp, #-100]	; 0xffffff9c
48009c44:	e3530000 	cmp	r3, #0
48009c48:	03520009 	cmpeq	r2, #9
48009c4c:	9a000007 	bls	48009c70 <printi+0x104>
48009c50:	e59b3014 	ldr	r3, [fp, #20]
48009c54:	e243303a 	sub	r3, r3, #58	; 0x3a
48009c58:	e1a00003 	mov	r0, r3
48009c5c:	e1a01fc0 	asr	r1, r0, #31
48009c60:	e14b26d4 	ldrd	r2, [fp, #-100]	; 0xffffff9c
48009c64:	e0922000 	adds	r2, r2, r0
48009c68:	e0a33001 	adc	r3, r3, r1
48009c6c:	e14b26f4 	strd	r2, [fp, #-100]	; 0xffffff9c
48009c70:	e51b3008 	ldr	r3, [fp, #-8]
48009c74:	e2433001 	sub	r3, r3, #1
48009c78:	e50b3008 	str	r3, [fp, #-8]
48009c7c:	e14b26d4 	ldrd	r2, [fp, #-100]	; 0xffffff9c
48009c80:	e6ef3072 	uxtb	r3, r2
48009c84:	e2833030 	add	r3, r3, #48	; 0x30
48009c88:	e6ef2073 	uxtb	r2, r3
48009c8c:	e51b3008 	ldr	r3, [fp, #-8]
48009c90:	e5c32000 	strb	r2, [r3]
48009c94:	e14b21dc 	ldrd	r2, [fp, #-28]	; 0xffffffe4
48009c98:	e1921003 	orrs	r1, r2, r3
48009c9c:	1affffdf 	bne	48009c20 <printi+0xb4>
48009ca0:	e59b3010 	ldr	r3, [fp, #16]
48009ca4:	e2033004 	and	r3, r3, #4
48009ca8:	e3530000 	cmp	r3, #0
48009cac:	0a00001e 	beq	48009d2c <printi+0x1c0>
48009cb0:	e59b3004 	ldr	r3, [fp, #4]
48009cb4:	e3530010 	cmp	r3, #16
48009cb8:	1a000009 	bne	48009ce4 <printi+0x178>
48009cbc:	e59b3014 	ldr	r3, [fp, #20]
48009cc0:	e3530041 	cmp	r3, #65	; 0x41
48009cc4:	1a000006 	bne	48009ce4 <printi+0x178>
48009cc8:	e51b3008 	ldr	r3, [fp, #-8]
48009ccc:	e2433001 	sub	r3, r3, #1
48009cd0:	e50b3008 	str	r3, [fp, #-8]
48009cd4:	e51b3008 	ldr	r3, [fp, #-8]
48009cd8:	e3a02058 	mov	r2, #88	; 0x58
48009cdc:	e5c32000 	strb	r2, [r3]
48009ce0:	ea00000b 	b	48009d14 <printi+0x1a8>
48009ce4:	e59b3004 	ldr	r3, [fp, #4]
48009ce8:	e3530010 	cmp	r3, #16
48009cec:	1a000008 	bne	48009d14 <printi+0x1a8>
48009cf0:	e59b3014 	ldr	r3, [fp, #20]
48009cf4:	e3530061 	cmp	r3, #97	; 0x61
48009cf8:	1a000005 	bne	48009d14 <printi+0x1a8>
48009cfc:	e51b3008 	ldr	r3, [fp, #-8]
48009d00:	e2433001 	sub	r3, r3, #1
48009d04:	e50b3008 	str	r3, [fp, #-8]
48009d08:	e51b3008 	ldr	r3, [fp, #-8]
48009d0c:	e3a02078 	mov	r2, #120	; 0x78
48009d10:	e5c32000 	strb	r2, [r3]
48009d14:	e51b3008 	ldr	r3, [fp, #-8]
48009d18:	e2433001 	sub	r3, r3, #1
48009d1c:	e50b3008 	str	r3, [fp, #-8]
48009d20:	e51b3008 	ldr	r3, [fp, #-8]
48009d24:	e3a02030 	mov	r2, #48	; 0x30
48009d28:	e5c32000 	strb	r2, [r3]
48009d2c:	e51b300c 	ldr	r3, [fp, #-12]
48009d30:	e3530000 	cmp	r3, #0
48009d34:	0a000017 	beq	48009d98 <printi+0x22c>
48009d38:	e59b300c 	ldr	r3, [fp, #12]
48009d3c:	e3530000 	cmp	r3, #0
48009d40:	0a00000e 	beq	48009d80 <printi+0x214>
48009d44:	e59b3010 	ldr	r3, [fp, #16]
48009d48:	e2033002 	and	r3, r3, #2
48009d4c:	e3530000 	cmp	r3, #0
48009d50:	0a00000a 	beq	48009d80 <printi+0x214>
48009d54:	e51b0068 	ldr	r0, [fp, #-104]	; 0x68
48009d58:	e51b106c 	ldr	r1, [fp, #-108]	; 0x6c
48009d5c:	e3a0202d 	mov	r2, #45	; 0x2d
48009d60:	ebfffee9 	bl	4800990c <printc>
48009d64:	e51b3010 	ldr	r3, [fp, #-16]
48009d68:	e2833001 	add	r3, r3, #1
48009d6c:	e50b3010 	str	r3, [fp, #-16]
48009d70:	e59b300c 	ldr	r3, [fp, #12]
48009d74:	e2433001 	sub	r3, r3, #1
48009d78:	e58b300c 	str	r3, [fp, #12]
48009d7c:	ea000005 	b	48009d98 <printi+0x22c>
48009d80:	e51b3008 	ldr	r3, [fp, #-8]
48009d84:	e2433001 	sub	r3, r3, #1
48009d88:	e50b3008 	str	r3, [fp, #-8]
48009d8c:	e51b3008 	ldr	r3, [fp, #-8]
48009d90:	e3a0202d 	mov	r2, #45	; 0x2d
48009d94:	e5c32000 	strb	r2, [r3]
48009d98:	e59b3010 	ldr	r3, [fp, #16]
48009d9c:	e58d3000 	str	r3, [sp]
48009da0:	e51b0068 	ldr	r0, [fp, #-104]	; 0x68
48009da4:	e51b106c 	ldr	r1, [fp, #-108]	; 0x6c
48009da8:	e51b2008 	ldr	r2, [fp, #-8]
48009dac:	e59b300c 	ldr	r3, [fp, #12]
48009db0:	ebffff08 	bl	480099d8 <prints>
48009db4:	e1a02000 	mov	r2, r0
48009db8:	e51b3010 	ldr	r3, [fp, #-16]
48009dbc:	e0823003 	add	r3, r2, r3
48009dc0:	e1a00003 	mov	r0, r3
48009dc4:	e24bd004 	sub	sp, fp, #4
48009dc8:	e8bd8800 	pop	{fp, pc}

48009dcc <print>:
48009dcc:	e92d4800 	push	{fp, lr}
48009dd0:	e28db004 	add	fp, sp, #4
48009dd4:	e24dd048 	sub	sp, sp, #72	; 0x48
48009dd8:	e50b0028 	str	r0, [fp, #-40]	; 0x28
48009ddc:	e50b102c 	str	r1, [fp, #-44]	; 0x2c
48009de0:	e50b2030 	str	r2, [fp, #-48]	; 0x30
48009de4:	e50b3034 	str	r3, [fp, #-52]	; 0x34
48009de8:	e3a03000 	mov	r3, #0
48009dec:	e50b3010 	str	r3, [fp, #-16]
48009df0:	e3a03000 	mov	r3, #0
48009df4:	e50b3014 	str	r3, [fp, #-20]
48009df8:	ea00023c 	b	4800a6f0 <print+0x924>
48009dfc:	e51b3030 	ldr	r3, [fp, #-48]	; 0x30
48009e00:	e5d33000 	ldrb	r3, [r3]
48009e04:	e3530025 	cmp	r3, #37	; 0x25
48009e08:	1a00022c 	bne	4800a6c0 <print+0x8f4>
48009e0c:	e51b3030 	ldr	r3, [fp, #-48]	; 0x30
48009e10:	e2833001 	add	r3, r3, #1
48009e14:	e50b3030 	str	r3, [fp, #-48]	; 0x30
48009e18:	e3a03000 	mov	r3, #0
48009e1c:	e50b300c 	str	r3, [fp, #-12]
48009e20:	e51b300c 	ldr	r3, [fp, #-12]
48009e24:	e50b3008 	str	r3, [fp, #-8]
48009e28:	e51b3030 	ldr	r3, [fp, #-48]	; 0x30
48009e2c:	e5d33000 	ldrb	r3, [r3]
48009e30:	e3530000 	cmp	r3, #0
48009e34:	1a000000 	bne	48009e3c <print+0x70>
48009e38:	ea000230 	b	4800a700 <print+0x934>
48009e3c:	e51b3030 	ldr	r3, [fp, #-48]	; 0x30
48009e40:	e5d33000 	ldrb	r3, [r3]
48009e44:	e3530025 	cmp	r3, #37	; 0x25
48009e48:	1a000000 	bne	48009e50 <print+0x84>
48009e4c:	ea00021b 	b	4800a6c0 <print+0x8f4>
48009e50:	e51b3030 	ldr	r3, [fp, #-48]	; 0x30
48009e54:	e5d33000 	ldrb	r3, [r3]
48009e58:	e353002d 	cmp	r3, #45	; 0x2d
48009e5c:	1a000004 	bne	48009e74 <print+0xa8>
48009e60:	e51b3030 	ldr	r3, [fp, #-48]	; 0x30
48009e64:	e2833001 	add	r3, r3, #1
48009e68:	e50b3030 	str	r3, [fp, #-48]	; 0x30
48009e6c:	e3a03001 	mov	r3, #1
48009e70:	e50b300c 	str	r3, [fp, #-12]
48009e74:	e51b3030 	ldr	r3, [fp, #-48]	; 0x30
48009e78:	e5d33000 	ldrb	r3, [r3]
48009e7c:	e3530023 	cmp	r3, #35	; 0x23
48009e80:	1a000006 	bne	48009ea0 <print+0xd4>
48009e84:	e51b3030 	ldr	r3, [fp, #-48]	; 0x30
48009e88:	e2833001 	add	r3, r3, #1
48009e8c:	e50b3030 	str	r3, [fp, #-48]	; 0x30
48009e90:	e51b300c 	ldr	r3, [fp, #-12]
48009e94:	e3833004 	orr	r3, r3, #4
48009e98:	e50b300c 	str	r3, [fp, #-12]
48009e9c:	ea000006 	b	48009ebc <print+0xf0>
48009ea0:	ea000005 	b	48009ebc <print+0xf0>
48009ea4:	e51b3030 	ldr	r3, [fp, #-48]	; 0x30
48009ea8:	e2833001 	add	r3, r3, #1
48009eac:	e50b3030 	str	r3, [fp, #-48]	; 0x30
48009eb0:	e51b300c 	ldr	r3, [fp, #-12]
48009eb4:	e3833002 	orr	r3, r3, #2
48009eb8:	e50b300c 	str	r3, [fp, #-12]
48009ebc:	e51b3030 	ldr	r3, [fp, #-48]	; 0x30
48009ec0:	e5d33000 	ldrb	r3, [r3]
48009ec4:	e3530030 	cmp	r3, #48	; 0x30
48009ec8:	0afffff5 	beq	48009ea4 <print+0xd8>
48009ecc:	ea00000e 	b	48009f0c <print+0x140>
48009ed0:	e51b2008 	ldr	r2, [fp, #-8]
48009ed4:	e1a03002 	mov	r3, r2
48009ed8:	e1a03103 	lsl	r3, r3, #2
48009edc:	e0833002 	add	r3, r3, r2
48009ee0:	e1a03083 	lsl	r3, r3, #1
48009ee4:	e50b3008 	str	r3, [fp, #-8]
48009ee8:	e51b3030 	ldr	r3, [fp, #-48]	; 0x30
48009eec:	e5d33000 	ldrb	r3, [r3]
48009ef0:	e2433030 	sub	r3, r3, #48	; 0x30
48009ef4:	e51b2008 	ldr	r2, [fp, #-8]
48009ef8:	e0823003 	add	r3, r2, r3
48009efc:	e50b3008 	str	r3, [fp, #-8]
48009f00:	e51b3030 	ldr	r3, [fp, #-48]	; 0x30
48009f04:	e2833001 	add	r3, r3, #1
48009f08:	e50b3030 	str	r3, [fp, #-48]	; 0x30
48009f0c:	e51b3030 	ldr	r3, [fp, #-48]	; 0x30
48009f10:	e5d33000 	ldrb	r3, [r3]
48009f14:	e353002f 	cmp	r3, #47	; 0x2f
48009f18:	9a000003 	bls	48009f2c <print+0x160>
48009f1c:	e51b3030 	ldr	r3, [fp, #-48]	; 0x30
48009f20:	e5d33000 	ldrb	r3, [r3]
48009f24:	e3530039 	cmp	r3, #57	; 0x39
48009f28:	9affffe8 	bls	48009ed0 <print+0x104>
48009f2c:	e51b3030 	ldr	r3, [fp, #-48]	; 0x30
48009f30:	e5d33000 	ldrb	r3, [r3]
48009f34:	e3530073 	cmp	r3, #115	; 0x73
48009f38:	1a00001a 	bne	48009fa8 <print+0x1dc>
48009f3c:	e51b3034 	ldr	r3, [fp, #-52]	; 0x34
48009f40:	e2832004 	add	r2, r3, #4
48009f44:	e50b2034 	str	r2, [fp, #-52]	; 0x34
48009f48:	e5933000 	ldr	r3, [r3]
48009f4c:	e50b3018 	str	r3, [fp, #-24]
48009f50:	e51b3010 	ldr	r3, [fp, #-16]
48009f54:	e2833004 	add	r3, r3, #4
48009f58:	e50b3010 	str	r3, [fp, #-16]
48009f5c:	e51b3018 	ldr	r3, [fp, #-24]
48009f60:	e3530000 	cmp	r3, #0
48009f64:	0a000001 	beq	48009f70 <print+0x1a4>
48009f68:	e51b3018 	ldr	r3, [fp, #-24]
48009f6c:	ea000001 	b	48009f78 <print+0x1ac>
48009f70:	e30630c0 	movw	r3, #24768	; 0x60c0
48009f74:	e3443801 	movt	r3, #18433	; 0x4801
48009f78:	e51b200c 	ldr	r2, [fp, #-12]
48009f7c:	e58d2000 	str	r2, [sp]
48009f80:	e51b0028 	ldr	r0, [fp, #-40]	; 0x28
48009f84:	e51b102c 	ldr	r1, [fp, #-44]	; 0x2c
48009f88:	e1a02003 	mov	r2, r3
48009f8c:	e51b3008 	ldr	r3, [fp, #-8]
48009f90:	ebfffe90 	bl	480099d8 <prints>
48009f94:	e1a03000 	mov	r3, r0
48009f98:	e51b2014 	ldr	r2, [fp, #-20]
48009f9c:	e0823003 	add	r3, r2, r3
48009fa0:	e50b3014 	str	r3, [fp, #-20]
48009fa4:	ea0001ce 	b	4800a6e4 <print+0x918>
48009fa8:	e51b3030 	ldr	r3, [fp, #-48]	; 0x30
48009fac:	e5d33000 	ldrb	r3, [r3]
48009fb0:	e3530064 	cmp	r3, #100	; 0x64
48009fb4:	1a00001a 	bne	4800a024 <print+0x258>
48009fb8:	e51b3034 	ldr	r3, [fp, #-52]	; 0x34
48009fbc:	e2832004 	add	r2, r3, #4
48009fc0:	e50b2034 	str	r2, [fp, #-52]	; 0x34
48009fc4:	e5933000 	ldr	r3, [r3]
48009fc8:	e1a02003 	mov	r2, r3
48009fcc:	e1a03fc2 	asr	r3, r2, #31
48009fd0:	e3a0100a 	mov	r1, #10
48009fd4:	e58d1000 	str	r1, [sp]
48009fd8:	e3a01001 	mov	r1, #1
48009fdc:	e58d1004 	str	r1, [sp, #4]
48009fe0:	e51b1008 	ldr	r1, [fp, #-8]
48009fe4:	e58d1008 	str	r1, [sp, #8]
48009fe8:	e51b100c 	ldr	r1, [fp, #-12]
48009fec:	e58d100c 	str	r1, [sp, #12]
48009ff0:	e3a01030 	mov	r1, #48	; 0x30
48009ff4:	e58d1010 	str	r1, [sp, #16]
48009ff8:	e51b0028 	ldr	r0, [fp, #-40]	; 0x28
48009ffc:	e51b102c 	ldr	r1, [fp, #-44]	; 0x2c
4800a000:	ebfffed9 	bl	48009b6c <printi>
4800a004:	e1a03000 	mov	r3, r0
4800a008:	e51b2014 	ldr	r2, [fp, #-20]
4800a00c:	e0823003 	add	r3, r2, r3
4800a010:	e50b3014 	str	r3, [fp, #-20]
4800a014:	e51b3010 	ldr	r3, [fp, #-16]
4800a018:	e2833004 	add	r3, r3, #4
4800a01c:	e50b3010 	str	r3, [fp, #-16]
4800a020:	ea0001af 	b	4800a6e4 <print+0x918>
4800a024:	e51b3030 	ldr	r3, [fp, #-48]	; 0x30
4800a028:	e5d33000 	ldrb	r3, [r3]
4800a02c:	e3530078 	cmp	r3, #120	; 0x78
4800a030:	1a00001a 	bne	4800a0a0 <print+0x2d4>
4800a034:	e51b3034 	ldr	r3, [fp, #-52]	; 0x34
4800a038:	e2832004 	add	r2, r3, #4
4800a03c:	e50b2034 	str	r2, [fp, #-52]	; 0x34
4800a040:	e5933000 	ldr	r3, [r3]
4800a044:	e1a02003 	mov	r2, r3
4800a048:	e3a03000 	mov	r3, #0
4800a04c:	e3a01010 	mov	r1, #16
4800a050:	e58d1000 	str	r1, [sp]
4800a054:	e3a01000 	mov	r1, #0
4800a058:	e58d1004 	str	r1, [sp, #4]
4800a05c:	e51b1008 	ldr	r1, [fp, #-8]
4800a060:	e58d1008 	str	r1, [sp, #8]
4800a064:	e51b100c 	ldr	r1, [fp, #-12]
4800a068:	e58d100c 	str	r1, [sp, #12]
4800a06c:	e3a01061 	mov	r1, #97	; 0x61
4800a070:	e58d1010 	str	r1, [sp, #16]
4800a074:	e51b0028 	ldr	r0, [fp, #-40]	; 0x28
4800a078:	e51b102c 	ldr	r1, [fp, #-44]	; 0x2c
4800a07c:	ebfffeba 	bl	48009b6c <printi>
4800a080:	e1a03000 	mov	r3, r0
4800a084:	e51b2014 	ldr	r2, [fp, #-20]
4800a088:	e0823003 	add	r3, r2, r3
4800a08c:	e50b3014 	str	r3, [fp, #-20]
4800a090:	e51b3010 	ldr	r3, [fp, #-16]
4800a094:	e2833004 	add	r3, r3, #4
4800a098:	e50b3010 	str	r3, [fp, #-16]
4800a09c:	ea000190 	b	4800a6e4 <print+0x918>
4800a0a0:	e51b3030 	ldr	r3, [fp, #-48]	; 0x30
4800a0a4:	e5d33000 	ldrb	r3, [r3]
4800a0a8:	e3530058 	cmp	r3, #88	; 0x58
4800a0ac:	1a00001a 	bne	4800a11c <print+0x350>
4800a0b0:	e51b3034 	ldr	r3, [fp, #-52]	; 0x34
4800a0b4:	e2832004 	add	r2, r3, #4
4800a0b8:	e50b2034 	str	r2, [fp, #-52]	; 0x34
4800a0bc:	e5933000 	ldr	r3, [r3]
4800a0c0:	e1a02003 	mov	r2, r3
4800a0c4:	e3a03000 	mov	r3, #0
4800a0c8:	e3a01010 	mov	r1, #16
4800a0cc:	e58d1000 	str	r1, [sp]
4800a0d0:	e3a01000 	mov	r1, #0
4800a0d4:	e58d1004 	str	r1, [sp, #4]
4800a0d8:	e51b1008 	ldr	r1, [fp, #-8]
4800a0dc:	e58d1008 	str	r1, [sp, #8]
4800a0e0:	e51b100c 	ldr	r1, [fp, #-12]
4800a0e4:	e58d100c 	str	r1, [sp, #12]
4800a0e8:	e3a01041 	mov	r1, #65	; 0x41
4800a0ec:	e58d1010 	str	r1, [sp, #16]
4800a0f0:	e51b0028 	ldr	r0, [fp, #-40]	; 0x28
4800a0f4:	e51b102c 	ldr	r1, [fp, #-44]	; 0x2c
4800a0f8:	ebfffe9b 	bl	48009b6c <printi>
4800a0fc:	e1a03000 	mov	r3, r0
4800a100:	e51b2014 	ldr	r2, [fp, #-20]
4800a104:	e0823003 	add	r3, r2, r3
4800a108:	e50b3014 	str	r3, [fp, #-20]
4800a10c:	e51b3010 	ldr	r3, [fp, #-16]
4800a110:	e2833004 	add	r3, r3, #4
4800a114:	e50b3010 	str	r3, [fp, #-16]
4800a118:	ea000171 	b	4800a6e4 <print+0x918>
4800a11c:	e51b3030 	ldr	r3, [fp, #-48]	; 0x30
4800a120:	e5d33000 	ldrb	r3, [r3]
4800a124:	e3530075 	cmp	r3, #117	; 0x75
4800a128:	1a00001a 	bne	4800a198 <print+0x3cc>
4800a12c:	e51b3034 	ldr	r3, [fp, #-52]	; 0x34
4800a130:	e2832004 	add	r2, r3, #4
4800a134:	e50b2034 	str	r2, [fp, #-52]	; 0x34
4800a138:	e5933000 	ldr	r3, [r3]
4800a13c:	e1a02003 	mov	r2, r3
4800a140:	e3a03000 	mov	r3, #0
4800a144:	e3a0100a 	mov	r1, #10
4800a148:	e58d1000 	str	r1, [sp]
4800a14c:	e3a01000 	mov	r1, #0
4800a150:	e58d1004 	str	r1, [sp, #4]
4800a154:	e51b1008 	ldr	r1, [fp, #-8]
4800a158:	e58d1008 	str	r1, [sp, #8]
4800a15c:	e51b100c 	ldr	r1, [fp, #-12]
4800a160:	e58d100c 	str	r1, [sp, #12]
4800a164:	e3a01061 	mov	r1, #97	; 0x61
4800a168:	e58d1010 	str	r1, [sp, #16]
4800a16c:	e51b0028 	ldr	r0, [fp, #-40]	; 0x28
4800a170:	e51b102c 	ldr	r1, [fp, #-44]	; 0x2c
4800a174:	ebfffe7c 	bl	48009b6c <printi>
4800a178:	e1a03000 	mov	r3, r0
4800a17c:	e51b2014 	ldr	r2, [fp, #-20]
4800a180:	e0823003 	add	r3, r2, r3
4800a184:	e50b3014 	str	r3, [fp, #-20]
4800a188:	e51b3010 	ldr	r3, [fp, #-16]
4800a18c:	e2833004 	add	r3, r3, #4
4800a190:	e50b3010 	str	r3, [fp, #-16]
4800a194:	ea000152 	b	4800a6e4 <print+0x918>
4800a198:	e51b3030 	ldr	r3, [fp, #-48]	; 0x30
4800a19c:	e5d33000 	ldrb	r3, [r3]
4800a1a0:	e3530070 	cmp	r3, #112	; 0x70
4800a1a4:	1a00001a 	bne	4800a214 <print+0x448>
4800a1a8:	e51b3034 	ldr	r3, [fp, #-52]	; 0x34
4800a1ac:	e2832004 	add	r2, r3, #4
4800a1b0:	e50b2034 	str	r2, [fp, #-52]	; 0x34
4800a1b4:	e5933000 	ldr	r3, [r3]
4800a1b8:	e1a02003 	mov	r2, r3
4800a1bc:	e3a03000 	mov	r3, #0
4800a1c0:	e3a01010 	mov	r1, #16
4800a1c4:	e58d1000 	str	r1, [sp]
4800a1c8:	e3a01000 	mov	r1, #0
4800a1cc:	e58d1004 	str	r1, [sp, #4]
4800a1d0:	e51b1008 	ldr	r1, [fp, #-8]
4800a1d4:	e58d1008 	str	r1, [sp, #8]
4800a1d8:	e51b100c 	ldr	r1, [fp, #-12]
4800a1dc:	e58d100c 	str	r1, [sp, #12]
4800a1e0:	e3a01061 	mov	r1, #97	; 0x61
4800a1e4:	e58d1010 	str	r1, [sp, #16]
4800a1e8:	e51b0028 	ldr	r0, [fp, #-40]	; 0x28
4800a1ec:	e51b102c 	ldr	r1, [fp, #-44]	; 0x2c
4800a1f0:	ebfffe5d 	bl	48009b6c <printi>
4800a1f4:	e1a03000 	mov	r3, r0
4800a1f8:	e51b2014 	ldr	r2, [fp, #-20]
4800a1fc:	e0823003 	add	r3, r2, r3
4800a200:	e50b3014 	str	r3, [fp, #-20]
4800a204:	e51b3010 	ldr	r3, [fp, #-16]
4800a208:	e2833004 	add	r3, r3, #4
4800a20c:	e50b3010 	str	r3, [fp, #-16]
4800a210:	ea000133 	b	4800a6e4 <print+0x918>
4800a214:	e51b3030 	ldr	r3, [fp, #-48]	; 0x30
4800a218:	e5d33000 	ldrb	r3, [r3]
4800a21c:	e3530050 	cmp	r3, #80	; 0x50
4800a220:	1a00001a 	bne	4800a290 <print+0x4c4>
4800a224:	e51b3034 	ldr	r3, [fp, #-52]	; 0x34
4800a228:	e2832004 	add	r2, r3, #4
4800a22c:	e50b2034 	str	r2, [fp, #-52]	; 0x34
4800a230:	e5933000 	ldr	r3, [r3]
4800a234:	e1a02003 	mov	r2, r3
4800a238:	e3a03000 	mov	r3, #0
4800a23c:	e3a01010 	mov	r1, #16
4800a240:	e58d1000 	str	r1, [sp]
4800a244:	e3a01000 	mov	r1, #0
4800a248:	e58d1004 	str	r1, [sp, #4]
4800a24c:	e51b1008 	ldr	r1, [fp, #-8]
4800a250:	e58d1008 	str	r1, [sp, #8]
4800a254:	e51b100c 	ldr	r1, [fp, #-12]
4800a258:	e58d100c 	str	r1, [sp, #12]
4800a25c:	e3a01041 	mov	r1, #65	; 0x41
4800a260:	e58d1010 	str	r1, [sp, #16]
4800a264:	e51b0028 	ldr	r0, [fp, #-40]	; 0x28
4800a268:	e51b102c 	ldr	r1, [fp, #-44]	; 0x2c
4800a26c:	ebfffe3e 	bl	48009b6c <printi>
4800a270:	e1a03000 	mov	r3, r0
4800a274:	e51b2014 	ldr	r2, [fp, #-20]
4800a278:	e0823003 	add	r3, r2, r3
4800a27c:	e50b3014 	str	r3, [fp, #-20]
4800a280:	e51b3010 	ldr	r3, [fp, #-16]
4800a284:	e2833004 	add	r3, r3, #4
4800a288:	e50b3010 	str	r3, [fp, #-16]
4800a28c:	ea000114 	b	4800a6e4 <print+0x918>
4800a290:	e51b3030 	ldr	r3, [fp, #-48]	; 0x30
4800a294:	e5d33000 	ldrb	r3, [r3]
4800a298:	e353006c 	cmp	r3, #108	; 0x6c
4800a29c:	1a000087 	bne	4800a4c0 <print+0x6f4>
4800a2a0:	e51b3030 	ldr	r3, [fp, #-48]	; 0x30
4800a2a4:	e2833001 	add	r3, r3, #1
4800a2a8:	e5d33000 	ldrb	r3, [r3]
4800a2ac:	e353006c 	cmp	r3, #108	; 0x6c
4800a2b0:	1a000082 	bne	4800a4c0 <print+0x6f4>
4800a2b4:	ea000005 	b	4800a2d0 <print+0x504>
4800a2b8:	e51b3034 	ldr	r3, [fp, #-52]	; 0x34
4800a2bc:	e2833004 	add	r3, r3, #4
4800a2c0:	e50b3034 	str	r3, [fp, #-52]	; 0x34
4800a2c4:	e51b3010 	ldr	r3, [fp, #-16]
4800a2c8:	e2833004 	add	r3, r3, #4
4800a2cc:	e50b3010 	str	r3, [fp, #-16]
4800a2d0:	e51b3010 	ldr	r3, [fp, #-16]
4800a2d4:	e2033007 	and	r3, r3, #7
4800a2d8:	e3530000 	cmp	r3, #0
4800a2dc:	1afffff5 	bne	4800a2b8 <print+0x4ec>
4800a2e0:	e24b2024 	sub	r2, fp, #36	; 0x24
4800a2e4:	e51b3034 	ldr	r3, [fp, #-52]	; 0x34
4800a2e8:	e2831004 	add	r1, r3, #4
4800a2ec:	e50b1034 	str	r1, [fp, #-52]	; 0x34
4800a2f0:	e5933000 	ldr	r3, [r3]
4800a2f4:	e5823000 	str	r3, [r2]
4800a2f8:	e24b3024 	sub	r3, fp, #36	; 0x24
4800a2fc:	e2833004 	add	r3, r3, #4
4800a300:	e51b2034 	ldr	r2, [fp, #-52]	; 0x34
4800a304:	e2821004 	add	r1, r2, #4
4800a308:	e50b1034 	str	r1, [fp, #-52]	; 0x34
4800a30c:	e5922000 	ldr	r2, [r2]
4800a310:	e5832000 	str	r2, [r3]
4800a314:	e51b3010 	ldr	r3, [fp, #-16]
4800a318:	e2833008 	add	r3, r3, #8
4800a31c:	e50b3010 	str	r3, [fp, #-16]
4800a320:	e51b3030 	ldr	r3, [fp, #-48]	; 0x30
4800a324:	e2833002 	add	r3, r3, #2
4800a328:	e5d33000 	ldrb	r3, [r3]
4800a32c:	e3530075 	cmp	r3, #117	; 0x75
4800a330:	1a000015 	bne	4800a38c <print+0x5c0>
4800a334:	e51b3030 	ldr	r3, [fp, #-48]	; 0x30
4800a338:	e2833002 	add	r3, r3, #2
4800a33c:	e50b3030 	str	r3, [fp, #-48]	; 0x30
4800a340:	e14b22d4 	ldrd	r2, [fp, #-36]	; 0xffffffdc
4800a344:	e3a0100a 	mov	r1, #10
4800a348:	e58d1000 	str	r1, [sp]
4800a34c:	e3a01000 	mov	r1, #0
4800a350:	e58d1004 	str	r1, [sp, #4]
4800a354:	e51b1008 	ldr	r1, [fp, #-8]
4800a358:	e58d1008 	str	r1, [sp, #8]
4800a35c:	e51b100c 	ldr	r1, [fp, #-12]
4800a360:	e58d100c 	str	r1, [sp, #12]
4800a364:	e3a01061 	mov	r1, #97	; 0x61
4800a368:	e58d1010 	str	r1, [sp, #16]
4800a36c:	e51b0028 	ldr	r0, [fp, #-40]	; 0x28
4800a370:	e51b102c 	ldr	r1, [fp, #-44]	; 0x2c
4800a374:	ebfffdfc 	bl	48009b6c <printi>
4800a378:	e1a03000 	mov	r3, r0
4800a37c:	e51b2014 	ldr	r2, [fp, #-20]
4800a380:	e0823003 	add	r3, r2, r3
4800a384:	e50b3014 	str	r3, [fp, #-20]
4800a388:	ea00004b 	b	4800a4bc <print+0x6f0>
4800a38c:	e51b3030 	ldr	r3, [fp, #-48]	; 0x30
4800a390:	e2833002 	add	r3, r3, #2
4800a394:	e5d33000 	ldrb	r3, [r3]
4800a398:	e3530078 	cmp	r3, #120	; 0x78
4800a39c:	1a000015 	bne	4800a3f8 <print+0x62c>
4800a3a0:	e51b3030 	ldr	r3, [fp, #-48]	; 0x30
4800a3a4:	e2833002 	add	r3, r3, #2
4800a3a8:	e50b3030 	str	r3, [fp, #-48]	; 0x30
4800a3ac:	e14b22d4 	ldrd	r2, [fp, #-36]	; 0xffffffdc
4800a3b0:	e3a01010 	mov	r1, #16
4800a3b4:	e58d1000 	str	r1, [sp]
4800a3b8:	e3a01000 	mov	r1, #0
4800a3bc:	e58d1004 	str	r1, [sp, #4]
4800a3c0:	e51b1008 	ldr	r1, [fp, #-8]
4800a3c4:	e58d1008 	str	r1, [sp, #8]
4800a3c8:	e51b100c 	ldr	r1, [fp, #-12]
4800a3cc:	e58d100c 	str	r1, [sp, #12]
4800a3d0:	e3a01061 	mov	r1, #97	; 0x61
4800a3d4:	e58d1010 	str	r1, [sp, #16]
4800a3d8:	e51b0028 	ldr	r0, [fp, #-40]	; 0x28
4800a3dc:	e51b102c 	ldr	r1, [fp, #-44]	; 0x2c
4800a3e0:	ebfffde1 	bl	48009b6c <printi>
4800a3e4:	e1a03000 	mov	r3, r0
4800a3e8:	e51b2014 	ldr	r2, [fp, #-20]
4800a3ec:	e0823003 	add	r3, r2, r3
4800a3f0:	e50b3014 	str	r3, [fp, #-20]
4800a3f4:	ea000030 	b	4800a4bc <print+0x6f0>
4800a3f8:	e51b3030 	ldr	r3, [fp, #-48]	; 0x30
4800a3fc:	e2833002 	add	r3, r3, #2
4800a400:	e5d33000 	ldrb	r3, [r3]
4800a404:	e3530058 	cmp	r3, #88	; 0x58
4800a408:	1a000015 	bne	4800a464 <print+0x698>
4800a40c:	e51b3030 	ldr	r3, [fp, #-48]	; 0x30
4800a410:	e2833002 	add	r3, r3, #2
4800a414:	e50b3030 	str	r3, [fp, #-48]	; 0x30
4800a418:	e14b22d4 	ldrd	r2, [fp, #-36]	; 0xffffffdc
4800a41c:	e3a01010 	mov	r1, #16
4800a420:	e58d1000 	str	r1, [sp]
4800a424:	e3a01000 	mov	r1, #0
4800a428:	e58d1004 	str	r1, [sp, #4]
4800a42c:	e51b1008 	ldr	r1, [fp, #-8]
4800a430:	e58d1008 	str	r1, [sp, #8]
4800a434:	e51b100c 	ldr	r1, [fp, #-12]
4800a438:	e58d100c 	str	r1, [sp, #12]
4800a43c:	e3a01041 	mov	r1, #65	; 0x41
4800a440:	e58d1010 	str	r1, [sp, #16]
4800a444:	e51b0028 	ldr	r0, [fp, #-40]	; 0x28
4800a448:	e51b102c 	ldr	r1, [fp, #-44]	; 0x2c
4800a44c:	ebfffdc6 	bl	48009b6c <printi>
4800a450:	e1a03000 	mov	r3, r0
4800a454:	e51b2014 	ldr	r2, [fp, #-20]
4800a458:	e0823003 	add	r3, r2, r3
4800a45c:	e50b3014 	str	r3, [fp, #-20]
4800a460:	ea000015 	b	4800a4bc <print+0x6f0>
4800a464:	e51b3030 	ldr	r3, [fp, #-48]	; 0x30
4800a468:	e2833001 	add	r3, r3, #1
4800a46c:	e50b3030 	str	r3, [fp, #-48]	; 0x30
4800a470:	e14b22d4 	ldrd	r2, [fp, #-36]	; 0xffffffdc
4800a474:	e3a0100a 	mov	r1, #10
4800a478:	e58d1000 	str	r1, [sp]
4800a47c:	e3a01001 	mov	r1, #1
4800a480:	e58d1004 	str	r1, [sp, #4]
4800a484:	e51b1008 	ldr	r1, [fp, #-8]
4800a488:	e58d1008 	str	r1, [sp, #8]
4800a48c:	e51b100c 	ldr	r1, [fp, #-12]
4800a490:	e58d100c 	str	r1, [sp, #12]
4800a494:	e3a01030 	mov	r1, #48	; 0x30
4800a498:	e58d1010 	str	r1, [sp, #16]
4800a49c:	e51b0028 	ldr	r0, [fp, #-40]	; 0x28
4800a4a0:	e51b102c 	ldr	r1, [fp, #-44]	; 0x2c
4800a4a4:	ebfffdb0 	bl	48009b6c <printi>
4800a4a8:	e1a03000 	mov	r3, r0
4800a4ac:	e51b2014 	ldr	r2, [fp, #-20]
4800a4b0:	e0823003 	add	r3, r2, r3
4800a4b4:	e50b3014 	str	r3, [fp, #-20]
4800a4b8:	ea000089 	b	4800a6e4 <print+0x918>
4800a4bc:	ea000088 	b	4800a6e4 <print+0x918>
4800a4c0:	e51b3030 	ldr	r3, [fp, #-48]	; 0x30
4800a4c4:	e5d33000 	ldrb	r3, [r3]
4800a4c8:	e353006c 	cmp	r3, #108	; 0x6c
4800a4cc:	1a00005f 	bne	4800a650 <print+0x884>
4800a4d0:	e51b3030 	ldr	r3, [fp, #-48]	; 0x30
4800a4d4:	e2833001 	add	r3, r3, #1
4800a4d8:	e5d33000 	ldrb	r3, [r3]
4800a4dc:	e3530078 	cmp	r3, #120	; 0x78
4800a4e0:	1a00001d 	bne	4800a55c <print+0x790>
4800a4e4:	e51b3030 	ldr	r3, [fp, #-48]	; 0x30
4800a4e8:	e2833001 	add	r3, r3, #1
4800a4ec:	e50b3030 	str	r3, [fp, #-48]	; 0x30
4800a4f0:	e51b3034 	ldr	r3, [fp, #-52]	; 0x34
4800a4f4:	e2832004 	add	r2, r3, #4
4800a4f8:	e50b2034 	str	r2, [fp, #-52]	; 0x34
4800a4fc:	e5933000 	ldr	r3, [r3]
4800a500:	e1a02003 	mov	r2, r3
4800a504:	e3a03000 	mov	r3, #0
4800a508:	e3a01010 	mov	r1, #16
4800a50c:	e58d1000 	str	r1, [sp]
4800a510:	e3a01000 	mov	r1, #0
4800a514:	e58d1004 	str	r1, [sp, #4]
4800a518:	e51b1008 	ldr	r1, [fp, #-8]
4800a51c:	e58d1008 	str	r1, [sp, #8]
4800a520:	e51b100c 	ldr	r1, [fp, #-12]
4800a524:	e58d100c 	str	r1, [sp, #12]
4800a528:	e3a01061 	mov	r1, #97	; 0x61
4800a52c:	e58d1010 	str	r1, [sp, #16]
4800a530:	e51b0028 	ldr	r0, [fp, #-40]	; 0x28
4800a534:	e51b102c 	ldr	r1, [fp, #-44]	; 0x2c
4800a538:	ebfffd8b 	bl	48009b6c <printi>
4800a53c:	e1a03000 	mov	r3, r0
4800a540:	e51b2014 	ldr	r2, [fp, #-20]
4800a544:	e0823003 	add	r3, r2, r3
4800a548:	e50b3014 	str	r3, [fp, #-20]
4800a54c:	e51b3010 	ldr	r3, [fp, #-16]
4800a550:	e2833004 	add	r3, r3, #4
4800a554:	e50b3010 	str	r3, [fp, #-16]
4800a558:	ea00003c 	b	4800a650 <print+0x884>
4800a55c:	e51b3030 	ldr	r3, [fp, #-48]	; 0x30
4800a560:	e2833001 	add	r3, r3, #1
4800a564:	e5d33000 	ldrb	r3, [r3]
4800a568:	e3530058 	cmp	r3, #88	; 0x58
4800a56c:	1a00001d 	bne	4800a5e8 <print+0x81c>
4800a570:	e51b3030 	ldr	r3, [fp, #-48]	; 0x30
4800a574:	e2833001 	add	r3, r3, #1
4800a578:	e50b3030 	str	r3, [fp, #-48]	; 0x30
4800a57c:	e51b3034 	ldr	r3, [fp, #-52]	; 0x34
4800a580:	e2832004 	add	r2, r3, #4
4800a584:	e50b2034 	str	r2, [fp, #-52]	; 0x34
4800a588:	e5933000 	ldr	r3, [r3]
4800a58c:	e1a02003 	mov	r2, r3
4800a590:	e3a03000 	mov	r3, #0
4800a594:	e3a01010 	mov	r1, #16
4800a598:	e58d1000 	str	r1, [sp]
4800a59c:	e3a01000 	mov	r1, #0
4800a5a0:	e58d1004 	str	r1, [sp, #4]
4800a5a4:	e51b1008 	ldr	r1, [fp, #-8]
4800a5a8:	e58d1008 	str	r1, [sp, #8]
4800a5ac:	e51b100c 	ldr	r1, [fp, #-12]
4800a5b0:	e58d100c 	str	r1, [sp, #12]
4800a5b4:	e3a01041 	mov	r1, #65	; 0x41
4800a5b8:	e58d1010 	str	r1, [sp, #16]
4800a5bc:	e51b0028 	ldr	r0, [fp, #-40]	; 0x28
4800a5c0:	e51b102c 	ldr	r1, [fp, #-44]	; 0x2c
4800a5c4:	ebfffd68 	bl	48009b6c <printi>
4800a5c8:	e1a03000 	mov	r3, r0
4800a5cc:	e51b2014 	ldr	r2, [fp, #-20]
4800a5d0:	e0823003 	add	r3, r2, r3
4800a5d4:	e50b3014 	str	r3, [fp, #-20]
4800a5d8:	e51b3010 	ldr	r3, [fp, #-16]
4800a5dc:	e2833004 	add	r3, r3, #4
4800a5e0:	e50b3010 	str	r3, [fp, #-16]
4800a5e4:	ea000019 	b	4800a650 <print+0x884>
4800a5e8:	e51b3034 	ldr	r3, [fp, #-52]	; 0x34
4800a5ec:	e2832004 	add	r2, r3, #4
4800a5f0:	e50b2034 	str	r2, [fp, #-52]	; 0x34
4800a5f4:	e5933000 	ldr	r3, [r3]
4800a5f8:	e1a02003 	mov	r2, r3
4800a5fc:	e1a03fc2 	asr	r3, r2, #31
4800a600:	e3a0100a 	mov	r1, #10
4800a604:	e58d1000 	str	r1, [sp]
4800a608:	e3a01001 	mov	r1, #1
4800a60c:	e58d1004 	str	r1, [sp, #4]
4800a610:	e51b1008 	ldr	r1, [fp, #-8]
4800a614:	e58d1008 	str	r1, [sp, #8]
4800a618:	e51b100c 	ldr	r1, [fp, #-12]
4800a61c:	e58d100c 	str	r1, [sp, #12]
4800a620:	e3a01030 	mov	r1, #48	; 0x30
4800a624:	e58d1010 	str	r1, [sp, #16]
4800a628:	e51b0028 	ldr	r0, [fp, #-40]	; 0x28
4800a62c:	e51b102c 	ldr	r1, [fp, #-44]	; 0x2c
4800a630:	ebfffd4d 	bl	48009b6c <printi>
4800a634:	e1a03000 	mov	r3, r0
4800a638:	e51b2014 	ldr	r2, [fp, #-20]
4800a63c:	e0823003 	add	r3, r2, r3
4800a640:	e50b3014 	str	r3, [fp, #-20]
4800a644:	e51b3010 	ldr	r3, [fp, #-16]
4800a648:	e2833004 	add	r3, r3, #4
4800a64c:	e50b3010 	str	r3, [fp, #-16]
4800a650:	e51b3030 	ldr	r3, [fp, #-48]	; 0x30
4800a654:	e5d33000 	ldrb	r3, [r3]
4800a658:	e3530063 	cmp	r3, #99	; 0x63
4800a65c:	1a000020 	bne	4800a6e4 <print+0x918>
4800a660:	e51b3034 	ldr	r3, [fp, #-52]	; 0x34
4800a664:	e2832004 	add	r2, r3, #4
4800a668:	e50b2034 	str	r2, [fp, #-52]	; 0x34
4800a66c:	e5933000 	ldr	r3, [r3]
4800a670:	e6ef3073 	uxtb	r3, r3
4800a674:	e54b301c 	strb	r3, [fp, #-28]
4800a678:	e3a03000 	mov	r3, #0
4800a67c:	e54b301b 	strb	r3, [fp, #-27]
4800a680:	e24b301c 	sub	r3, fp, #28
4800a684:	e51b200c 	ldr	r2, [fp, #-12]
4800a688:	e58d2000 	str	r2, [sp]
4800a68c:	e51b0028 	ldr	r0, [fp, #-40]	; 0x28
4800a690:	e51b102c 	ldr	r1, [fp, #-44]	; 0x2c
4800a694:	e1a02003 	mov	r2, r3
4800a698:	e51b3008 	ldr	r3, [fp, #-8]
4800a69c:	ebfffccd 	bl	480099d8 <prints>
4800a6a0:	e1a03000 	mov	r3, r0
4800a6a4:	e51b2014 	ldr	r2, [fp, #-20]
4800a6a8:	e0823003 	add	r3, r2, r3
4800a6ac:	e50b3014 	str	r3, [fp, #-20]
4800a6b0:	e51b3010 	ldr	r3, [fp, #-16]
4800a6b4:	e2833004 	add	r3, r3, #4
4800a6b8:	e50b3010 	str	r3, [fp, #-16]
4800a6bc:	ea000008 	b	4800a6e4 <print+0x918>
4800a6c0:	e51b3030 	ldr	r3, [fp, #-48]	; 0x30
4800a6c4:	e5d33000 	ldrb	r3, [r3]
4800a6c8:	e51b0028 	ldr	r0, [fp, #-40]	; 0x28
4800a6cc:	e51b102c 	ldr	r1, [fp, #-44]	; 0x2c
4800a6d0:	e1a02003 	mov	r2, r3
4800a6d4:	ebfffc8c 	bl	4800990c <printc>
4800a6d8:	e51b3014 	ldr	r3, [fp, #-20]
4800a6dc:	e2833001 	add	r3, r3, #1
4800a6e0:	e50b3014 	str	r3, [fp, #-20]
4800a6e4:	e51b3030 	ldr	r3, [fp, #-48]	; 0x30
4800a6e8:	e2833001 	add	r3, r3, #1
4800a6ec:	e50b3030 	str	r3, [fp, #-48]	; 0x30
4800a6f0:	e51b3030 	ldr	r3, [fp, #-48]	; 0x30
4800a6f4:	e5d33000 	ldrb	r3, [r3]
4800a6f8:	e3530000 	cmp	r3, #0
4800a6fc:	1afffdbe 	bne	48009dfc <print+0x30>
4800a700:	e51b3028 	ldr	r3, [fp, #-40]	; 0x28
4800a704:	e3530000 	cmp	r3, #0
4800a708:	0a000003 	beq	4800a71c <print+0x950>
4800a70c:	e51b3028 	ldr	r3, [fp, #-40]	; 0x28
4800a710:	e5933000 	ldr	r3, [r3]
4800a714:	e3a02000 	mov	r2, #0
4800a718:	e5c32000 	strb	r2, [r3]
4800a71c:	e51b3014 	ldr	r3, [fp, #-20]
4800a720:	e1a00003 	mov	r0, r3
4800a724:	e24bd004 	sub	sp, fp, #4
4800a728:	e8bd8800 	pop	{fp, pc}

4800a72c <arm_sprintf>:
4800a72c:	e92d000e 	push	{r1, r2, r3}
4800a730:	e92d4800 	push	{fp, lr}
4800a734:	e28db004 	add	fp, sp, #4
4800a738:	e24dd014 	sub	sp, sp, #20
4800a73c:	e50b0014 	str	r0, [fp, #-20]
4800a740:	e28b3008 	add	r3, fp, #8
4800a744:	e50b3010 	str	r3, [fp, #-16]
4800a748:	e24b3014 	sub	r3, fp, #20
4800a74c:	e1a00003 	mov	r0, r3
4800a750:	e3a01000 	mov	r1, #0
4800a754:	e59b2004 	ldr	r2, [fp, #4]
4800a758:	e51b3010 	ldr	r3, [fp, #-16]
4800a75c:	ebfffd9a 	bl	48009dcc <print>
4800a760:	e50b000c 	str	r0, [fp, #-12]
4800a764:	e51b300c 	ldr	r3, [fp, #-12]
4800a768:	e1a00003 	mov	r0, r3
4800a76c:	e24bd004 	sub	sp, fp, #4
4800a770:	e8bd4800 	pop	{fp, lr}
4800a774:	e28dd00c 	add	sp, sp, #12
4800a778:	e12fff1e 	bx	lr

4800a77c <arm_snprintf>:
4800a77c:	e92d000c 	push	{r2, r3}
4800a780:	e92d4800 	push	{fp, lr}
4800a784:	e28db004 	add	fp, sp, #4
4800a788:	e24dd010 	sub	sp, sp, #16
4800a78c:	e50b0010 	str	r0, [fp, #-16]
4800a790:	e50b1014 	str	r1, [fp, #-20]
4800a794:	e28b3008 	add	r3, fp, #8
4800a798:	e50b300c 	str	r3, [fp, #-12]
4800a79c:	e24b2010 	sub	r2, fp, #16
4800a7a0:	e24b3014 	sub	r3, fp, #20
4800a7a4:	e1a00002 	mov	r0, r2
4800a7a8:	e1a01003 	mov	r1, r3
4800a7ac:	e59b2004 	ldr	r2, [fp, #4]
4800a7b0:	e51b300c 	ldr	r3, [fp, #-12]
4800a7b4:	ebfffd84 	bl	48009dcc <print>
4800a7b8:	e50b0008 	str	r0, [fp, #-8]
4800a7bc:	e51b3008 	ldr	r3, [fp, #-8]
4800a7c0:	e1a00003 	mov	r0, r3
4800a7c4:	e24bd004 	sub	sp, fp, #4
4800a7c8:	e8bd4800 	pop	{fp, lr}
4800a7cc:	e28dd008 	add	sp, sp, #8
4800a7d0:	e12fff1e 	bx	lr

4800a7d4 <arm_printf>:
4800a7d4:	e92d000f 	push	{r0, r1, r2, r3}
4800a7d8:	e92d4800 	push	{fp, lr}
4800a7dc:	e28db004 	add	fp, sp, #4
4800a7e0:	e24dd008 	sub	sp, sp, #8
4800a7e4:	e28b3008 	add	r3, fp, #8
4800a7e8:	e50b300c 	str	r3, [fp, #-12]
4800a7ec:	e3a00000 	mov	r0, #0
4800a7f0:	e3a01000 	mov	r1, #0
4800a7f4:	e59b2004 	ldr	r2, [fp, #4]
4800a7f8:	e51b300c 	ldr	r3, [fp, #-12]
4800a7fc:	ebfffd72 	bl	48009dcc <print>
4800a800:	e50b0008 	str	r0, [fp, #-8]
4800a804:	e51b3008 	ldr	r3, [fp, #-8]
4800a808:	e1a00003 	mov	r0, r3
4800a80c:	e24bd004 	sub	sp, fp, #4
4800a810:	e8bd4800 	pop	{fp, lr}
4800a814:	e28dd010 	add	sp, sp, #16
4800a818:	e12fff1e 	bx	lr

4800a81c <arm_memcpy>:
4800a81c:	e52db004 	push	{fp}		; (str fp, [sp, #-4]!)
4800a820:	e28db000 	add	fp, sp, #0
4800a824:	e24dd01c 	sub	sp, sp, #28
4800a828:	e50b0010 	str	r0, [fp, #-16]
4800a82c:	e50b1014 	str	r1, [fp, #-20]
4800a830:	e50b2018 	str	r2, [fp, #-24]
4800a834:	e51b3010 	ldr	r3, [fp, #-16]
4800a838:	e50b3008 	str	r3, [fp, #-8]
4800a83c:	e51b3014 	ldr	r3, [fp, #-20]
4800a840:	e50b300c 	str	r3, [fp, #-12]
4800a844:	e51b3018 	ldr	r3, [fp, #-24]
4800a848:	e2033001 	and	r3, r3, #1
4800a84c:	e3530000 	cmp	r3, #0
4800a850:	0a000009 	beq	4800a87c <arm_memcpy+0x60>
4800a854:	e51b300c 	ldr	r3, [fp, #-12]
4800a858:	e5d32000 	ldrb	r2, [r3]
4800a85c:	e51b3008 	ldr	r3, [fp, #-8]
4800a860:	e5c32000 	strb	r2, [r3]
4800a864:	e51b3008 	ldr	r3, [fp, #-8]
4800a868:	e2833001 	add	r3, r3, #1
4800a86c:	e50b3008 	str	r3, [fp, #-8]
4800a870:	e51b300c 	ldr	r3, [fp, #-12]
4800a874:	e2833001 	add	r3, r3, #1
4800a878:	e50b300c 	str	r3, [fp, #-12]
4800a87c:	e51b3018 	ldr	r3, [fp, #-24]
4800a880:	e1a030a3 	lsr	r3, r3, #1
4800a884:	e50b3018 	str	r3, [fp, #-24]
4800a888:	ea00000e 	b	4800a8c8 <arm_memcpy+0xac>
4800a88c:	e51b300c 	ldr	r3, [fp, #-12]
4800a890:	e5d32000 	ldrb	r2, [r3]
4800a894:	e51b3008 	ldr	r3, [fp, #-8]
4800a898:	e5c32000 	strb	r2, [r3]
4800a89c:	e51b3008 	ldr	r3, [fp, #-8]
4800a8a0:	e2833001 	add	r3, r3, #1
4800a8a4:	e51b200c 	ldr	r2, [fp, #-12]
4800a8a8:	e5d22001 	ldrb	r2, [r2, #1]
4800a8ac:	e5c32000 	strb	r2, [r3]
4800a8b0:	e51b3008 	ldr	r3, [fp, #-8]
4800a8b4:	e2833002 	add	r3, r3, #2
4800a8b8:	e50b3008 	str	r3, [fp, #-8]
4800a8bc:	e51b300c 	ldr	r3, [fp, #-12]
4800a8c0:	e2833002 	add	r3, r3, #2
4800a8c4:	e50b300c 	str	r3, [fp, #-12]
4800a8c8:	e51b3018 	ldr	r3, [fp, #-24]
4800a8cc:	e2432001 	sub	r2, r3, #1
4800a8d0:	e50b2018 	str	r2, [fp, #-24]
4800a8d4:	e3530000 	cmp	r3, #0
4800a8d8:	1affffeb 	bne	4800a88c <arm_memcpy+0x70>
4800a8dc:	e51b3010 	ldr	r3, [fp, #-16]
4800a8e0:	e1a00003 	mov	r0, r3
4800a8e4:	e24bd000 	sub	sp, fp, #0
4800a8e8:	e49db004 	pop	{fp}		; (ldr fp, [sp], #4)
4800a8ec:	e12fff1e 	bx	lr

4800a8f0 <arm_memmove>:
4800a8f0:	e52db004 	push	{fp}		; (str fp, [sp, #-4]!)
4800a8f4:	e28db000 	add	fp, sp, #0
4800a8f8:	e24dd01c 	sub	sp, sp, #28
4800a8fc:	e50b0010 	str	r0, [fp, #-16]
4800a900:	e50b1014 	str	r1, [fp, #-20]
4800a904:	e50b2018 	str	r2, [fp, #-24]
4800a908:	e51b3010 	ldr	r3, [fp, #-16]
4800a90c:	e50b3008 	str	r3, [fp, #-8]
4800a910:	e51b3014 	ldr	r3, [fp, #-20]
4800a914:	e50b300c 	str	r3, [fp, #-12]
4800a918:	e51b2010 	ldr	r2, [fp, #-16]
4800a91c:	e51b3014 	ldr	r3, [fp, #-20]
4800a920:	e1520003 	cmp	r2, r3
4800a924:	1a000001 	bne	4800a930 <arm_memmove+0x40>
4800a928:	e51b3010 	ldr	r3, [fp, #-16]
4800a92c:	ea000059 	b	4800aa98 <arm_memmove+0x1a8>
4800a930:	e51b200c 	ldr	r2, [fp, #-12]
4800a934:	e51b3008 	ldr	r3, [fp, #-8]
4800a938:	e1520003 	cmp	r2, r3
4800a93c:	9a000026 	bls	4800a9dc <arm_memmove+0xec>
4800a940:	e51b3018 	ldr	r3, [fp, #-24]
4800a944:	e2033001 	and	r3, r3, #1
4800a948:	e3530000 	cmp	r3, #0
4800a94c:	0a000009 	beq	4800a978 <arm_memmove+0x88>
4800a950:	e51b300c 	ldr	r3, [fp, #-12]
4800a954:	e5d32000 	ldrb	r2, [r3]
4800a958:	e51b3008 	ldr	r3, [fp, #-8]
4800a95c:	e5c32000 	strb	r2, [r3]
4800a960:	e51b3008 	ldr	r3, [fp, #-8]
4800a964:	e2833001 	add	r3, r3, #1
4800a968:	e50b3008 	str	r3, [fp, #-8]
4800a96c:	e51b300c 	ldr	r3, [fp, #-12]
4800a970:	e2833001 	add	r3, r3, #1
4800a974:	e50b300c 	str	r3, [fp, #-12]
4800a978:	e51b3018 	ldr	r3, [fp, #-24]
4800a97c:	e1a030a3 	lsr	r3, r3, #1
4800a980:	e50b3018 	str	r3, [fp, #-24]
4800a984:	ea00000e 	b	4800a9c4 <arm_memmove+0xd4>
4800a988:	e51b300c 	ldr	r3, [fp, #-12]
4800a98c:	e5d32000 	ldrb	r2, [r3]
4800a990:	e51b3008 	ldr	r3, [fp, #-8]
4800a994:	e5c32000 	strb	r2, [r3]
4800a998:	e51b3008 	ldr	r3, [fp, #-8]
4800a99c:	e2833001 	add	r3, r3, #1
4800a9a0:	e51b200c 	ldr	r2, [fp, #-12]
4800a9a4:	e5d22001 	ldrb	r2, [r2, #1]
4800a9a8:	e5c32000 	strb	r2, [r3]
4800a9ac:	e51b3008 	ldr	r3, [fp, #-8]
4800a9b0:	e2833002 	add	r3, r3, #2
4800a9b4:	e50b3008 	str	r3, [fp, #-8]
4800a9b8:	e51b300c 	ldr	r3, [fp, #-12]
4800a9bc:	e2833002 	add	r3, r3, #2
4800a9c0:	e50b300c 	str	r3, [fp, #-12]
4800a9c4:	e51b3018 	ldr	r3, [fp, #-24]
4800a9c8:	e2432001 	sub	r2, r3, #1
4800a9cc:	e50b2018 	str	r2, [fp, #-24]
4800a9d0:	e3530000 	cmp	r3, #0
4800a9d4:	1affffeb 	bne	4800a988 <arm_memmove+0x98>
4800a9d8:	ea00002d 	b	4800aa94 <arm_memmove+0x1a4>
4800a9dc:	e51b2008 	ldr	r2, [fp, #-8]
4800a9e0:	e51b3018 	ldr	r3, [fp, #-24]
4800a9e4:	e0823003 	add	r3, r2, r3
4800a9e8:	e50b3008 	str	r3, [fp, #-8]
4800a9ec:	e51b200c 	ldr	r2, [fp, #-12]
4800a9f0:	e51b3018 	ldr	r3, [fp, #-24]
4800a9f4:	e0823003 	add	r3, r2, r3
4800a9f8:	e50b300c 	str	r3, [fp, #-12]
4800a9fc:	e51b3018 	ldr	r3, [fp, #-24]
4800aa00:	e2033001 	and	r3, r3, #1
4800aa04:	e3530000 	cmp	r3, #0
4800aa08:	0a000009 	beq	4800aa34 <arm_memmove+0x144>
4800aa0c:	e51b3008 	ldr	r3, [fp, #-8]
4800aa10:	e2433001 	sub	r3, r3, #1
4800aa14:	e50b3008 	str	r3, [fp, #-8]
4800aa18:	e51b300c 	ldr	r3, [fp, #-12]
4800aa1c:	e2433001 	sub	r3, r3, #1
4800aa20:	e50b300c 	str	r3, [fp, #-12]
4800aa24:	e51b300c 	ldr	r3, [fp, #-12]
4800aa28:	e5d32000 	ldrb	r2, [r3]
4800aa2c:	e51b3008 	ldr	r3, [fp, #-8]
4800aa30:	e5c32000 	strb	r2, [r3]
4800aa34:	e51b3018 	ldr	r3, [fp, #-24]
4800aa38:	e1a030a3 	lsr	r3, r3, #1
4800aa3c:	e50b3018 	str	r3, [fp, #-24]
4800aa40:	ea00000e 	b	4800aa80 <arm_memmove+0x190>
4800aa44:	e51b3008 	ldr	r3, [fp, #-8]
4800aa48:	e2433002 	sub	r3, r3, #2
4800aa4c:	e50b3008 	str	r3, [fp, #-8]
4800aa50:	e51b300c 	ldr	r3, [fp, #-12]
4800aa54:	e2433002 	sub	r3, r3, #2
4800aa58:	e50b300c 	str	r3, [fp, #-12]
4800aa5c:	e51b300c 	ldr	r3, [fp, #-12]
4800aa60:	e5d32000 	ldrb	r2, [r3]
4800aa64:	e51b3008 	ldr	r3, [fp, #-8]
4800aa68:	e5c32000 	strb	r2, [r3]
4800aa6c:	e51b3008 	ldr	r3, [fp, #-8]
4800aa70:	e2833001 	add	r3, r3, #1
4800aa74:	e51b200c 	ldr	r2, [fp, #-12]
4800aa78:	e5d22001 	ldrb	r2, [r2, #1]
4800aa7c:	e5c32000 	strb	r2, [r3]
4800aa80:	e51b3018 	ldr	r3, [fp, #-24]
4800aa84:	e2432001 	sub	r2, r3, #1
4800aa88:	e50b2018 	str	r2, [fp, #-24]
4800aa8c:	e3530000 	cmp	r3, #0
4800aa90:	1affffeb 	bne	4800aa44 <arm_memmove+0x154>
4800aa94:	e51b3010 	ldr	r3, [fp, #-16]
4800aa98:	e1a00003 	mov	r0, r3
4800aa9c:	e24bd000 	sub	sp, fp, #0
4800aaa0:	e49db004 	pop	{fp}		; (ldr fp, [sp], #4)
4800aaa4:	e12fff1e 	bx	lr

4800aaa8 <arm_memset>:
4800aaa8:	e52db004 	push	{fp}		; (str fp, [sp, #-4]!)
4800aaac:	e28db000 	add	fp, sp, #0
4800aab0:	e24dd01c 	sub	sp, sp, #28
4800aab4:	e50b0010 	str	r0, [fp, #-16]
4800aab8:	e50b1014 	str	r1, [fp, #-20]
4800aabc:	e50b2018 	str	r2, [fp, #-24]
4800aac0:	e51b3010 	ldr	r3, [fp, #-16]
4800aac4:	e50b3008 	str	r3, [fp, #-8]
4800aac8:	e51b3014 	ldr	r3, [fp, #-20]
4800aacc:	e54b3009 	strb	r3, [fp, #-9]
4800aad0:	e51b3018 	ldr	r3, [fp, #-24]
4800aad4:	e2033001 	and	r3, r3, #1
4800aad8:	e3530000 	cmp	r3, #0
4800aadc:	0a000005 	beq	4800aaf8 <arm_memset+0x50>
4800aae0:	e51b3008 	ldr	r3, [fp, #-8]
4800aae4:	e55b2009 	ldrb	r2, [fp, #-9]
4800aae8:	e5c32000 	strb	r2, [r3]
4800aaec:	e51b3008 	ldr	r3, [fp, #-8]
4800aaf0:	e2833001 	add	r3, r3, #1
4800aaf4:	e50b3008 	str	r3, [fp, #-8]
4800aaf8:	e51b3018 	ldr	r3, [fp, #-24]
4800aafc:	e1a030a3 	lsr	r3, r3, #1
4800ab00:	e50b3018 	str	r3, [fp, #-24]
4800ab04:	ea000009 	b	4800ab30 <arm_memset+0x88>
4800ab08:	e51b3008 	ldr	r3, [fp, #-8]
4800ab0c:	e55b2009 	ldrb	r2, [fp, #-9]
4800ab10:	e5c32000 	strb	r2, [r3]
4800ab14:	e51b3008 	ldr	r3, [fp, #-8]
4800ab18:	e2833001 	add	r3, r3, #1
4800ab1c:	e55b2009 	ldrb	r2, [fp, #-9]
4800ab20:	e5c32000 	strb	r2, [r3]
4800ab24:	e51b3008 	ldr	r3, [fp, #-8]
4800ab28:	e2833002 	add	r3, r3, #2
4800ab2c:	e50b3008 	str	r3, [fp, #-8]
4800ab30:	e51b3018 	ldr	r3, [fp, #-24]
4800ab34:	e2432001 	sub	r2, r3, #1
4800ab38:	e50b2018 	str	r2, [fp, #-24]
4800ab3c:	e3530000 	cmp	r3, #0
4800ab40:	1afffff0 	bne	4800ab08 <arm_memset+0x60>
4800ab44:	e51b3010 	ldr	r3, [fp, #-16]
4800ab48:	e1a00003 	mov	r0, r3
4800ab4c:	e24bd000 	sub	sp, fp, #0
4800ab50:	e49db004 	pop	{fp}		; (ldr fp, [sp], #4)
4800ab54:	e12fff1e 	bx	lr

4800ab58 <arm_memcmp>:
4800ab58:	e52db004 	push	{fp}		; (str fp, [sp, #-4]!)
4800ab5c:	e28db000 	add	fp, sp, #0
4800ab60:	e24dd01c 	sub	sp, sp, #28
4800ab64:	e50b0010 	str	r0, [fp, #-16]
4800ab68:	e50b1014 	str	r1, [fp, #-20]
4800ab6c:	e50b2018 	str	r2, [fp, #-24]
4800ab70:	e51b3010 	ldr	r3, [fp, #-16]
4800ab74:	e50b3008 	str	r3, [fp, #-8]
4800ab78:	e51b3014 	ldr	r3, [fp, #-20]
4800ab7c:	e50b300c 	str	r3, [fp, #-12]
4800ab80:	e51b3018 	ldr	r3, [fp, #-24]
4800ab84:	e3530000 	cmp	r3, #0
4800ab88:	0a00001c 	beq	4800ac00 <arm_memcmp+0xa8>
4800ab8c:	e51b3008 	ldr	r3, [fp, #-8]
4800ab90:	e2832001 	add	r2, r3, #1
4800ab94:	e50b2008 	str	r2, [fp, #-8]
4800ab98:	e5d32000 	ldrb	r2, [r3]
4800ab9c:	e51b300c 	ldr	r3, [fp, #-12]
4800aba0:	e2831001 	add	r1, r3, #1
4800aba4:	e50b100c 	str	r1, [fp, #-12]
4800aba8:	e5d33000 	ldrb	r3, [r3]
4800abac:	e1520003 	cmp	r2, r3
4800abb0:	0a00000c 	beq	4800abe8 <arm_memcmp+0x90>
4800abb4:	e51b3008 	ldr	r3, [fp, #-8]
4800abb8:	e2433001 	sub	r3, r3, #1
4800abbc:	e50b3008 	str	r3, [fp, #-8]
4800abc0:	e51b3008 	ldr	r3, [fp, #-8]
4800abc4:	e5d33000 	ldrb	r3, [r3]
4800abc8:	e1a02003 	mov	r2, r3
4800abcc:	e51b300c 	ldr	r3, [fp, #-12]
4800abd0:	e2433001 	sub	r3, r3, #1
4800abd4:	e50b300c 	str	r3, [fp, #-12]
4800abd8:	e51b300c 	ldr	r3, [fp, #-12]
4800abdc:	e5d33000 	ldrb	r3, [r3]
4800abe0:	e0633002 	rsb	r3, r3, r2
4800abe4:	ea000006 	b	4800ac04 <arm_memcmp+0xac>
4800abe8:	e51b3018 	ldr	r3, [fp, #-24]
4800abec:	e2433001 	sub	r3, r3, #1
4800abf0:	e50b3018 	str	r3, [fp, #-24]
4800abf4:	e51b3018 	ldr	r3, [fp, #-24]
4800abf8:	e3530000 	cmp	r3, #0
4800abfc:	1affffe2 	bne	4800ab8c <arm_memcmp+0x34>
4800ac00:	e3a03000 	mov	r3, #0
4800ac04:	e1a00003 	mov	r0, r3
4800ac08:	e24bd000 	sub	sp, fp, #0
4800ac0c:	e49db004 	pop	{fp}		; (ldr fp, [sp], #4)
4800ac10:	e12fff1e 	bx	lr

4800ac14 <arm_memchr>:
4800ac14:	e52db004 	push	{fp}		; (str fp, [sp, #-4]!)
4800ac18:	e28db000 	add	fp, sp, #0
4800ac1c:	e24dd01c 	sub	sp, sp, #28
4800ac20:	e50b0010 	str	r0, [fp, #-16]
4800ac24:	e50b1014 	str	r1, [fp, #-20]
4800ac28:	e50b2018 	str	r2, [fp, #-24]
4800ac2c:	e3a03000 	mov	r3, #0
4800ac30:	e50b3008 	str	r3, [fp, #-8]
4800ac34:	ea00000d 	b	4800ac70 <arm_memchr+0x5c>
4800ac38:	e51b3010 	ldr	r3, [fp, #-16]
4800ac3c:	e5d33000 	ldrb	r3, [r3]
4800ac40:	e1a02003 	mov	r2, r3
4800ac44:	e51b3014 	ldr	r3, [fp, #-20]
4800ac48:	e1520003 	cmp	r2, r3
4800ac4c:	1a000001 	bne	4800ac58 <arm_memchr+0x44>
4800ac50:	e51b3010 	ldr	r3, [fp, #-16]
4800ac54:	ea00000a 	b	4800ac84 <arm_memchr+0x70>
4800ac58:	e51b3010 	ldr	r3, [fp, #-16]
4800ac5c:	e2833001 	add	r3, r3, #1
4800ac60:	e50b3010 	str	r3, [fp, #-16]
4800ac64:	e51b3008 	ldr	r3, [fp, #-8]
4800ac68:	e2833001 	add	r3, r3, #1
4800ac6c:	e50b3008 	str	r3, [fp, #-8]
4800ac70:	e51b2008 	ldr	r2, [fp, #-8]
4800ac74:	e51b3018 	ldr	r3, [fp, #-24]
4800ac78:	e1520003 	cmp	r2, r3
4800ac7c:	baffffed 	blt	4800ac38 <arm_memchr+0x24>
4800ac80:	e3a03000 	mov	r3, #0
4800ac84:	e1a00003 	mov	r0, r3
4800ac88:	e24bd000 	sub	sp, fp, #0
4800ac8c:	e49db004 	pop	{fp}		; (ldr fp, [sp], #4)
4800ac90:	e12fff1e 	bx	lr

4800ac94 <arm_strchr>:
4800ac94:	e52db004 	push	{fp}		; (str fp, [sp, #-4]!)
4800ac98:	e28db000 	add	fp, sp, #0
4800ac9c:	e24dd00c 	sub	sp, sp, #12
4800aca0:	e50b0008 	str	r0, [fp, #-8]
4800aca4:	e50b100c 	str	r1, [fp, #-12]
4800aca8:	e51b3008 	ldr	r3, [fp, #-8]
4800acac:	e5d33000 	ldrb	r3, [r3]
4800acb0:	e1a02003 	mov	r2, r3
4800acb4:	e51b300c 	ldr	r3, [fp, #-12]
4800acb8:	e1520003 	cmp	r2, r3
4800acbc:	1a000001 	bne	4800acc8 <arm_strchr+0x34>
4800acc0:	e51b3008 	ldr	r3, [fp, #-8]
4800acc4:	ea000006 	b	4800ace4 <arm_strchr+0x50>
4800acc8:	e51b3008 	ldr	r3, [fp, #-8]
4800accc:	e2832001 	add	r2, r3, #1
4800acd0:	e50b2008 	str	r2, [fp, #-8]
4800acd4:	e5d33000 	ldrb	r3, [r3]
4800acd8:	e3530000 	cmp	r3, #0
4800acdc:	1afffff1 	bne	4800aca8 <arm_strchr+0x14>
4800ace0:	e3a03000 	mov	r3, #0
4800ace4:	e1a00003 	mov	r0, r3
4800ace8:	e24bd000 	sub	sp, fp, #0
4800acec:	e49db004 	pop	{fp}		; (ldr fp, [sp], #4)
4800acf0:	e12fff1e 	bx	lr

4800acf4 <arm_strlen>:
4800acf4:	e52db004 	push	{fp}		; (str fp, [sp, #-4]!)
4800acf8:	e28db000 	add	fp, sp, #0
4800acfc:	e24dd014 	sub	sp, sp, #20
4800ad00:	e50b0010 	str	r0, [fp, #-16]
4800ad04:	e3a03000 	mov	r3, #0
4800ad08:	e50b3008 	str	r3, [fp, #-8]
4800ad0c:	ea000002 	b	4800ad1c <arm_strlen+0x28>
4800ad10:	e51b3008 	ldr	r3, [fp, #-8]
4800ad14:	e2833001 	add	r3, r3, #1
4800ad18:	e50b3008 	str	r3, [fp, #-8]
4800ad1c:	e51b2010 	ldr	r2, [fp, #-16]
4800ad20:	e51b3008 	ldr	r3, [fp, #-8]
4800ad24:	e0823003 	add	r3, r2, r3
4800ad28:	e5d33000 	ldrb	r3, [r3]
4800ad2c:	e3530000 	cmp	r3, #0
4800ad30:	1afffff6 	bne	4800ad10 <arm_strlen+0x1c>
4800ad34:	e51b3008 	ldr	r3, [fp, #-8]
4800ad38:	e1a00003 	mov	r0, r3
4800ad3c:	e24bd000 	sub	sp, fp, #0
4800ad40:	e49db004 	pop	{fp}		; (ldr fp, [sp], #4)
4800ad44:	e12fff1e 	bx	lr

4800ad48 <arm_strcpy>:
4800ad48:	e52db004 	push	{fp}		; (str fp, [sp, #-4]!)
4800ad4c:	e28db000 	add	fp, sp, #0
4800ad50:	e24dd014 	sub	sp, sp, #20
4800ad54:	e50b0010 	str	r0, [fp, #-16]
4800ad58:	e50b1014 	str	r1, [fp, #-20]
4800ad5c:	e3a03000 	mov	r3, #0
4800ad60:	e50b3008 	str	r3, [fp, #-8]
4800ad64:	ea00000a 	b	4800ad94 <arm_strcpy+0x4c>
4800ad68:	e51b2010 	ldr	r2, [fp, #-16]
4800ad6c:	e51b3008 	ldr	r3, [fp, #-8]
4800ad70:	e0823003 	add	r3, r2, r3
4800ad74:	e51b1014 	ldr	r1, [fp, #-20]
4800ad78:	e51b2008 	ldr	r2, [fp, #-8]
4800ad7c:	e0812002 	add	r2, r1, r2
4800ad80:	e5d22000 	ldrb	r2, [r2]
4800ad84:	e5c32000 	strb	r2, [r3]
4800ad88:	e51b3008 	ldr	r3, [fp, #-8]
4800ad8c:	e2833001 	add	r3, r3, #1
4800ad90:	e50b3008 	str	r3, [fp, #-8]
4800ad94:	e51b2014 	ldr	r2, [fp, #-20]
4800ad98:	e51b3008 	ldr	r3, [fp, #-8]
4800ad9c:	e0823003 	add	r3, r2, r3
4800ada0:	e5d33000 	ldrb	r3, [r3]
4800ada4:	e3530000 	cmp	r3, #0
4800ada8:	1affffee 	bne	4800ad68 <arm_strcpy+0x20>
4800adac:	e51b2010 	ldr	r2, [fp, #-16]
4800adb0:	e51b3008 	ldr	r3, [fp, #-8]
4800adb4:	e0823003 	add	r3, r2, r3
4800adb8:	e3a02000 	mov	r2, #0
4800adbc:	e5c32000 	strb	r2, [r3]
4800adc0:	e51b3010 	ldr	r3, [fp, #-16]
4800adc4:	e1a00003 	mov	r0, r3
4800adc8:	e24bd000 	sub	sp, fp, #0
4800adcc:	e49db004 	pop	{fp}		; (ldr fp, [sp], #4)
4800add0:	e12fff1e 	bx	lr

4800add4 <arm_strcat>:
4800add4:	e92d4800 	push	{fp, lr}
4800add8:	e28db004 	add	fp, sp, #4
4800addc:	e24dd008 	sub	sp, sp, #8
4800ade0:	e50b0008 	str	r0, [fp, #-8]
4800ade4:	e50b100c 	str	r1, [fp, #-12]
4800ade8:	e51b0008 	ldr	r0, [fp, #-8]
4800adec:	ebffffc0 	bl	4800acf4 <arm_strlen>
4800adf0:	e1a03000 	mov	r3, r0
4800adf4:	e51b2008 	ldr	r2, [fp, #-8]
4800adf8:	e0823003 	add	r3, r2, r3
4800adfc:	e1a00003 	mov	r0, r3
4800ae00:	e51b100c 	ldr	r1, [fp, #-12]
4800ae04:	ebffffcf 	bl	4800ad48 <arm_strcpy>
4800ae08:	e51b3008 	ldr	r3, [fp, #-8]
4800ae0c:	e1a00003 	mov	r0, r3
4800ae10:	e24bd004 	sub	sp, fp, #4
4800ae14:	e8bd8800 	pop	{fp, pc}

4800ae18 <arm_strcmp>:
4800ae18:	e52db004 	push	{fp}		; (str fp, [sp, #-4]!)
4800ae1c:	e28db000 	add	fp, sp, #0
4800ae20:	e24dd00c 	sub	sp, sp, #12
4800ae24:	e50b0008 	str	r0, [fp, #-8]
4800ae28:	e50b100c 	str	r1, [fp, #-12]
4800ae2c:	ea000014 	b	4800ae84 <arm_strcmp+0x6c>
4800ae30:	e51b3008 	ldr	r3, [fp, #-8]
4800ae34:	e5d33000 	ldrb	r3, [r3]
4800ae38:	e3530000 	cmp	r3, #0
4800ae3c:	0a000003 	beq	4800ae50 <arm_strcmp+0x38>
4800ae40:	e51b300c 	ldr	r3, [fp, #-12]
4800ae44:	e5d33000 	ldrb	r3, [r3]
4800ae48:	e3530000 	cmp	r3, #0
4800ae4c:	1a000006 	bne	4800ae6c <arm_strcmp+0x54>
4800ae50:	e51b3008 	ldr	r3, [fp, #-8]
4800ae54:	e5d33000 	ldrb	r3, [r3]
4800ae58:	e1a02003 	mov	r2, r3
4800ae5c:	e51b300c 	ldr	r3, [fp, #-12]
4800ae60:	e5d33000 	ldrb	r3, [r3]
4800ae64:	e0633002 	rsb	r3, r3, r2
4800ae68:	ea000011 	b	4800aeb4 <arm_strcmp+0x9c>
4800ae6c:	e51b3008 	ldr	r3, [fp, #-8]
4800ae70:	e2833001 	add	r3, r3, #1
4800ae74:	e50b3008 	str	r3, [fp, #-8]
4800ae78:	e51b300c 	ldr	r3, [fp, #-12]
4800ae7c:	e2833001 	add	r3, r3, #1
4800ae80:	e50b300c 	str	r3, [fp, #-12]
4800ae84:	e51b3008 	ldr	r3, [fp, #-8]
4800ae88:	e5d32000 	ldrb	r2, [r3]
4800ae8c:	e51b300c 	ldr	r3, [fp, #-12]
4800ae90:	e5d33000 	ldrb	r3, [r3]
4800ae94:	e1520003 	cmp	r2, r3
4800ae98:	0affffe4 	beq	4800ae30 <arm_strcmp+0x18>
4800ae9c:	e51b3008 	ldr	r3, [fp, #-8]
4800aea0:	e5d33000 	ldrb	r3, [r3]
4800aea4:	e1a02003 	mov	r2, r3
4800aea8:	e51b300c 	ldr	r3, [fp, #-12]
4800aeac:	e5d33000 	ldrb	r3, [r3]
4800aeb0:	e0633002 	rsb	r3, r3, r2
4800aeb4:	e1a00003 	mov	r0, r3
4800aeb8:	e24bd000 	sub	sp, fp, #0
4800aebc:	e49db004 	pop	{fp}		; (ldr fp, [sp], #4)
4800aec0:	e12fff1e 	bx	lr

4800aec4 <arm_str2int>:
4800aec4:	e52db004 	push	{fp}		; (str fp, [sp, #-4]!)
4800aec8:	e28db000 	add	fp, sp, #0
4800aecc:	e24dd01c 	sub	sp, sp, #28
4800aed0:	e50b0018 	str	r0, [fp, #-24]
4800aed4:	e3a03000 	mov	r3, #0
4800aed8:	e50b3008 	str	r3, [fp, #-8]
4800aedc:	e3a03000 	mov	r3, #0
4800aee0:	e50b300c 	str	r3, [fp, #-12]
4800aee4:	e3a03000 	mov	r3, #0
4800aee8:	e50b3010 	str	r3, [fp, #-16]
4800aeec:	e51b300c 	ldr	r3, [fp, #-12]
4800aef0:	e51b2018 	ldr	r2, [fp, #-24]
4800aef4:	e0823003 	add	r3, r2, r3
4800aef8:	e5d33000 	ldrb	r3, [r3]
4800aefc:	e353002d 	cmp	r3, #45	; 0x2d
4800af00:	1a000005 	bne	4800af1c <arm_str2int+0x58>
4800af04:	e3a03001 	mov	r3, #1
4800af08:	e50b3010 	str	r3, [fp, #-16]
4800af0c:	e51b300c 	ldr	r3, [fp, #-12]
4800af10:	e2833001 	add	r3, r3, #1
4800af14:	e50b300c 	str	r3, [fp, #-12]
4800af18:	ea000010 	b	4800af60 <arm_str2int+0x9c>
4800af1c:	ea00000f 	b	4800af60 <arm_str2int+0x9c>
4800af20:	e51b2008 	ldr	r2, [fp, #-8]
4800af24:	e1a03002 	mov	r3, r2
4800af28:	e1a03103 	lsl	r3, r3, #2
4800af2c:	e0833002 	add	r3, r3, r2
4800af30:	e1a03083 	lsl	r3, r3, #1
4800af34:	e1a02003 	mov	r2, r3
4800af38:	e51b300c 	ldr	r3, [fp, #-12]
4800af3c:	e51b1018 	ldr	r1, [fp, #-24]
4800af40:	e0813003 	add	r3, r1, r3
4800af44:	e5d33000 	ldrb	r3, [r3]
4800af48:	e2433030 	sub	r3, r3, #48	; 0x30
4800af4c:	e0823003 	add	r3, r2, r3
4800af50:	e50b3008 	str	r3, [fp, #-8]
4800af54:	e51b300c 	ldr	r3, [fp, #-12]
4800af58:	e2833001 	add	r3, r3, #1
4800af5c:	e50b300c 	str	r3, [fp, #-12]
4800af60:	e51b300c 	ldr	r3, [fp, #-12]
4800af64:	e51b2018 	ldr	r2, [fp, #-24]
4800af68:	e0823003 	add	r3, r2, r3
4800af6c:	e5d33000 	ldrb	r3, [r3]
4800af70:	e3530000 	cmp	r3, #0
4800af74:	1affffe9 	bne	4800af20 <arm_str2int+0x5c>
4800af78:	e51b3010 	ldr	r3, [fp, #-16]
4800af7c:	e3530000 	cmp	r3, #0
4800af80:	0a000002 	beq	4800af90 <arm_str2int+0xcc>
4800af84:	e51b3008 	ldr	r3, [fp, #-8]
4800af88:	e2633000 	rsb	r3, r3, #0
4800af8c:	ea000000 	b	4800af94 <arm_str2int+0xd0>
4800af90:	e51b3008 	ldr	r3, [fp, #-8]
4800af94:	e1a00003 	mov	r0, r3
4800af98:	e24bd000 	sub	sp, fp, #0
4800af9c:	e49db004 	pop	{fp}		; (ldr fp, [sp], #4)
4800afa0:	e12fff1e 	bx	lr

4800afa4 <arm_int2str>:
4800afa4:	e52db004 	push	{fp}		; (str fp, [sp, #-4]!)
4800afa8:	e28db000 	add	fp, sp, #0
4800afac:	e24dd01c 	sub	sp, sp, #28
4800afb0:	e50b0018 	str	r0, [fp, #-24]
4800afb4:	e50b101c 	str	r1, [fp, #-28]
4800afb8:	e3a03000 	mov	r3, #0
4800afbc:	e50b300c 	str	r3, [fp, #-12]
4800afc0:	e3a03000 	mov	r3, #0
4800afc4:	e50b3010 	str	r3, [fp, #-16]
4800afc8:	e51b301c 	ldr	r3, [fp, #-28]
4800afcc:	e50b3008 	str	r3, [fp, #-8]
4800afd0:	ea00000a 	b	4800b000 <arm_int2str+0x5c>
4800afd4:	e51b300c 	ldr	r3, [fp, #-12]
4800afd8:	e2833001 	add	r3, r3, #1
4800afdc:	e50b300c 	str	r3, [fp, #-12]
4800afe0:	e51b2008 	ldr	r2, [fp, #-8]
4800afe4:	e3063667 	movw	r3, #26215	; 0x6667
4800afe8:	e3463666 	movt	r3, #26214	; 0x6666
4800afec:	e0c31293 	smull	r1, r3, r3, r2
4800aff0:	e1a01143 	asr	r1, r3, #2
4800aff4:	e1a03fc2 	asr	r3, r2, #31
4800aff8:	e0633001 	rsb	r3, r3, r1
4800affc:	e50b3008 	str	r3, [fp, #-8]
4800b000:	e51b3008 	ldr	r3, [fp, #-8]
4800b004:	e3530000 	cmp	r3, #0
4800b008:	1afffff1 	bne	4800afd4 <arm_int2str+0x30>
4800b00c:	e51b301c 	ldr	r3, [fp, #-28]
4800b010:	e3530000 	cmp	r3, #0
4800b014:	aa000002 	bge	4800b024 <arm_int2str+0x80>
4800b018:	e51b300c 	ldr	r3, [fp, #-12]
4800b01c:	e2833001 	add	r3, r3, #1
4800b020:	e50b300c 	str	r3, [fp, #-12]
4800b024:	e51b301c 	ldr	r3, [fp, #-28]
4800b028:	e3530000 	cmp	r3, #0
4800b02c:	b2633000 	rsblt	r3, r3, #0
4800b030:	e50b3008 	str	r3, [fp, #-8]
4800b034:	ea000020 	b	4800b0bc <arm_int2str+0x118>
4800b038:	e51b200c 	ldr	r2, [fp, #-12]
4800b03c:	e51b3010 	ldr	r3, [fp, #-16]
4800b040:	e0633002 	rsb	r3, r3, r2
4800b044:	e2433001 	sub	r3, r3, #1
4800b048:	e51b2018 	ldr	r2, [fp, #-24]
4800b04c:	e0820003 	add	r0, r2, r3
4800b050:	e51b1008 	ldr	r1, [fp, #-8]
4800b054:	e3063667 	movw	r3, #26215	; 0x6667
4800b058:	e3463666 	movt	r3, #26214	; 0x6666
4800b05c:	e0c32193 	smull	r2, r3, r3, r1
4800b060:	e1a02143 	asr	r2, r3, #2
4800b064:	e1a03fc1 	asr	r3, r1, #31
4800b068:	e0632002 	rsb	r2, r3, r2
4800b06c:	e1a03002 	mov	r3, r2
4800b070:	e1a03103 	lsl	r3, r3, #2
4800b074:	e0833002 	add	r3, r3, r2
4800b078:	e1a03083 	lsl	r3, r3, #1
4800b07c:	e0632001 	rsb	r2, r3, r1
4800b080:	e30630c8 	movw	r3, #24776	; 0x60c8
4800b084:	e3443801 	movt	r3, #18433	; 0x4801
4800b088:	e7d33002 	ldrb	r3, [r3, r2]
4800b08c:	e5c03000 	strb	r3, [r0]
4800b090:	e51b3010 	ldr	r3, [fp, #-16]
4800b094:	e2833001 	add	r3, r3, #1
4800b098:	e50b3010 	str	r3, [fp, #-16]
4800b09c:	e51b2008 	ldr	r2, [fp, #-8]
4800b0a0:	e3063667 	movw	r3, #26215	; 0x6667
4800b0a4:	e3463666 	movt	r3, #26214	; 0x6666
4800b0a8:	e0c31293 	smull	r1, r3, r3, r2
4800b0ac:	e1a01143 	asr	r1, r3, #2
4800b0b0:	e1a03fc2 	asr	r3, r2, #31
4800b0b4:	e0633001 	rsb	r3, r3, r1
4800b0b8:	e50b3008 	str	r3, [fp, #-8]
4800b0bc:	e51b3008 	ldr	r3, [fp, #-8]
4800b0c0:	e3530000 	cmp	r3, #0
4800b0c4:	1affffdb 	bne	4800b038 <arm_int2str+0x94>
4800b0c8:	e51b301c 	ldr	r3, [fp, #-28]
4800b0cc:	e3530000 	cmp	r3, #0
4800b0d0:	aa000002 	bge	4800b0e0 <arm_int2str+0x13c>
4800b0d4:	e51b3018 	ldr	r3, [fp, #-24]
4800b0d8:	e3a0202d 	mov	r2, #45	; 0x2d
4800b0dc:	e5c32000 	strb	r2, [r3]
4800b0e0:	e51b300c 	ldr	r3, [fp, #-12]
4800b0e4:	e3530000 	cmp	r3, #0
4800b0e8:	1a000007 	bne	4800b10c <arm_int2str+0x168>
4800b0ec:	e51b300c 	ldr	r3, [fp, #-12]
4800b0f0:	e51b2018 	ldr	r2, [fp, #-24]
4800b0f4:	e0823003 	add	r3, r2, r3
4800b0f8:	e3a02030 	mov	r2, #48	; 0x30
4800b0fc:	e5c32000 	strb	r2, [r3]
4800b100:	e51b300c 	ldr	r3, [fp, #-12]
4800b104:	e2833001 	add	r3, r3, #1
4800b108:	e50b300c 	str	r3, [fp, #-12]
4800b10c:	e51b300c 	ldr	r3, [fp, #-12]
4800b110:	e51b2018 	ldr	r2, [fp, #-24]
4800b114:	e0823003 	add	r3, r2, r3
4800b118:	e3a02000 	mov	r2, #0
4800b11c:	e5c32000 	strb	r2, [r3]
4800b120:	e24bd000 	sub	sp, fp, #0
4800b124:	e49db004 	pop	{fp}		; (ldr fp, [sp], #4)
4800b128:	e12fff1e 	bx	lr

4800b12c <arm_ulonglong2str>:
4800b12c:	e92d4800 	push	{fp, lr}
4800b130:	e28db004 	add	fp, sp, #4
4800b134:	e24dd030 	sub	sp, sp, #48	; 0x30
4800b138:	e50b0020 	str	r0, [fp, #-32]
4800b13c:	e14b22fc 	strd	r2, [fp, #-44]	; 0xffffffd4
4800b140:	e3a03000 	mov	r3, #0
4800b144:	e50b3010 	str	r3, [fp, #-16]
4800b148:	e3a03000 	mov	r3, #0
4800b14c:	e50b3014 	str	r3, [fp, #-20]
4800b150:	e14b22dc 	ldrd	r2, [fp, #-44]	; 0xffffffd4
4800b154:	e14b20fc 	strd	r2, [fp, #-12]
4800b158:	ea000009 	b	4800b184 <arm_ulonglong2str+0x58>
4800b15c:	e51b3010 	ldr	r3, [fp, #-16]
4800b160:	e2833001 	add	r3, r3, #1
4800b164:	e50b3010 	str	r3, [fp, #-16]
4800b168:	e24b301c 	sub	r3, fp, #28
4800b16c:	e58d3000 	str	r3, [sp]
4800b170:	e14b00dc 	ldrd	r0, [fp, #-12]
4800b174:	e3a0200a 	mov	r2, #10
4800b178:	e3a03000 	mov	r3, #0
4800b17c:	eb0001ae 	bl	4800b83c <do_udiv64>
4800b180:	e14b00fc 	strd	r0, [fp, #-12]
4800b184:	e14b20dc 	ldrd	r2, [fp, #-12]
4800b188:	e1921003 	orrs	r1, r2, r3
4800b18c:	1afffff2 	bne	4800b15c <arm_ulonglong2str+0x30>
4800b190:	e14b22dc 	ldrd	r2, [fp, #-44]	; 0xffffffd4
4800b194:	e14b20fc 	strd	r2, [fp, #-12]
4800b198:	ea000015 	b	4800b1f4 <arm_ulonglong2str+0xc8>
4800b19c:	e24b301c 	sub	r3, fp, #28
4800b1a0:	e58d3000 	str	r3, [sp]
4800b1a4:	e14b00dc 	ldrd	r0, [fp, #-12]
4800b1a8:	e3a0200a 	mov	r2, #10
4800b1ac:	e3a03000 	mov	r3, #0
4800b1b0:	eb0001a1 	bl	4800b83c <do_udiv64>
4800b1b4:	e14b00fc 	strd	r0, [fp, #-12]
4800b1b8:	e51b2010 	ldr	r2, [fp, #-16]
4800b1bc:	e51b3014 	ldr	r3, [fp, #-20]
4800b1c0:	e0633002 	rsb	r3, r3, r2
4800b1c4:	e2433001 	sub	r3, r3, #1
4800b1c8:	e51b2020 	ldr	r2, [fp, #-32]
4800b1cc:	e0822003 	add	r2, r2, r3
4800b1d0:	e14b01dc 	ldrd	r0, [fp, #-28]	; 0xffffffe4
4800b1d4:	e30630d4 	movw	r3, #24788	; 0x60d4
4800b1d8:	e3443801 	movt	r3, #18433	; 0x4801
4800b1dc:	e0833000 	add	r3, r3, r0
4800b1e0:	e5d33000 	ldrb	r3, [r3]
4800b1e4:	e5c23000 	strb	r3, [r2]
4800b1e8:	e51b3014 	ldr	r3, [fp, #-20]
4800b1ec:	e2833001 	add	r3, r3, #1
4800b1f0:	e50b3014 	str	r3, [fp, #-20]
4800b1f4:	e14b20dc 	ldrd	r2, [fp, #-12]
4800b1f8:	e1921003 	orrs	r1, r2, r3
4800b1fc:	1affffe6 	bne	4800b19c <arm_ulonglong2str+0x70>
4800b200:	e51b3010 	ldr	r3, [fp, #-16]
4800b204:	e3530000 	cmp	r3, #0
4800b208:	1a000007 	bne	4800b22c <arm_ulonglong2str+0x100>
4800b20c:	e51b3010 	ldr	r3, [fp, #-16]
4800b210:	e51b2020 	ldr	r2, [fp, #-32]
4800b214:	e0823003 	add	r3, r2, r3
4800b218:	e3a02030 	mov	r2, #48	; 0x30
4800b21c:	e5c32000 	strb	r2, [r3]
4800b220:	e51b3010 	ldr	r3, [fp, #-16]
4800b224:	e2833001 	add	r3, r3, #1
4800b228:	e50b3010 	str	r3, [fp, #-16]
4800b22c:	e51b3010 	ldr	r3, [fp, #-16]
4800b230:	e51b2020 	ldr	r2, [fp, #-32]
4800b234:	e0823003 	add	r3, r2, r3
4800b238:	e3a02000 	mov	r2, #0
4800b23c:	e5c32000 	strb	r2, [r3]
4800b240:	e24bd004 	sub	sp, fp, #4
4800b244:	e8bd8800 	pop	{fp, pc}

4800b248 <arm_hexstr2uint>:
4800b248:	e52db004 	push	{fp}		; (str fp, [sp, #-4]!)
4800b24c:	e28db000 	add	fp, sp, #0
4800b250:	e24dd014 	sub	sp, sp, #20
4800b254:	e50b0010 	str	r0, [fp, #-16]
4800b258:	e3a03000 	mov	r3, #0
4800b25c:	e50b3008 	str	r3, [fp, #-8]
4800b260:	e3a03000 	mov	r3, #0
4800b264:	e50b300c 	str	r3, [fp, #-12]
4800b268:	e51b3010 	ldr	r3, [fp, #-16]
4800b26c:	e5d33000 	ldrb	r3, [r3]
4800b270:	e3530030 	cmp	r3, #48	; 0x30
4800b274:	1a000007 	bne	4800b298 <arm_hexstr2uint+0x50>
4800b278:	e51b3010 	ldr	r3, [fp, #-16]
4800b27c:	e2833001 	add	r3, r3, #1
4800b280:	e5d33000 	ldrb	r3, [r3]
4800b284:	e3530078 	cmp	r3, #120	; 0x78
4800b288:	1a000002 	bne	4800b298 <arm_hexstr2uint+0x50>
4800b28c:	e3a03002 	mov	r3, #2
4800b290:	e50b300c 	str	r3, [fp, #-12]
4800b294:	ea000044 	b	4800b3ac <arm_hexstr2uint+0x164>
4800b298:	ea000043 	b	4800b3ac <arm_hexstr2uint+0x164>
4800b29c:	e51b300c 	ldr	r3, [fp, #-12]
4800b2a0:	e51b2010 	ldr	r2, [fp, #-16]
4800b2a4:	e0823003 	add	r3, r2, r3
4800b2a8:	e5d33000 	ldrb	r3, [r3]
4800b2ac:	e353002f 	cmp	r3, #47	; 0x2f
4800b2b0:	9a00000f 	bls	4800b2f4 <arm_hexstr2uint+0xac>
4800b2b4:	e51b300c 	ldr	r3, [fp, #-12]
4800b2b8:	e51b2010 	ldr	r2, [fp, #-16]
4800b2bc:	e0823003 	add	r3, r2, r3
4800b2c0:	e5d33000 	ldrb	r3, [r3]
4800b2c4:	e3530039 	cmp	r3, #57	; 0x39
4800b2c8:	8a000009 	bhi	4800b2f4 <arm_hexstr2uint+0xac>
4800b2cc:	e51b3008 	ldr	r3, [fp, #-8]
4800b2d0:	e1a02203 	lsl	r2, r3, #4
4800b2d4:	e51b300c 	ldr	r3, [fp, #-12]
4800b2d8:	e51b1010 	ldr	r1, [fp, #-16]
4800b2dc:	e0813003 	add	r3, r1, r3
4800b2e0:	e5d33000 	ldrb	r3, [r3]
4800b2e4:	e0823003 	add	r3, r2, r3
4800b2e8:	e2433030 	sub	r3, r3, #48	; 0x30
4800b2ec:	e50b3008 	str	r3, [fp, #-8]
4800b2f0:	ea00002a 	b	4800b3a0 <arm_hexstr2uint+0x158>
4800b2f4:	e51b300c 	ldr	r3, [fp, #-12]
4800b2f8:	e51b2010 	ldr	r2, [fp, #-16]
4800b2fc:	e0823003 	add	r3, r2, r3
4800b300:	e5d33000 	ldrb	r3, [r3]
4800b304:	e3530040 	cmp	r3, #64	; 0x40
4800b308:	9a00000f 	bls	4800b34c <arm_hexstr2uint+0x104>
4800b30c:	e51b300c 	ldr	r3, [fp, #-12]
4800b310:	e51b2010 	ldr	r2, [fp, #-16]
4800b314:	e0823003 	add	r3, r2, r3
4800b318:	e5d33000 	ldrb	r3, [r3]
4800b31c:	e3530046 	cmp	r3, #70	; 0x46
4800b320:	8a000009 	bhi	4800b34c <arm_hexstr2uint+0x104>
4800b324:	e51b3008 	ldr	r3, [fp, #-8]
4800b328:	e1a02203 	lsl	r2, r3, #4
4800b32c:	e51b300c 	ldr	r3, [fp, #-12]
4800b330:	e51b1010 	ldr	r1, [fp, #-16]
4800b334:	e0813003 	add	r3, r1, r3
4800b338:	e5d33000 	ldrb	r3, [r3]
4800b33c:	e0823003 	add	r3, r2, r3
4800b340:	e2433037 	sub	r3, r3, #55	; 0x37
4800b344:	e50b3008 	str	r3, [fp, #-8]
4800b348:	ea000014 	b	4800b3a0 <arm_hexstr2uint+0x158>
4800b34c:	e51b300c 	ldr	r3, [fp, #-12]
4800b350:	e51b2010 	ldr	r2, [fp, #-16]
4800b354:	e0823003 	add	r3, r2, r3
4800b358:	e5d33000 	ldrb	r3, [r3]
4800b35c:	e3530060 	cmp	r3, #96	; 0x60
4800b360:	9a00000e 	bls	4800b3a0 <arm_hexstr2uint+0x158>
4800b364:	e51b300c 	ldr	r3, [fp, #-12]
4800b368:	e51b2010 	ldr	r2, [fp, #-16]
4800b36c:	e0823003 	add	r3, r2, r3
4800b370:	e5d33000 	ldrb	r3, [r3]
4800b374:	e3530066 	cmp	r3, #102	; 0x66
4800b378:	8a000008 	bhi	4800b3a0 <arm_hexstr2uint+0x158>
4800b37c:	e51b3008 	ldr	r3, [fp, #-8]
4800b380:	e1a02203 	lsl	r2, r3, #4
4800b384:	e51b300c 	ldr	r3, [fp, #-12]
4800b388:	e51b1010 	ldr	r1, [fp, #-16]
4800b38c:	e0813003 	add	r3, r1, r3
4800b390:	e5d33000 	ldrb	r3, [r3]
4800b394:	e0823003 	add	r3, r2, r3
4800b398:	e2433057 	sub	r3, r3, #87	; 0x57
4800b39c:	e50b3008 	str	r3, [fp, #-8]
4800b3a0:	e51b300c 	ldr	r3, [fp, #-12]
4800b3a4:	e2833001 	add	r3, r3, #1
4800b3a8:	e50b300c 	str	r3, [fp, #-12]
4800b3ac:	e51b300c 	ldr	r3, [fp, #-12]
4800b3b0:	e51b2010 	ldr	r2, [fp, #-16]
4800b3b4:	e0823003 	add	r3, r2, r3
4800b3b8:	e5d33000 	ldrb	r3, [r3]
4800b3bc:	e3530000 	cmp	r3, #0
4800b3c0:	1affffb5 	bne	4800b29c <arm_hexstr2uint+0x54>
4800b3c4:	e51b3008 	ldr	r3, [fp, #-8]
4800b3c8:	e1a00003 	mov	r0, r3
4800b3cc:	e24bd000 	sub	sp, fp, #0
4800b3d0:	e49db004 	pop	{fp}		; (ldr fp, [sp], #4)
4800b3d4:	e12fff1e 	bx	lr

4800b3d8 <arm_uint2hexstr>:
4800b3d8:	e52db004 	push	{fp}		; (str fp, [sp, #-4]!)
4800b3dc:	e28db000 	add	fp, sp, #0
4800b3e0:	e24dd014 	sub	sp, sp, #20
4800b3e4:	e50b0010 	str	r0, [fp, #-16]
4800b3e8:	e50b1014 	str	r1, [fp, #-20]
4800b3ec:	e3a03000 	mov	r3, #0
4800b3f0:	e50b300c 	str	r3, [fp, #-12]
4800b3f4:	e3a03000 	mov	r3, #0
4800b3f8:	e50b3008 	str	r3, [fp, #-8]
4800b3fc:	ea00001e 	b	4800b47c <arm_uint2hexstr+0xa4>
4800b400:	e51b300c 	ldr	r3, [fp, #-12]
4800b404:	e3530000 	cmp	r3, #0
4800b408:	1a000008 	bne	4800b430 <arm_uint2hexstr+0x58>
4800b40c:	e51b3008 	ldr	r3, [fp, #-8]
4800b410:	e2633007 	rsb	r3, r3, #7
4800b414:	e1a03103 	lsl	r3, r3, #2
4800b418:	e51b2014 	ldr	r2, [fp, #-20]
4800b41c:	e1a03332 	lsr	r3, r2, r3
4800b420:	e203300f 	and	r3, r3, #15
4800b424:	e3530000 	cmp	r3, #0
4800b428:	1a000000 	bne	4800b430 <arm_uint2hexstr+0x58>
4800b42c:	ea00000f 	b	4800b470 <arm_uint2hexstr+0x98>
4800b430:	e51b300c 	ldr	r3, [fp, #-12]
4800b434:	e51b2010 	ldr	r2, [fp, #-16]
4800b438:	e0822003 	add	r2, r2, r3
4800b43c:	e51b3008 	ldr	r3, [fp, #-8]
4800b440:	e2633007 	rsb	r3, r3, #7
4800b444:	e1a03103 	lsl	r3, r3, #2
4800b448:	e51b1014 	ldr	r1, [fp, #-20]
4800b44c:	e1a03331 	lsr	r3, r1, r3
4800b450:	e203100f 	and	r1, r3, #15
4800b454:	e30630e0 	movw	r3, #24800	; 0x60e0
4800b458:	e3443801 	movt	r3, #18433	; 0x4801
4800b45c:	e7d33001 	ldrb	r3, [r3, r1]
4800b460:	e5c23000 	strb	r3, [r2]
4800b464:	e51b300c 	ldr	r3, [fp, #-12]
4800b468:	e2833001 	add	r3, r3, #1
4800b46c:	e50b300c 	str	r3, [fp, #-12]
4800b470:	e51b3008 	ldr	r3, [fp, #-8]
4800b474:	e2833001 	add	r3, r3, #1
4800b478:	e50b3008 	str	r3, [fp, #-8]
4800b47c:	e51b3008 	ldr	r3, [fp, #-8]
4800b480:	e3530007 	cmp	r3, #7
4800b484:	daffffdd 	ble	4800b400 <arm_uint2hexstr+0x28>
4800b488:	e51b300c 	ldr	r3, [fp, #-12]
4800b48c:	e3530000 	cmp	r3, #0
4800b490:	1a000007 	bne	4800b4b4 <arm_uint2hexstr+0xdc>
4800b494:	e51b300c 	ldr	r3, [fp, #-12]
4800b498:	e51b2010 	ldr	r2, [fp, #-16]
4800b49c:	e0823003 	add	r3, r2, r3
4800b4a0:	e3a02030 	mov	r2, #48	; 0x30
4800b4a4:	e5c32000 	strb	r2, [r3]
4800b4a8:	e51b300c 	ldr	r3, [fp, #-12]
4800b4ac:	e2833001 	add	r3, r3, #1
4800b4b0:	e50b300c 	str	r3, [fp, #-12]
4800b4b4:	e51b300c 	ldr	r3, [fp, #-12]
4800b4b8:	e51b2010 	ldr	r2, [fp, #-16]
4800b4bc:	e0823003 	add	r3, r2, r3
4800b4c0:	e3a02000 	mov	r2, #0
4800b4c4:	e5c32000 	strb	r2, [r3]
4800b4c8:	e24bd000 	sub	sp, fp, #0
4800b4cc:	e49db004 	pop	{fp}		; (ldr fp, [sp], #4)
4800b4d0:	e12fff1e 	bx	lr

4800b4d4 <arm_ulonglong2hexstr>:
4800b4d4:	e92d09f0 	push	{r4, r5, r6, r7, r8, fp}
4800b4d8:	e28db014 	add	fp, sp, #20
4800b4dc:	e24dd018 	sub	sp, sp, #24
4800b4e0:	e50b0020 	str	r0, [fp, #-32]
4800b4e4:	e14b22fc 	strd	r2, [fp, #-44]	; 0xffffffd4
4800b4e8:	e3a03000 	mov	r3, #0
4800b4ec:	e50b301c 	str	r3, [fp, #-28]
4800b4f0:	e3a03000 	mov	r3, #0
4800b4f4:	e50b3018 	str	r3, [fp, #-24]
4800b4f8:	ea00002f 	b	4800b5bc <arm_ulonglong2hexstr+0xe8>
4800b4fc:	e51b301c 	ldr	r3, [fp, #-28]
4800b500:	e3530000 	cmp	r3, #0
4800b504:	1a000010 	bne	4800b54c <arm_ulonglong2hexstr+0x78>
4800b508:	e51b3018 	ldr	r3, [fp, #-24]
4800b50c:	e263300f 	rsb	r3, r3, #15
4800b510:	e1a01103 	lsl	r1, r3, #2
4800b514:	e14b22dc 	ldrd	r2, [fp, #-44]	; 0xffffffd4
4800b518:	e261c020 	rsb	ip, r1, #32
4800b51c:	e2410020 	sub	r0, r1, #32
4800b520:	e1a04132 	lsr	r4, r2, r1
4800b524:	e1844c13 	orr	r4, r4, r3, lsl ip
4800b528:	e1844033 	orr	r4, r4, r3, lsr r0
4800b52c:	e1a05133 	lsr	r5, r3, r1
4800b530:	e3a0200f 	mov	r2, #15
4800b534:	e3a03000 	mov	r3, #0
4800b538:	e0022004 	and	r2, r2, r4
4800b53c:	e0033005 	and	r3, r3, r5
4800b540:	e1921003 	orrs	r1, r2, r3
4800b544:	1a000000 	bne	4800b54c <arm_ulonglong2hexstr+0x78>
4800b548:	ea000018 	b	4800b5b0 <arm_ulonglong2hexstr+0xdc>
4800b54c:	e51b301c 	ldr	r3, [fp, #-28]
4800b550:	e51b2020 	ldr	r2, [fp, #-32]
4800b554:	e082c003 	add	ip, r2, r3
4800b558:	e51b3018 	ldr	r3, [fp, #-24]
4800b55c:	e263300f 	rsb	r3, r3, #15
4800b560:	e1a01103 	lsl	r1, r3, #2
4800b564:	e14b22dc 	ldrd	r2, [fp, #-44]	; 0xffffffd4
4800b568:	e2618020 	rsb	r8, r1, #32
4800b56c:	e2410020 	sub	r0, r1, #32
4800b570:	e1a06132 	lsr	r6, r2, r1
4800b574:	e1866813 	orr	r6, r6, r3, lsl r8
4800b578:	e1866033 	orr	r6, r6, r3, lsr r0
4800b57c:	e1a07133 	lsr	r7, r3, r1
4800b580:	e3a0200f 	mov	r2, #15
4800b584:	e3a03000 	mov	r3, #0
4800b588:	e0060002 	and	r0, r6, r2
4800b58c:	e0071003 	and	r1, r7, r3
4800b590:	e30630f4 	movw	r3, #24820	; 0x60f4
4800b594:	e3443801 	movt	r3, #18433	; 0x4801
4800b598:	e0833000 	add	r3, r3, r0
4800b59c:	e5d33000 	ldrb	r3, [r3]
4800b5a0:	e5cc3000 	strb	r3, [ip]
4800b5a4:	e51b301c 	ldr	r3, [fp, #-28]
4800b5a8:	e2833001 	add	r3, r3, #1
4800b5ac:	e50b301c 	str	r3, [fp, #-28]
4800b5b0:	e51b3018 	ldr	r3, [fp, #-24]
4800b5b4:	e2833001 	add	r3, r3, #1
4800b5b8:	e50b3018 	str	r3, [fp, #-24]
4800b5bc:	e51b3018 	ldr	r3, [fp, #-24]
4800b5c0:	e353000f 	cmp	r3, #15
4800b5c4:	daffffcc 	ble	4800b4fc <arm_ulonglong2hexstr+0x28>
4800b5c8:	e51b301c 	ldr	r3, [fp, #-28]
4800b5cc:	e3530000 	cmp	r3, #0
4800b5d0:	1a000007 	bne	4800b5f4 <arm_ulonglong2hexstr+0x120>
4800b5d4:	e51b301c 	ldr	r3, [fp, #-28]
4800b5d8:	e51b2020 	ldr	r2, [fp, #-32]
4800b5dc:	e0823003 	add	r3, r2, r3
4800b5e0:	e3a02030 	mov	r2, #48	; 0x30
4800b5e4:	e5c32000 	strb	r2, [r3]
4800b5e8:	e51b301c 	ldr	r3, [fp, #-28]
4800b5ec:	e2833001 	add	r3, r3, #1
4800b5f0:	e50b301c 	str	r3, [fp, #-28]
4800b5f4:	e51b301c 	ldr	r3, [fp, #-28]
4800b5f8:	e51b2020 	ldr	r2, [fp, #-32]
4800b5fc:	e0823003 	add	r3, r2, r3
4800b600:	e3a02000 	mov	r2, #0
4800b604:	e5c32000 	strb	r2, [r3]
4800b608:	e24bd014 	sub	sp, fp, #20
4800b60c:	e8bd09f0 	pop	{r4, r5, r6, r7, r8, fp}
4800b610:	e12fff1e 	bx	lr

4800b614 <do_fls64>:
4800b614:	e92d0bf0 	push	{r4, r5, r6, r7, r8, r9, fp}
4800b618:	e28db018 	add	fp, sp, #24
4800b61c:	e24dd034 	sub	sp, sp, #52	; 0x34
4800b620:	e14b02fc 	strd	r0, [fp, #-44]	; 0xffffffd4
4800b624:	e3a03000 	mov	r3, #0
4800b628:	e50b3020 	str	r3, [fp, #-32]
4800b62c:	e14b02dc 	ldrd	r0, [fp, #-44]	; 0xffffffd4
4800b630:	e3a02000 	mov	r2, #0
4800b634:	e3a03000 	mov	r3, #0
4800b638:	e34f3fff 	movt	r3, #65535	; 0xffff
4800b63c:	e0022000 	and	r2, r2, r0
4800b640:	e0033001 	and	r3, r3, r1
4800b644:	e1921003 	orrs	r1, r2, r3
4800b648:	0a000007 	beq	4800b66c <do_fls64+0x58>
4800b64c:	e51b3020 	ldr	r3, [fp, #-32]
4800b650:	e2833010 	add	r3, r3, #16
4800b654:	e50b3020 	str	r3, [fp, #-32]
4800b658:	e14b22dc 	ldrd	r2, [fp, #-44]	; 0xffffffd4
4800b65c:	e1a04822 	lsr	r4, r2, #16
4800b660:	e1844803 	orr	r4, r4, r3, lsl #16
4800b664:	e1a05823 	lsr	r5, r3, #16
4800b668:	e14b42fc 	strd	r4, [fp, #-44]	; 0xffffffd4
4800b66c:	e14b02dc 	ldrd	r0, [fp, #-44]	; 0xffffffd4
4800b670:	e3a02000 	mov	r2, #0
4800b674:	e30f3fff 	movw	r3, #65535	; 0xffff
4800b678:	e0022000 	and	r2, r2, r0
4800b67c:	e0033001 	and	r3, r3, r1
4800b680:	e1921003 	orrs	r1, r2, r3
4800b684:	0a000007 	beq	4800b6a8 <do_fls64+0x94>
4800b688:	e51b3020 	ldr	r3, [fp, #-32]
4800b68c:	e2833010 	add	r3, r3, #16
4800b690:	e50b3020 	str	r3, [fp, #-32]
4800b694:	e14b22dc 	ldrd	r2, [fp, #-44]	; 0xffffffd4
4800b698:	e1a06822 	lsr	r6, r2, #16
4800b69c:	e1866803 	orr	r6, r6, r3, lsl #16
4800b6a0:	e1a07823 	lsr	r7, r3, #16
4800b6a4:	e14b62fc 	strd	r6, [fp, #-44]	; 0xffffffd4
4800b6a8:	e14b02dc 	ldrd	r0, [fp, #-44]	; 0xffffffd4
4800b6ac:	e3a02000 	mov	r2, #0
4800b6b0:	e34f2fff 	movt	r2, #65535	; 0xffff
4800b6b4:	e3a03000 	mov	r3, #0
4800b6b8:	e0022000 	and	r2, r2, r0
4800b6bc:	e0033001 	and	r3, r3, r1
4800b6c0:	e1921003 	orrs	r1, r2, r3
4800b6c4:	0a00000c 	beq	4800b6fc <do_fls64+0xe8>
4800b6c8:	e51b3020 	ldr	r3, [fp, #-32]
4800b6cc:	e2833010 	add	r3, r3, #16
4800b6d0:	e50b3020 	str	r3, [fp, #-32]
4800b6d4:	e14b22dc 	ldrd	r2, [fp, #-44]	; 0xffffffd4
4800b6d8:	e1a01822 	lsr	r1, r2, #16
4800b6dc:	e50b1034 	str	r1, [fp, #-52]	; 0x34
4800b6e0:	e51b1034 	ldr	r1, [fp, #-52]	; 0x34
4800b6e4:	e1811803 	orr	r1, r1, r3, lsl #16
4800b6e8:	e50b1034 	str	r1, [fp, #-52]	; 0x34
4800b6ec:	e1a01823 	lsr	r1, r3, #16
4800b6f0:	e50b1030 	str	r1, [fp, #-48]	; 0x30
4800b6f4:	e14b23d4 	ldrd	r2, [fp, #-52]	; 0xffffffcc
4800b6f8:	e14b22fc 	strd	r2, [fp, #-44]	; 0xffffffd4
4800b6fc:	e14b02dc 	ldrd	r0, [fp, #-44]	; 0xffffffd4
4800b700:	e3a02cff 	mov	r2, #65280	; 0xff00
4800b704:	e3a03000 	mov	r3, #0
4800b708:	e0022000 	and	r2, r2, r0
4800b70c:	e0033001 	and	r3, r3, r1
4800b710:	e1921003 	orrs	r1, r2, r3
4800b714:	0a00000c 	beq	4800b74c <do_fls64+0x138>
4800b718:	e51b3020 	ldr	r3, [fp, #-32]
4800b71c:	e2833008 	add	r3, r3, #8
4800b720:	e50b3020 	str	r3, [fp, #-32]
4800b724:	e14b22dc 	ldrd	r2, [fp, #-44]	; 0xffffffd4
4800b728:	e1a01422 	lsr	r1, r2, #8
4800b72c:	e50b103c 	str	r1, [fp, #-60]	; 0x3c
4800b730:	e51b103c 	ldr	r1, [fp, #-60]	; 0x3c
4800b734:	e1811c03 	orr	r1, r1, r3, lsl #24
4800b738:	e50b103c 	str	r1, [fp, #-60]	; 0x3c
4800b73c:	e1a01423 	lsr	r1, r3, #8
4800b740:	e50b1038 	str	r1, [fp, #-56]	; 0x38
4800b744:	e14b23dc 	ldrd	r2, [fp, #-60]	; 0xffffffc4
4800b748:	e14b22fc 	strd	r2, [fp, #-44]	; 0xffffffd4
4800b74c:	e14b02dc 	ldrd	r0, [fp, #-44]	; 0xffffffd4
4800b750:	e3a020f0 	mov	r2, #240	; 0xf0
4800b754:	e3a03000 	mov	r3, #0
4800b758:	e0022000 	and	r2, r2, r0
4800b75c:	e0033001 	and	r3, r3, r1
4800b760:	e1921003 	orrs	r1, r2, r3
4800b764:	0a00000c 	beq	4800b79c <do_fls64+0x188>
4800b768:	e51b3020 	ldr	r3, [fp, #-32]
4800b76c:	e2833004 	add	r3, r3, #4
4800b770:	e50b3020 	str	r3, [fp, #-32]
4800b774:	e14b22dc 	ldrd	r2, [fp, #-44]	; 0xffffffd4
4800b778:	e1a01222 	lsr	r1, r2, #4
4800b77c:	e50b1044 	str	r1, [fp, #-68]	; 0x44
4800b780:	e51b1044 	ldr	r1, [fp, #-68]	; 0x44
4800b784:	e1811e03 	orr	r1, r1, r3, lsl #28
4800b788:	e50b1044 	str	r1, [fp, #-68]	; 0x44
4800b78c:	e1a01223 	lsr	r1, r3, #4
4800b790:	e50b1040 	str	r1, [fp, #-64]	; 0x40
4800b794:	e14b24d4 	ldrd	r2, [fp, #-68]	; 0xffffffbc
4800b798:	e14b22fc 	strd	r2, [fp, #-44]	; 0xffffffd4
4800b79c:	e14b02dc 	ldrd	r0, [fp, #-44]	; 0xffffffd4
4800b7a0:	e3a0200c 	mov	r2, #12
4800b7a4:	e3a03000 	mov	r3, #0
4800b7a8:	e0022000 	and	r2, r2, r0
4800b7ac:	e0033001 	and	r3, r3, r1
4800b7b0:	e1921003 	orrs	r1, r2, r3
4800b7b4:	0a00000c 	beq	4800b7ec <do_fls64+0x1d8>
4800b7b8:	e51b3020 	ldr	r3, [fp, #-32]
4800b7bc:	e2833002 	add	r3, r3, #2
4800b7c0:	e50b3020 	str	r3, [fp, #-32]
4800b7c4:	e14b22dc 	ldrd	r2, [fp, #-44]	; 0xffffffd4
4800b7c8:	e1a01122 	lsr	r1, r2, #2
4800b7cc:	e50b104c 	str	r1, [fp, #-76]	; 0x4c
4800b7d0:	e51b104c 	ldr	r1, [fp, #-76]	; 0x4c
4800b7d4:	e1811f03 	orr	r1, r1, r3, lsl #30
4800b7d8:	e50b104c 	str	r1, [fp, #-76]	; 0x4c
4800b7dc:	e1a01123 	lsr	r1, r3, #2
4800b7e0:	e50b1048 	str	r1, [fp, #-72]	; 0x48
4800b7e4:	e14b24dc 	ldrd	r2, [fp, #-76]	; 0xffffffb4
4800b7e8:	e14b22fc 	strd	r2, [fp, #-44]	; 0xffffffd4
4800b7ec:	e14b02dc 	ldrd	r0, [fp, #-44]	; 0xffffffd4
4800b7f0:	e3a02003 	mov	r2, #3
4800b7f4:	e3a03000 	mov	r3, #0
4800b7f8:	e0022000 	and	r2, r2, r0
4800b7fc:	e0033001 	and	r3, r3, r1
4800b800:	e1921003 	orrs	r1, r2, r3
4800b804:	0a000007 	beq	4800b828 <do_fls64+0x214>
4800b808:	e51b3020 	ldr	r3, [fp, #-32]
4800b80c:	e2833002 	add	r3, r3, #2
4800b810:	e50b3020 	str	r3, [fp, #-32]
4800b814:	e14b22dc 	ldrd	r2, [fp, #-44]	; 0xffffffd4
4800b818:	e1a08122 	lsr	r8, r2, #2
4800b81c:	e1888f03 	orr	r8, r8, r3, lsl #30
4800b820:	e1a09123 	lsr	r9, r3, #2
4800b824:	e14b82fc 	strd	r8, [fp, #-44]	; 0xffffffd4
4800b828:	e51b3020 	ldr	r3, [fp, #-32]
4800b82c:	e1a00003 	mov	r0, r3
4800b830:	e24bd018 	sub	sp, fp, #24
4800b834:	e8bd0bf0 	pop	{r4, r5, r6, r7, r8, r9, fp}
4800b838:	e12fff1e 	bx	lr

4800b83c <do_udiv64>:
4800b83c:	e92d4830 	push	{r4, r5, fp, lr}
4800b840:	e28db00c 	add	fp, sp, #12
4800b844:	e24dd028 	sub	sp, sp, #40	; 0x28
4800b848:	e14b02fc 	strd	r0, [fp, #-44]	; 0xffffffd4
4800b84c:	e14b23f4 	strd	r2, [fp, #-52]	; 0xffffffcc
4800b850:	e14b23d4 	ldrd	r2, [fp, #-52]	; 0xffffffcc
4800b854:	e1921003 	orrs	r1, r2, r3
4800b858:	1a000000 	bne	4800b860 <do_udiv64+0x24>
4800b85c:	eafffffe 	b	4800b85c <do_udiv64+0x20>
4800b860:	e14b02dc 	ldrd	r0, [fp, #-44]	; 0xffffffd4
4800b864:	e14b23d4 	ldrd	r2, [fp, #-52]	; 0xffffffcc
4800b868:	e1510003 	cmp	r1, r3
4800b86c:	01500002 	cmpeq	r0, r2
4800b870:	8a00001a 	bhi	4800b8e0 <do_udiv64+0xa4>
4800b874:	e14b22dc 	ldrd	r2, [fp, #-44]	; 0xffffffd4
4800b878:	e14b03d4 	ldrd	r0, [fp, #-52]	; 0xffffffcc
4800b87c:	e0502002 	subs	r2, r0, r2
4800b880:	e0c13003 	sbc	r3, r1, r3
4800b884:	e14b21fc 	strd	r2, [fp, #-28]	; 0xffffffe4
4800b888:	e59b3004 	ldr	r3, [fp, #4]
4800b88c:	e3530000 	cmp	r3, #0
4800b890:	0a000008 	beq	4800b8b8 <do_udiv64+0x7c>
4800b894:	e14b21dc 	ldrd	r2, [fp, #-28]	; 0xffffffe4
4800b898:	e1921003 	orrs	r1, r2, r3
4800b89c:	0a000001 	beq	4800b8a8 <do_udiv64+0x6c>
4800b8a0:	e14b22dc 	ldrd	r2, [fp, #-44]	; 0xffffffd4
4800b8a4:	ea000001 	b	4800b8b0 <do_udiv64+0x74>
4800b8a8:	e3a02000 	mov	r2, #0
4800b8ac:	e3a03000 	mov	r3, #0
4800b8b0:	e59b1004 	ldr	r1, [fp, #4]
4800b8b4:	e1c120f0 	strd	r2, [r1]
4800b8b8:	e51b201c 	ldr	r2, [fp, #-28]
4800b8bc:	e51b3018 	ldr	r3, [fp, #-24]
4800b8c0:	e1823003 	orr	r3, r2, r3
4800b8c4:	e3530000 	cmp	r3, #0
4800b8c8:	13a03000 	movne	r3, #0
4800b8cc:	03a03001 	moveq	r3, #1
4800b8d0:	e6ef3073 	uxtb	r3, r3
4800b8d4:	e6ef2073 	uxtb	r2, r3
4800b8d8:	e3a03000 	mov	r3, #0
4800b8dc:	ea00008e 	b	4800bb1c <do_udiv64+0x2e0>
4800b8e0:	e3a02000 	mov	r2, #0
4800b8e4:	e3a03000 	mov	r3, #0
4800b8e8:	e14b21fc 	strd	r2, [fp, #-28]	; 0xffffffe4
4800b8ec:	e14b22dc 	ldrd	r2, [fp, #-44]	; 0xffffffd4
4800b8f0:	e1a00002 	mov	r0, r2
4800b8f4:	e1a01003 	mov	r1, r3
4800b8f8:	ebffff45 	bl	4800b614 <do_fls64>
4800b8fc:	e50b0010 	str	r0, [fp, #-16]
4800b900:	e14b22dc 	ldrd	r2, [fp, #-44]	; 0xffffffd4
4800b904:	e51b1010 	ldr	r1, [fp, #-16]
4800b908:	e2611040 	rsb	r1, r1, #64	; 0x40
4800b90c:	e241c020 	sub	ip, r1, #32
4800b910:	e2610020 	rsb	r0, r1, #32
4800b914:	e1a05113 	lsl	r5, r3, r1
4800b918:	e1855c12 	orr	r5, r5, r2, lsl ip
4800b91c:	e1855032 	orr	r5, r5, r2, lsr r0
4800b920:	e1a04112 	lsl	r4, r2, r1
4800b924:	e14b42fc 	strd	r4, [fp, #-44]	; 0xffffffd4
4800b928:	e24b502c 	sub	r5, fp, #44	; 0x2c
4800b92c:	e24b4024 	sub	r4, fp, #36	; 0x24
4800b930:	e2842007 	add	r2, r4, #7
4800b934:	e5d53000 	ldrb	r3, [r5]
4800b938:	e1a01003 	mov	r1, r3
4800b93c:	e3063108 	movw	r3, #24840	; 0x6108
4800b940:	e3443801 	movt	r3, #18433	; 0x4801
4800b944:	e7d33001 	ldrb	r3, [r3, r1]
4800b948:	e5c23000 	strb	r3, [r2]
4800b94c:	e2842006 	add	r2, r4, #6
4800b950:	e2853001 	add	r3, r5, #1
4800b954:	e5d33000 	ldrb	r3, [r3]
4800b958:	e1a01003 	mov	r1, r3
4800b95c:	e3063108 	movw	r3, #24840	; 0x6108
4800b960:	e3443801 	movt	r3, #18433	; 0x4801
4800b964:	e7d33001 	ldrb	r3, [r3, r1]
4800b968:	e5c23000 	strb	r3, [r2]
4800b96c:	e2842005 	add	r2, r4, #5
4800b970:	e2853002 	add	r3, r5, #2
4800b974:	e5d33000 	ldrb	r3, [r3]
4800b978:	e1a01003 	mov	r1, r3
4800b97c:	e3063108 	movw	r3, #24840	; 0x6108
4800b980:	e3443801 	movt	r3, #18433	; 0x4801
4800b984:	e7d33001 	ldrb	r3, [r3, r1]
4800b988:	e5c23000 	strb	r3, [r2]
4800b98c:	e2842004 	add	r2, r4, #4
4800b990:	e2853003 	add	r3, r5, #3
4800b994:	e5d33000 	ldrb	r3, [r3]
4800b998:	e1a01003 	mov	r1, r3
4800b99c:	e3063108 	movw	r3, #24840	; 0x6108
4800b9a0:	e3443801 	movt	r3, #18433	; 0x4801
4800b9a4:	e7d33001 	ldrb	r3, [r3, r1]
4800b9a8:	e5c23000 	strb	r3, [r2]
4800b9ac:	e2842003 	add	r2, r4, #3
4800b9b0:	e2853004 	add	r3, r5, #4
4800b9b4:	e5d33000 	ldrb	r3, [r3]
4800b9b8:	e1a01003 	mov	r1, r3
4800b9bc:	e3063108 	movw	r3, #24840	; 0x6108
4800b9c0:	e3443801 	movt	r3, #18433	; 0x4801
4800b9c4:	e7d33001 	ldrb	r3, [r3, r1]
4800b9c8:	e5c23000 	strb	r3, [r2]
4800b9cc:	e2842002 	add	r2, r4, #2
4800b9d0:	e2853005 	add	r3, r5, #5
4800b9d4:	e5d33000 	ldrb	r3, [r3]
4800b9d8:	e1a01003 	mov	r1, r3
4800b9dc:	e3063108 	movw	r3, #24840	; 0x6108
4800b9e0:	e3443801 	movt	r3, #18433	; 0x4801
4800b9e4:	e7d33001 	ldrb	r3, [r3, r1]
4800b9e8:	e5c23000 	strb	r3, [r2]
4800b9ec:	e2842001 	add	r2, r4, #1
4800b9f0:	e2853006 	add	r3, r5, #6
4800b9f4:	e5d33000 	ldrb	r3, [r3]
4800b9f8:	e1a01003 	mov	r1, r3
4800b9fc:	e3063108 	movw	r3, #24840	; 0x6108
4800ba00:	e3443801 	movt	r3, #18433	; 0x4801
4800ba04:	e7d33001 	ldrb	r3, [r3, r1]
4800ba08:	e5c23000 	strb	r3, [r2]
4800ba0c:	e2853007 	add	r3, r5, #7
4800ba10:	e5d33000 	ldrb	r3, [r3]
4800ba14:	e1a02003 	mov	r2, r3
4800ba18:	e3063108 	movw	r3, #24840	; 0x6108
4800ba1c:	e3443801 	movt	r3, #18433	; 0x4801
4800ba20:	e7d33002 	ldrb	r3, [r3, r2]
4800ba24:	e5c43000 	strb	r3, [r4]
4800ba28:	e14b22d4 	ldrd	r2, [fp, #-36]	; 0xffffffdc
4800ba2c:	e14b22fc 	strd	r2, [fp, #-44]	; 0xffffffd4
4800ba30:	e3a02000 	mov	r2, #0
4800ba34:	e3a03000 	mov	r3, #0
4800ba38:	e14b22f4 	strd	r2, [fp, #-36]	; 0xffffffdc
4800ba3c:	ea00002c 	b	4800baf4 <do_udiv64+0x2b8>
4800ba40:	e14b21dc 	ldrd	r2, [fp, #-28]	; 0xffffffe4
4800ba44:	e0922002 	adds	r2, r2, r2
4800ba48:	e0a33003 	adc	r3, r3, r3
4800ba4c:	e1a00002 	mov	r0, r2
4800ba50:	e1a01003 	mov	r1, r3
4800ba54:	e14b42dc 	ldrd	r4, [fp, #-44]	; 0xffffffd4
4800ba58:	e3a02001 	mov	r2, #1
4800ba5c:	e3a03000 	mov	r3, #0
4800ba60:	e0022004 	and	r2, r2, r4
4800ba64:	e0033005 	and	r3, r3, r5
4800ba68:	e1822000 	orr	r2, r2, r0
4800ba6c:	e1833001 	orr	r3, r3, r1
4800ba70:	e14b21fc 	strd	r2, [fp, #-28]	; 0xffffffe4
4800ba74:	e14b22dc 	ldrd	r2, [fp, #-44]	; 0xffffffd4
4800ba78:	e1b030a3 	lsrs	r3, r3, #1
4800ba7c:	e1a02062 	rrx	r2, r2
4800ba80:	e14b22fc 	strd	r2, [fp, #-44]	; 0xffffffd4
4800ba84:	e14b01dc 	ldrd	r0, [fp, #-28]	; 0xffffffe4
4800ba88:	e14b23d4 	ldrd	r2, [fp, #-52]	; 0xffffffcc
4800ba8c:	e1510003 	cmp	r1, r3
4800ba90:	01500002 	cmpeq	r0, r2
4800ba94:	2a000004 	bcs	4800baac <do_udiv64+0x270>
4800ba98:	e14b22d4 	ldrd	r2, [fp, #-36]	; 0xffffffdc
4800ba9c:	e0922002 	adds	r2, r2, r2
4800baa0:	e0a33003 	adc	r3, r3, r3
4800baa4:	e14b22f4 	strd	r2, [fp, #-36]	; 0xffffffdc
4800baa8:	ea00000e 	b	4800bae8 <do_udiv64+0x2ac>
4800baac:	e14b22d4 	ldrd	r2, [fp, #-36]	; 0xffffffdc
4800bab0:	e0922002 	adds	r2, r2, r2
4800bab4:	e0a33003 	adc	r3, r3, r3
4800bab8:	e1a00002 	mov	r0, r2
4800babc:	e1a01003 	mov	r1, r3
4800bac0:	e3a02001 	mov	r2, #1
4800bac4:	e3a03000 	mov	r3, #0
4800bac8:	e1822000 	orr	r2, r2, r0
4800bacc:	e1833001 	orr	r3, r3, r1
4800bad0:	e14b22f4 	strd	r2, [fp, #-36]	; 0xffffffdc
4800bad4:	e14b01dc 	ldrd	r0, [fp, #-28]	; 0xffffffe4
4800bad8:	e14b23d4 	ldrd	r2, [fp, #-52]	; 0xffffffcc
4800badc:	e0502002 	subs	r2, r0, r2
4800bae0:	e0c13003 	sbc	r3, r1, r3
4800bae4:	e14b21fc 	strd	r2, [fp, #-28]	; 0xffffffe4
4800bae8:	e51b3010 	ldr	r3, [fp, #-16]
4800baec:	e2433001 	sub	r3, r3, #1
4800baf0:	e50b3010 	str	r3, [fp, #-16]
4800baf4:	e51b3010 	ldr	r3, [fp, #-16]
4800baf8:	e3530000 	cmp	r3, #0
4800bafc:	1affffcf 	bne	4800ba40 <do_udiv64+0x204>
4800bb00:	e59b3004 	ldr	r3, [fp, #4]
4800bb04:	e3530000 	cmp	r3, #0
4800bb08:	0a000002 	beq	4800bb18 <do_udiv64+0x2dc>
4800bb0c:	e59b1004 	ldr	r1, [fp, #4]
4800bb10:	e14b21dc 	ldrd	r2, [fp, #-28]	; 0xffffffe4
4800bb14:	e1c120f0 	strd	r2, [r1]
4800bb18:	e14b22d4 	ldrd	r2, [fp, #-36]	; 0xffffffdc
4800bb1c:	e1a00002 	mov	r0, r2
4800bb20:	e1a01003 	mov	r1, r3
4800bb24:	e24bd00c 	sub	sp, fp, #12
4800bb28:	e8bd8830 	pop	{r4, r5, fp, pc}

4800bb2c <do_fls32>:
4800bb2c:	e52db004 	push	{fp}		; (str fp, [sp, #-4]!)
4800bb30:	e28db000 	add	fp, sp, #0
4800bb34:	e24dd014 	sub	sp, sp, #20
4800bb38:	e50b0010 	str	r0, [fp, #-16]
4800bb3c:	e3a03000 	mov	r3, #0
4800bb40:	e50b3008 	str	r3, [fp, #-8]
4800bb44:	e51b3010 	ldr	r3, [fp, #-16]
4800bb48:	e1a03823 	lsr	r3, r3, #16
4800bb4c:	e1a03803 	lsl	r3, r3, #16
4800bb50:	e3530000 	cmp	r3, #0
4800bb54:	0a000005 	beq	4800bb70 <do_fls32+0x44>
4800bb58:	e51b3008 	ldr	r3, [fp, #-8]
4800bb5c:	e2833010 	add	r3, r3, #16
4800bb60:	e50b3008 	str	r3, [fp, #-8]
4800bb64:	e51b3010 	ldr	r3, [fp, #-16]
4800bb68:	e1a03823 	lsr	r3, r3, #16
4800bb6c:	e50b3010 	str	r3, [fp, #-16]
4800bb70:	e51b3010 	ldr	r3, [fp, #-16]
4800bb74:	e2033cff 	and	r3, r3, #65280	; 0xff00
4800bb78:	e3530000 	cmp	r3, #0
4800bb7c:	0a000005 	beq	4800bb98 <do_fls32+0x6c>
4800bb80:	e51b3008 	ldr	r3, [fp, #-8]
4800bb84:	e2833008 	add	r3, r3, #8
4800bb88:	e50b3008 	str	r3, [fp, #-8]
4800bb8c:	e51b3010 	ldr	r3, [fp, #-16]
4800bb90:	e1a03423 	lsr	r3, r3, #8
4800bb94:	e50b3010 	str	r3, [fp, #-16]
4800bb98:	e51b3010 	ldr	r3, [fp, #-16]
4800bb9c:	e20330f0 	and	r3, r3, #240	; 0xf0
4800bba0:	e3530000 	cmp	r3, #0
4800bba4:	0a000005 	beq	4800bbc0 <do_fls32+0x94>
4800bba8:	e51b3008 	ldr	r3, [fp, #-8]
4800bbac:	e2833004 	add	r3, r3, #4
4800bbb0:	e50b3008 	str	r3, [fp, #-8]
4800bbb4:	e51b3010 	ldr	r3, [fp, #-16]
4800bbb8:	e1a03223 	lsr	r3, r3, #4
4800bbbc:	e50b3010 	str	r3, [fp, #-16]
4800bbc0:	e51b3010 	ldr	r3, [fp, #-16]
4800bbc4:	e203300c 	and	r3, r3, #12
4800bbc8:	e3530000 	cmp	r3, #0
4800bbcc:	0a000005 	beq	4800bbe8 <do_fls32+0xbc>
4800bbd0:	e51b3008 	ldr	r3, [fp, #-8]
4800bbd4:	e2833002 	add	r3, r3, #2
4800bbd8:	e50b3008 	str	r3, [fp, #-8]
4800bbdc:	e51b3010 	ldr	r3, [fp, #-16]
4800bbe0:	e1a03123 	lsr	r3, r3, #2
4800bbe4:	e50b3010 	str	r3, [fp, #-16]
4800bbe8:	e51b3010 	ldr	r3, [fp, #-16]
4800bbec:	e2033003 	and	r3, r3, #3
4800bbf0:	e3530000 	cmp	r3, #0
4800bbf4:	0a000005 	beq	4800bc10 <do_fls32+0xe4>
4800bbf8:	e51b3008 	ldr	r3, [fp, #-8]
4800bbfc:	e2833002 	add	r3, r3, #2
4800bc00:	e50b3008 	str	r3, [fp, #-8]
4800bc04:	e51b3010 	ldr	r3, [fp, #-16]
4800bc08:	e1a03123 	lsr	r3, r3, #2
4800bc0c:	e50b3010 	str	r3, [fp, #-16]
4800bc10:	e51b3008 	ldr	r3, [fp, #-8]
4800bc14:	e1a00003 	mov	r0, r3
4800bc18:	e24bd000 	sub	sp, fp, #0
4800bc1c:	e49db004 	pop	{fp}		; (ldr fp, [sp], #4)
4800bc20:	e12fff1e 	bx	lr

4800bc24 <do_udiv32>:
4800bc24:	e92d4830 	push	{r4, r5, fp, lr}
4800bc28:	e28db00c 	add	fp, sp, #12
4800bc2c:	e24dd020 	sub	sp, sp, #32
4800bc30:	e50b0020 	str	r0, [fp, #-32]
4800bc34:	e50b1024 	str	r1, [fp, #-36]	; 0x24
4800bc38:	e50b2028 	str	r2, [fp, #-40]	; 0x28
4800bc3c:	e51b3024 	ldr	r3, [fp, #-36]	; 0x24
4800bc40:	e3530000 	cmp	r3, #0
4800bc44:	1a000000 	bne	4800bc4c <do_udiv32+0x28>
4800bc48:	eafffffe 	b	4800bc48 <do_udiv32+0x24>
4800bc4c:	e51b2020 	ldr	r2, [fp, #-32]
4800bc50:	e51b3024 	ldr	r3, [fp, #-36]	; 0x24
4800bc54:	e1520003 	cmp	r2, r3
4800bc58:	8a000014 	bhi	4800bcb0 <do_udiv32+0x8c>
4800bc5c:	e51b3020 	ldr	r3, [fp, #-32]
4800bc60:	e51b2024 	ldr	r2, [fp, #-36]	; 0x24
4800bc64:	e0633002 	rsb	r3, r3, r2
4800bc68:	e50b3014 	str	r3, [fp, #-20]
4800bc6c:	e51b3028 	ldr	r3, [fp, #-40]	; 0x28
4800bc70:	e3530000 	cmp	r3, #0
4800bc74:	0a000007 	beq	4800bc98 <do_udiv32+0x74>
4800bc78:	e51b3014 	ldr	r3, [fp, #-20]
4800bc7c:	e3530000 	cmp	r3, #0
4800bc80:	0a000001 	beq	4800bc8c <do_udiv32+0x68>
4800bc84:	e51b3020 	ldr	r3, [fp, #-32]
4800bc88:	ea000000 	b	4800bc90 <do_udiv32+0x6c>
4800bc8c:	e3a03000 	mov	r3, #0
4800bc90:	e51b2028 	ldr	r2, [fp, #-40]	; 0x28
4800bc94:	e5823000 	str	r3, [r2]
4800bc98:	e51b3014 	ldr	r3, [fp, #-20]
4800bc9c:	e3530000 	cmp	r3, #0
4800bca0:	13a03000 	movne	r3, #0
4800bca4:	03a03001 	moveq	r3, #1
4800bca8:	e6ef3073 	uxtb	r3, r3
4800bcac:	ea000055 	b	4800be08 <do_udiv32+0x1e4>
4800bcb0:	e3a03000 	mov	r3, #0
4800bcb4:	e50b3014 	str	r3, [fp, #-20]
4800bcb8:	e51b3020 	ldr	r3, [fp, #-32]
4800bcbc:	e1a00003 	mov	r0, r3
4800bcc0:	ebffff99 	bl	4800bb2c <do_fls32>
4800bcc4:	e50b0010 	str	r0, [fp, #-16]
4800bcc8:	e51b2020 	ldr	r2, [fp, #-32]
4800bccc:	e51b3010 	ldr	r3, [fp, #-16]
4800bcd0:	e2633020 	rsb	r3, r3, #32
4800bcd4:	e1a03312 	lsl	r3, r2, r3
4800bcd8:	e50b3020 	str	r3, [fp, #-32]
4800bcdc:	e24b5020 	sub	r5, fp, #32
4800bce0:	e24b4018 	sub	r4, fp, #24
4800bce4:	e2842003 	add	r2, r4, #3
4800bce8:	e5d53000 	ldrb	r3, [r5]
4800bcec:	e1a01003 	mov	r1, r3
4800bcf0:	e3063108 	movw	r3, #24840	; 0x6108
4800bcf4:	e3443801 	movt	r3, #18433	; 0x4801
4800bcf8:	e7d33001 	ldrb	r3, [r3, r1]
4800bcfc:	e5c23000 	strb	r3, [r2]
4800bd00:	e2842002 	add	r2, r4, #2
4800bd04:	e2853001 	add	r3, r5, #1
4800bd08:	e5d33000 	ldrb	r3, [r3]
4800bd0c:	e1a01003 	mov	r1, r3
4800bd10:	e3063108 	movw	r3, #24840	; 0x6108
4800bd14:	e3443801 	movt	r3, #18433	; 0x4801
4800bd18:	e7d33001 	ldrb	r3, [r3, r1]
4800bd1c:	e5c23000 	strb	r3, [r2]
4800bd20:	e2842001 	add	r2, r4, #1
4800bd24:	e2853002 	add	r3, r5, #2
4800bd28:	e5d33000 	ldrb	r3, [r3]
4800bd2c:	e1a01003 	mov	r1, r3
4800bd30:	e3063108 	movw	r3, #24840	; 0x6108
4800bd34:	e3443801 	movt	r3, #18433	; 0x4801
4800bd38:	e7d33001 	ldrb	r3, [r3, r1]
4800bd3c:	e5c23000 	strb	r3, [r2]
4800bd40:	e2853003 	add	r3, r5, #3
4800bd44:	e5d33000 	ldrb	r3, [r3]
4800bd48:	e1a02003 	mov	r2, r3
4800bd4c:	e3063108 	movw	r3, #24840	; 0x6108
4800bd50:	e3443801 	movt	r3, #18433	; 0x4801
4800bd54:	e7d33002 	ldrb	r3, [r3, r2]
4800bd58:	e5c43000 	strb	r3, [r4]
4800bd5c:	e51b3018 	ldr	r3, [fp, #-24]
4800bd60:	e50b3020 	str	r3, [fp, #-32]
4800bd64:	e3a03000 	mov	r3, #0
4800bd68:	e50b3018 	str	r3, [fp, #-24]
4800bd6c:	ea00001b 	b	4800bde0 <do_udiv32+0x1bc>
4800bd70:	e51b3014 	ldr	r3, [fp, #-20]
4800bd74:	e1a02083 	lsl	r2, r3, #1
4800bd78:	e51b3020 	ldr	r3, [fp, #-32]
4800bd7c:	e2033001 	and	r3, r3, #1
4800bd80:	e1823003 	orr	r3, r2, r3
4800bd84:	e50b3014 	str	r3, [fp, #-20]
4800bd88:	e51b3020 	ldr	r3, [fp, #-32]
4800bd8c:	e1a030a3 	lsr	r3, r3, #1
4800bd90:	e50b3020 	str	r3, [fp, #-32]
4800bd94:	e51b2014 	ldr	r2, [fp, #-20]
4800bd98:	e51b3024 	ldr	r3, [fp, #-36]	; 0x24
4800bd9c:	e1520003 	cmp	r2, r3
4800bda0:	2a000003 	bcs	4800bdb4 <do_udiv32+0x190>
4800bda4:	e51b3018 	ldr	r3, [fp, #-24]
4800bda8:	e1a03083 	lsl	r3, r3, #1
4800bdac:	e50b3018 	str	r3, [fp, #-24]
4800bdb0:	ea000007 	b	4800bdd4 <do_udiv32+0x1b0>
4800bdb4:	e51b3018 	ldr	r3, [fp, #-24]
4800bdb8:	e1a03083 	lsl	r3, r3, #1
4800bdbc:	e3833001 	orr	r3, r3, #1
4800bdc0:	e50b3018 	str	r3, [fp, #-24]
4800bdc4:	e51b2014 	ldr	r2, [fp, #-20]
4800bdc8:	e51b3024 	ldr	r3, [fp, #-36]	; 0x24
4800bdcc:	e0633002 	rsb	r3, r3, r2
4800bdd0:	e50b3014 	str	r3, [fp, #-20]
4800bdd4:	e51b3010 	ldr	r3, [fp, #-16]
4800bdd8:	e2433001 	sub	r3, r3, #1
4800bddc:	e50b3010 	str	r3, [fp, #-16]
4800bde0:	e51b3010 	ldr	r3, [fp, #-16]
4800bde4:	e3530000 	cmp	r3, #0
4800bde8:	1affffe0 	bne	4800bd70 <do_udiv32+0x14c>
4800bdec:	e51b3028 	ldr	r3, [fp, #-40]	; 0x28
4800bdf0:	e3530000 	cmp	r3, #0
4800bdf4:	0a000002 	beq	4800be04 <do_udiv32+0x1e0>
4800bdf8:	e51b3028 	ldr	r3, [fp, #-40]	; 0x28
4800bdfc:	e51b2014 	ldr	r2, [fp, #-20]
4800be00:	e5832000 	str	r2, [r3]
4800be04:	e51b3018 	ldr	r3, [fp, #-24]
4800be08:	e1a00003 	mov	r0, r3
4800be0c:	e24bd00c 	sub	sp, fp, #12
4800be10:	e8bd8830 	pop	{r4, r5, fp, pc}

4800be14 <arm_sdiv32>:
4800be14:	e92d4800 	push	{fp, lr}
4800be18:	e28db004 	add	fp, sp, #4
4800be1c:	e24dd010 	sub	sp, sp, #16
4800be20:	e50b0010 	str	r0, [fp, #-16]
4800be24:	e50b1014 	str	r1, [fp, #-20]
4800be28:	e51b3010 	ldr	r3, [fp, #-16]
4800be2c:	e51b2014 	ldr	r2, [fp, #-20]
4800be30:	e0030392 	mul	r3, r2, r3
4800be34:	e3530000 	cmp	r3, #0
4800be38:	aa00000f 	bge	4800be7c <arm_sdiv32+0x68>
4800be3c:	e51b3010 	ldr	r3, [fp, #-16]
4800be40:	e3530000 	cmp	r3, #0
4800be44:	b2633000 	rsblt	r3, r3, #0
4800be48:	e1a01003 	mov	r1, r3
4800be4c:	e51b3014 	ldr	r3, [fp, #-20]
4800be50:	e3530000 	cmp	r3, #0
4800be54:	b2633000 	rsblt	r3, r3, #0
4800be58:	e1a02003 	mov	r2, r3
4800be5c:	e24b3008 	sub	r3, fp, #8
4800be60:	e1a00001 	mov	r0, r1
4800be64:	e1a01002 	mov	r1, r2
4800be68:	e1a02003 	mov	r2, r3
4800be6c:	ebffff6c 	bl	4800bc24 <do_udiv32>
4800be70:	e1a03000 	mov	r3, r0
4800be74:	e2633000 	rsb	r3, r3, #0
4800be78:	ea00000d 	b	4800beb4 <arm_sdiv32+0xa0>
4800be7c:	e51b3010 	ldr	r3, [fp, #-16]
4800be80:	e3530000 	cmp	r3, #0
4800be84:	b2633000 	rsblt	r3, r3, #0
4800be88:	e1a01003 	mov	r1, r3
4800be8c:	e51b3014 	ldr	r3, [fp, #-20]
4800be90:	e3530000 	cmp	r3, #0
4800be94:	b2633000 	rsblt	r3, r3, #0
4800be98:	e1a02003 	mov	r2, r3
4800be9c:	e24b3008 	sub	r3, fp, #8
4800bea0:	e1a00001 	mov	r0, r1
4800bea4:	e1a01002 	mov	r1, r2
4800bea8:	e1a02003 	mov	r2, r3
4800beac:	ebffff5c 	bl	4800bc24 <do_udiv32>
4800beb0:	e1a03000 	mov	r3, r0
4800beb4:	e1a00003 	mov	r0, r3
4800beb8:	e24bd004 	sub	sp, fp, #4
4800bebc:	e8bd8800 	pop	{fp, pc}

4800bec0 <dhry_main>:
4800bec0:	e92d48f0 	push	{r4, r5, r6, r7, fp, lr}
4800bec4:	e28db014 	add	fp, sp, #20
4800bec8:	e24dd050 	sub	sp, sp, #80	; 0x50
4800becc:	e50b0060 	str	r0, [fp, #-96]	; 0x60
4800bed0:	e51b7060 	ldr	r7, [fp, #-96]	; 0x60
4800bed4:	e3a00030 	mov	r0, #48	; 0x30
4800bed8:	eb000458 	bl	4800d040 <dhry_malloc>
4800bedc:	e1a02000 	mov	r2, r0
4800bee0:	e3073748 	movw	r3, #30536	; 0x7748
4800bee4:	e3443802 	movt	r3, #18434	; 0x4802
4800bee8:	e5832000 	str	r2, [r3]
4800beec:	e3a00030 	mov	r0, #48	; 0x30
4800bef0:	eb000452 	bl	4800d040 <dhry_malloc>
4800bef4:	e1a02000 	mov	r2, r0
4800bef8:	e3073754 	movw	r3, #30548	; 0x7754
4800befc:	e3443802 	movt	r3, #18434	; 0x4802
4800bf00:	e5832000 	str	r2, [r3]
4800bf04:	e3073754 	movw	r3, #30548	; 0x7754
4800bf08:	e3443802 	movt	r3, #18434	; 0x4802
4800bf0c:	e5932000 	ldr	r2, [r3]
4800bf10:	e3073748 	movw	r3, #30536	; 0x7748
4800bf14:	e3443802 	movt	r3, #18434	; 0x4802
4800bf18:	e5933000 	ldr	r3, [r3]
4800bf1c:	e5823000 	str	r3, [r2]
4800bf20:	e3073754 	movw	r3, #30548	; 0x7754
4800bf24:	e3443802 	movt	r3, #18434	; 0x4802
4800bf28:	e5933000 	ldr	r3, [r3]
4800bf2c:	e3a02000 	mov	r2, #0
4800bf30:	e5c32004 	strb	r2, [r3, #4]
4800bf34:	e3073754 	movw	r3, #30548	; 0x7754
4800bf38:	e3443802 	movt	r3, #18434	; 0x4802
4800bf3c:	e5933000 	ldr	r3, [r3]
4800bf40:	e3a02002 	mov	r2, #2
4800bf44:	e5c32008 	strb	r2, [r3, #8]
4800bf48:	e3073754 	movw	r3, #30548	; 0x7754
4800bf4c:	e3443802 	movt	r3, #18434	; 0x4802
4800bf50:	e5933000 	ldr	r3, [r3]
4800bf54:	e3a02028 	mov	r2, #40	; 0x28
4800bf58:	e583200c 	str	r2, [r3, #12]
4800bf5c:	e3073754 	movw	r3, #30548	; 0x7754
4800bf60:	e3443802 	movt	r3, #18434	; 0x4802
4800bf64:	e5933000 	ldr	r3, [r3]
4800bf68:	e2833010 	add	r3, r3, #16
4800bf6c:	e1a00003 	mov	r0, r3
4800bf70:	e3061208 	movw	r1, #25096	; 0x6208
4800bf74:	e3441801 	movt	r1, #18433	; 0x4801
4800bf78:	eb00047b 	bl	4800d16c <dhry_strcpy>
4800bf7c:	e24b303c 	sub	r3, fp, #60	; 0x3c
4800bf80:	e1a00003 	mov	r0, r3
4800bf84:	e3061228 	movw	r1, #25128	; 0x6228
4800bf88:	e3441801 	movt	r1, #18433	; 0x4801
4800bf8c:	eb000476 	bl	4800d16c <dhry_strcpy>
4800bf90:	e3053030 	movw	r3, #20528	; 0x5030
4800bf94:	e3443802 	movt	r3, #18434	; 0x4802
4800bf98:	e3a0200a 	mov	r2, #10
4800bf9c:	e583265c 	str	r2, [r3, #1628]	; 0x65c
4800bfa0:	e3060248 	movw	r0, #25160	; 0x6248
4800bfa4:	e3440801 	movt	r0, #18433	; 0x4801
4800bfa8:	eb000487 	bl	4800d1cc <dhry_prints>
4800bfac:	e306024c 	movw	r0, #25164	; 0x624c
4800bfb0:	e3440801 	movt	r0, #18433	; 0x4801
4800bfb4:	eb000484 	bl	4800d1cc <dhry_prints>
4800bfb8:	e3060248 	movw	r0, #25160	; 0x6248
4800bfbc:	e3440801 	movt	r0, #18433	; 0x4801
4800bfc0:	eb000481 	bl	4800d1cc <dhry_prints>
4800bfc4:	e30530f0 	movw	r3, #20720	; 0x50f0
4800bfc8:	e3443801 	movt	r3, #18433	; 0x4801
4800bfcc:	e5933000 	ldr	r3, [r3]
4800bfd0:	e3530000 	cmp	r3, #0
4800bfd4:	0a000006 	beq	4800bff4 <dhry_main+0x134>
4800bfd8:	e306027c 	movw	r0, #25212	; 0x627c
4800bfdc:	e3440801 	movt	r0, #18433	; 0x4801
4800bfe0:	eb000479 	bl	4800d1cc <dhry_prints>
4800bfe4:	e3060248 	movw	r0, #25160	; 0x6248
4800bfe8:	e3440801 	movt	r0, #18433	; 0x4801
4800bfec:	eb000476 	bl	4800d1cc <dhry_prints>
4800bff0:	ea000005 	b	4800c00c <dhry_main+0x14c>
4800bff4:	e30602a8 	movw	r0, #25256	; 0x62a8
4800bff8:	e3440801 	movt	r0, #18433	; 0x4801
4800bffc:	eb000472 	bl	4800d1cc <dhry_prints>
4800c000:	e3060248 	movw	r0, #25160	; 0x6248
4800c004:	e3440801 	movt	r0, #18433	; 0x4801
4800c008:	eb00046f 	bl	4800d1cc <dhry_prints>
4800c00c:	e30602d8 	movw	r0, #25304	; 0x62d8
4800c010:	e3440801 	movt	r0, #18433	; 0x4801
4800c014:	eb00046c 	bl	4800d1cc <dhry_prints>
4800c018:	e1a00007 	mov	r0, r7
4800c01c:	eb000472 	bl	4800d1ec <dhry_printi>
4800c020:	e30602ec 	movw	r0, #25324	; 0x62ec
4800c024:	e3440801 	movt	r0, #18433	; 0x4801
4800c028:	eb000467 	bl	4800d1cc <dhry_prints>
4800c02c:	eb00040d 	bl	4800d068 <dhry_timestamp>
4800c030:	e3053028 	movw	r3, #20520	; 0x5028
4800c034:	e3443802 	movt	r3, #18434	; 0x4802
4800c038:	e1c300f0 	strd	r0, [r3]
4800c03c:	e3a05001 	mov	r5, #1
4800c040:	ea000069 	b	4800c1ec <dhry_main+0x32c>
4800c044:	eb0002e0 	bl	4800cbcc <Proc_5>
4800c048:	eb0002c5 	bl	4800cb64 <Proc_4>
4800c04c:	e3a03002 	mov	r3, #2
4800c050:	e50b3018 	str	r3, [fp, #-24]
4800c054:	e3a04003 	mov	r4, #3
4800c058:	e24b305c 	sub	r3, fp, #92	; 0x5c
4800c05c:	e1a00003 	mov	r0, r3
4800c060:	e3061308 	movw	r1, #25352	; 0x6308
4800c064:	e3441801 	movt	r1, #18433	; 0x4801
4800c068:	eb00043f 	bl	4800d16c <dhry_strcpy>
4800c06c:	e3a03001 	mov	r3, #1
4800c070:	e54b301d 	strb	r3, [fp, #-29]
4800c074:	e24b203c 	sub	r2, fp, #60	; 0x3c
4800c078:	e24b305c 	sub	r3, fp, #92	; 0x5c
4800c07c:	e1a00002 	mov	r0, r2
4800c080:	e1a01003 	mov	r1, r3
4800c084:	eb00038c 	bl	4800cebc <Func_2>
4800c088:	e1a03000 	mov	r3, r0
4800c08c:	e3530000 	cmp	r3, #0
4800c090:	13a03000 	movne	r3, #0
4800c094:	03a03001 	moveq	r3, #1
4800c098:	e6ef3073 	uxtb	r3, r3
4800c09c:	e1a02003 	mov	r2, r3
4800c0a0:	e3073820 	movw	r3, #30752	; 0x7820
4800c0a4:	e3443802 	movt	r3, #18434	; 0x4802
4800c0a8:	e5832000 	str	r2, [r3]
4800c0ac:	ea00000e 	b	4800c0ec <dhry_main+0x22c>
4800c0b0:	e51b2018 	ldr	r2, [fp, #-24]
4800c0b4:	e1a03002 	mov	r3, r2
4800c0b8:	e1a03103 	lsl	r3, r3, #2
4800c0bc:	e0833002 	add	r3, r3, r2
4800c0c0:	e0643003 	rsb	r3, r4, r3
4800c0c4:	e50b301c 	str	r3, [fp, #-28]
4800c0c8:	e51b2018 	ldr	r2, [fp, #-24]
4800c0cc:	e24b301c 	sub	r3, fp, #28
4800c0d0:	e1a00002 	mov	r0, r2
4800c0d4:	e1a01004 	mov	r1, r4
4800c0d8:	e1a02003 	mov	r2, r3
4800c0dc:	eb0002fd 	bl	4800ccd8 <Proc_7>
4800c0e0:	e51b3018 	ldr	r3, [fp, #-24]
4800c0e4:	e2833001 	add	r3, r3, #1
4800c0e8:	e50b3018 	str	r3, [fp, #-24]
4800c0ec:	e51b3018 	ldr	r3, [fp, #-24]
4800c0f0:	e1530004 	cmp	r3, r4
4800c0f4:	baffffed 	blt	4800c0b0 <dhry_main+0x1f0>
4800c0f8:	e51b2018 	ldr	r2, [fp, #-24]
4800c0fc:	e51b301c 	ldr	r3, [fp, #-28]
4800c100:	e3070758 	movw	r0, #30552	; 0x7758
4800c104:	e3440802 	movt	r0, #18434	; 0x4802
4800c108:	e3051030 	movw	r1, #20528	; 0x5030
4800c10c:	e3441802 	movt	r1, #18434	; 0x4802
4800c110:	eb000301 	bl	4800cd1c <Proc_8>
4800c114:	e3073754 	movw	r3, #30548	; 0x7754
4800c118:	e3443802 	movt	r3, #18434	; 0x4802
4800c11c:	e5933000 	ldr	r3, [r3]
4800c120:	e1a00003 	mov	r0, r3
4800c124:	eb00021a 	bl	4800c994 <Proc_1>
4800c128:	e3a06041 	mov	r6, #65	; 0x41
4800c12c:	ea000016 	b	4800c18c <dhry_main+0x2cc>
4800c130:	e1a00006 	mov	r0, r6
4800c134:	e3a01043 	mov	r1, #67	; 0x43
4800c138:	eb000345 	bl	4800ce54 <Func_1>
4800c13c:	e1a03000 	mov	r3, r0
4800c140:	e1a02003 	mov	r2, r3
4800c144:	e55b301d 	ldrb	r3, [fp, #-29]
4800c148:	e1520003 	cmp	r2, r3
4800c14c:	1a00000c 	bne	4800c184 <dhry_main+0x2c4>
4800c150:	e24b301d 	sub	r3, fp, #29
4800c154:	e3a00000 	mov	r0, #0
4800c158:	e1a01003 	mov	r1, r3
4800c15c:	eb0002a7 	bl	4800cc00 <Proc_6>
4800c160:	e24b305c 	sub	r3, fp, #92	; 0x5c
4800c164:	e1a00003 	mov	r0, r3
4800c168:	e3061328 	movw	r1, #25384	; 0x6328
4800c16c:	e3441801 	movt	r1, #18433	; 0x4801
4800c170:	eb0003fd 	bl	4800d16c <dhry_strcpy>
4800c174:	e1a04005 	mov	r4, r5
4800c178:	e307374c 	movw	r3, #30540	; 0x774c
4800c17c:	e3443802 	movt	r3, #18434	; 0x4802
4800c180:	e5835000 	str	r5, [r3]
4800c184:	e2863001 	add	r3, r6, #1
4800c188:	e6ef6073 	uxtb	r6, r3
4800c18c:	e3073751 	movw	r3, #30545	; 0x7751
4800c190:	e3443802 	movt	r3, #18434	; 0x4802
4800c194:	e5d33000 	ldrb	r3, [r3]
4800c198:	e1560003 	cmp	r6, r3
4800c19c:	9affffe3 	bls	4800c130 <dhry_main+0x270>
4800c1a0:	e51b3018 	ldr	r3, [fp, #-24]
4800c1a4:	e0040493 	mul	r4, r3, r4
4800c1a8:	e51b301c 	ldr	r3, [fp, #-28]
4800c1ac:	e1a00004 	mov	r0, r4
4800c1b0:	e1a01003 	mov	r1, r3
4800c1b4:	ebffff16 	bl	4800be14 <arm_sdiv32>
4800c1b8:	e1a03000 	mov	r3, r0
4800c1bc:	e50b3018 	str	r3, [fp, #-24]
4800c1c0:	e51b301c 	ldr	r3, [fp, #-28]
4800c1c4:	e0632004 	rsb	r2, r3, r4
4800c1c8:	e1a03002 	mov	r3, r2
4800c1cc:	e1a03183 	lsl	r3, r3, #3
4800c1d0:	e0622003 	rsb	r2, r2, r3
4800c1d4:	e51b3018 	ldr	r3, [fp, #-24]
4800c1d8:	e0634002 	rsb	r4, r3, r2
4800c1dc:	e24b3018 	sub	r3, fp, #24
4800c1e0:	e1a00003 	mov	r0, r3
4800c1e4:	eb000223 	bl	4800ca78 <Proc_2>
4800c1e8:	e2855001 	add	r5, r5, #1
4800c1ec:	e1550007 	cmp	r5, r7
4800c1f0:	daffff93 	ble	4800c044 <dhry_main+0x184>
4800c1f4:	eb00039b 	bl	4800d068 <dhry_timestamp>
4800c1f8:	e3073740 	movw	r3, #30528	; 0x7740
4800c1fc:	e3443802 	movt	r3, #18434	; 0x4802
4800c200:	e1c300f0 	strd	r0, [r3]
4800c204:	e3060348 	movw	r0, #25416	; 0x6348
4800c208:	e3440801 	movt	r0, #18433	; 0x4801
4800c20c:	eb0003ee 	bl	4800d1cc <dhry_prints>
4800c210:	e3060248 	movw	r0, #25160	; 0x6248
4800c214:	e3440801 	movt	r0, #18433	; 0x4801
4800c218:	eb0003eb 	bl	4800d1cc <dhry_prints>
4800c21c:	e3060358 	movw	r0, #25432	; 0x6358
4800c220:	e3440801 	movt	r0, #18433	; 0x4801
4800c224:	eb0003e8 	bl	4800d1cc <dhry_prints>
4800c228:	e3060248 	movw	r0, #25160	; 0x6248
4800c22c:	e3440801 	movt	r0, #18433	; 0x4801
4800c230:	eb0003e5 	bl	4800d1cc <dhry_prints>
4800c234:	e3060390 	movw	r0, #25488	; 0x6390
4800c238:	e3440801 	movt	r0, #18433	; 0x4801
4800c23c:	eb0003e2 	bl	4800d1cc <dhry_prints>
4800c240:	e307374c 	movw	r3, #30540	; 0x774c
4800c244:	e3443802 	movt	r3, #18434	; 0x4802
4800c248:	e5933000 	ldr	r3, [r3]
4800c24c:	e1a00003 	mov	r0, r3
4800c250:	eb0003e5 	bl	4800d1ec <dhry_printi>
4800c254:	e3060248 	movw	r0, #25160	; 0x6248
4800c258:	e3440801 	movt	r0, #18433	; 0x4801
4800c25c:	eb0003da 	bl	4800d1cc <dhry_prints>
4800c260:	e30603a8 	movw	r0, #25512	; 0x63a8
4800c264:	e3440801 	movt	r0, #18433	; 0x4801
4800c268:	eb0003d7 	bl	4800d1cc <dhry_prints>
4800c26c:	e3a00005 	mov	r0, #5
4800c270:	eb0003dd 	bl	4800d1ec <dhry_printi>
4800c274:	e3060248 	movw	r0, #25160	; 0x6248
4800c278:	e3440801 	movt	r0, #18433	; 0x4801
4800c27c:	eb0003d2 	bl	4800d1cc <dhry_prints>
4800c280:	e30603c0 	movw	r0, #25536	; 0x63c0
4800c284:	e3440801 	movt	r0, #18433	; 0x4801
4800c288:	eb0003cf 	bl	4800d1cc <dhry_prints>
4800c28c:	e3073820 	movw	r3, #30752	; 0x7820
4800c290:	e3443802 	movt	r3, #18434	; 0x4802
4800c294:	e5933000 	ldr	r3, [r3]
4800c298:	e1a00003 	mov	r0, r3
4800c29c:	eb0003d2 	bl	4800d1ec <dhry_printi>
4800c2a0:	e3060248 	movw	r0, #25160	; 0x6248
4800c2a4:	e3440801 	movt	r0, #18433	; 0x4801
4800c2a8:	eb0003c7 	bl	4800d1cc <dhry_prints>
4800c2ac:	e30603a8 	movw	r0, #25512	; 0x63a8
4800c2b0:	e3440801 	movt	r0, #18433	; 0x4801
4800c2b4:	eb0003c4 	bl	4800d1cc <dhry_prints>
4800c2b8:	e3a00001 	mov	r0, #1
4800c2bc:	eb0003ca 	bl	4800d1ec <dhry_printi>
4800c2c0:	e3060248 	movw	r0, #25160	; 0x6248
4800c2c4:	e3440801 	movt	r0, #18433	; 0x4801
4800c2c8:	eb0003bf 	bl	4800d1cc <dhry_prints>
4800c2cc:	e30603d8 	movw	r0, #25560	; 0x63d8
4800c2d0:	e3440801 	movt	r0, #18433	; 0x4801
4800c2d4:	eb0003bc 	bl	4800d1cc <dhry_prints>
4800c2d8:	e3073750 	movw	r3, #30544	; 0x7750
4800c2dc:	e3443802 	movt	r3, #18434	; 0x4802
4800c2e0:	e5d33000 	ldrb	r3, [r3]
4800c2e4:	e1a00003 	mov	r0, r3
4800c2e8:	eb0003a9 	bl	4800d194 <dhry_printc>
4800c2ec:	e3060248 	movw	r0, #25160	; 0x6248
4800c2f0:	e3440801 	movt	r0, #18433	; 0x4801
4800c2f4:	eb0003b4 	bl	4800d1cc <dhry_prints>
4800c2f8:	e30603f0 	movw	r0, #25584	; 0x63f0
4800c2fc:	e3440801 	movt	r0, #18433	; 0x4801
4800c300:	eb0003b1 	bl	4800d1cc <dhry_prints>
4800c304:	e3060408 	movw	r0, #25608	; 0x6408
4800c308:	e3440801 	movt	r0, #18433	; 0x4801
4800c30c:	eb0003ae 	bl	4800d1cc <dhry_prints>
4800c310:	e3073751 	movw	r3, #30545	; 0x7751
4800c314:	e3443802 	movt	r3, #18434	; 0x4802
4800c318:	e5d33000 	ldrb	r3, [r3]
4800c31c:	e1a00003 	mov	r0, r3
4800c320:	eb00039b 	bl	4800d194 <dhry_printc>
4800c324:	e3060248 	movw	r0, #25160	; 0x6248
4800c328:	e3440801 	movt	r0, #18433	; 0x4801
4800c32c:	eb0003a6 	bl	4800d1cc <dhry_prints>
4800c330:	e3060420 	movw	r0, #25632	; 0x6420
4800c334:	e3440801 	movt	r0, #18433	; 0x4801
4800c338:	eb0003a3 	bl	4800d1cc <dhry_prints>
4800c33c:	e3060438 	movw	r0, #25656	; 0x6438
4800c340:	e3440801 	movt	r0, #18433	; 0x4801
4800c344:	eb0003a0 	bl	4800d1cc <dhry_prints>
4800c348:	e3073758 	movw	r3, #30552	; 0x7758
4800c34c:	e3443802 	movt	r3, #18434	; 0x4802
4800c350:	e5933020 	ldr	r3, [r3, #32]
4800c354:	e1a00003 	mov	r0, r3
4800c358:	eb0003a3 	bl	4800d1ec <dhry_printi>
4800c35c:	e3060248 	movw	r0, #25160	; 0x6248
4800c360:	e3440801 	movt	r0, #18433	; 0x4801
4800c364:	eb000398 	bl	4800d1cc <dhry_prints>
4800c368:	e30603a8 	movw	r0, #25512	; 0x63a8
4800c36c:	e3440801 	movt	r0, #18433	; 0x4801
4800c370:	eb000395 	bl	4800d1cc <dhry_prints>
4800c374:	e3a00007 	mov	r0, #7
4800c378:	eb00039b 	bl	4800d1ec <dhry_printi>
4800c37c:	e3060248 	movw	r0, #25160	; 0x6248
4800c380:	e3440801 	movt	r0, #18433	; 0x4801
4800c384:	eb000390 	bl	4800d1cc <dhry_prints>
4800c388:	e3060450 	movw	r0, #25680	; 0x6450
4800c38c:	e3440801 	movt	r0, #18433	; 0x4801
4800c390:	eb00038d 	bl	4800d1cc <dhry_prints>
4800c394:	e3053030 	movw	r3, #20528	; 0x5030
4800c398:	e3443802 	movt	r3, #18434	; 0x4802
4800c39c:	e593365c 	ldr	r3, [r3, #1628]	; 0x65c
4800c3a0:	e1a00003 	mov	r0, r3
4800c3a4:	eb000390 	bl	4800d1ec <dhry_printi>
4800c3a8:	e3060248 	movw	r0, #25160	; 0x6248
4800c3ac:	e3440801 	movt	r0, #18433	; 0x4801
4800c3b0:	eb000385 	bl	4800d1cc <dhry_prints>
4800c3b4:	e3060468 	movw	r0, #25704	; 0x6468
4800c3b8:	e3440801 	movt	r0, #18433	; 0x4801
4800c3bc:	eb000382 	bl	4800d1cc <dhry_prints>
4800c3c0:	e3060494 	movw	r0, #25748	; 0x6494
4800c3c4:	e3440801 	movt	r0, #18433	; 0x4801
4800c3c8:	eb00037f 	bl	4800d1cc <dhry_prints>
4800c3cc:	e30604a0 	movw	r0, #25760	; 0x64a0
4800c3d0:	e3440801 	movt	r0, #18433	; 0x4801
4800c3d4:	eb00037c 	bl	4800d1cc <dhry_prints>
4800c3d8:	e3073754 	movw	r3, #30548	; 0x7754
4800c3dc:	e3443802 	movt	r3, #18434	; 0x4802
4800c3e0:	e5933000 	ldr	r3, [r3]
4800c3e4:	e5933000 	ldr	r3, [r3]
4800c3e8:	e1a00003 	mov	r0, r3
4800c3ec:	eb00037e 	bl	4800d1ec <dhry_printi>
4800c3f0:	e3060248 	movw	r0, #25160	; 0x6248
4800c3f4:	e3440801 	movt	r0, #18433	; 0x4801
4800c3f8:	eb000373 	bl	4800d1cc <dhry_prints>
4800c3fc:	e30604b8 	movw	r0, #25784	; 0x64b8
4800c400:	e3440801 	movt	r0, #18433	; 0x4801
4800c404:	eb000370 	bl	4800d1cc <dhry_prints>
4800c408:	e30604ec 	movw	r0, #25836	; 0x64ec
4800c40c:	e3440801 	movt	r0, #18433	; 0x4801
4800c410:	eb00036d 	bl	4800d1cc <dhry_prints>
4800c414:	e3073754 	movw	r3, #30548	; 0x7754
4800c418:	e3443802 	movt	r3, #18434	; 0x4802
4800c41c:	e5933000 	ldr	r3, [r3]
4800c420:	e5d33004 	ldrb	r3, [r3, #4]
4800c424:	e1a00003 	mov	r0, r3
4800c428:	eb00036f 	bl	4800d1ec <dhry_printi>
4800c42c:	e3060248 	movw	r0, #25160	; 0x6248
4800c430:	e3440801 	movt	r0, #18433	; 0x4801
4800c434:	eb000364 	bl	4800d1cc <dhry_prints>
4800c438:	e30603a8 	movw	r0, #25512	; 0x63a8
4800c43c:	e3440801 	movt	r0, #18433	; 0x4801
4800c440:	eb000361 	bl	4800d1cc <dhry_prints>
4800c444:	e3a00000 	mov	r0, #0
4800c448:	eb000367 	bl	4800d1ec <dhry_printi>
4800c44c:	e3060248 	movw	r0, #25160	; 0x6248
4800c450:	e3440801 	movt	r0, #18433	; 0x4801
4800c454:	eb00035c 	bl	4800d1cc <dhry_prints>
4800c458:	e3060504 	movw	r0, #25860	; 0x6504
4800c45c:	e3440801 	movt	r0, #18433	; 0x4801
4800c460:	eb000359 	bl	4800d1cc <dhry_prints>
4800c464:	e3073754 	movw	r3, #30548	; 0x7754
4800c468:	e3443802 	movt	r3, #18434	; 0x4802
4800c46c:	e5933000 	ldr	r3, [r3]
4800c470:	e5d33008 	ldrb	r3, [r3, #8]
4800c474:	e1a00003 	mov	r0, r3
4800c478:	eb00035b 	bl	4800d1ec <dhry_printi>
4800c47c:	e3060248 	movw	r0, #25160	; 0x6248
4800c480:	e3440801 	movt	r0, #18433	; 0x4801
4800c484:	eb000350 	bl	4800d1cc <dhry_prints>
4800c488:	e30603a8 	movw	r0, #25512	; 0x63a8
4800c48c:	e3440801 	movt	r0, #18433	; 0x4801
4800c490:	eb00034d 	bl	4800d1cc <dhry_prints>
4800c494:	e3a00002 	mov	r0, #2
4800c498:	eb000353 	bl	4800d1ec <dhry_printi>
4800c49c:	e3060248 	movw	r0, #25160	; 0x6248
4800c4a0:	e3440801 	movt	r0, #18433	; 0x4801
4800c4a4:	eb000348 	bl	4800d1cc <dhry_prints>
4800c4a8:	e306051c 	movw	r0, #25884	; 0x651c
4800c4ac:	e3440801 	movt	r0, #18433	; 0x4801
4800c4b0:	eb000345 	bl	4800d1cc <dhry_prints>
4800c4b4:	e3073754 	movw	r3, #30548	; 0x7754
4800c4b8:	e3443802 	movt	r3, #18434	; 0x4802
4800c4bc:	e5933000 	ldr	r3, [r3]
4800c4c0:	e593300c 	ldr	r3, [r3, #12]
4800c4c4:	e1a00003 	mov	r0, r3
4800c4c8:	eb000347 	bl	4800d1ec <dhry_printi>
4800c4cc:	e3060248 	movw	r0, #25160	; 0x6248
4800c4d0:	e3440801 	movt	r0, #18433	; 0x4801
4800c4d4:	eb00033c 	bl	4800d1cc <dhry_prints>
4800c4d8:	e30603a8 	movw	r0, #25512	; 0x63a8
4800c4dc:	e3440801 	movt	r0, #18433	; 0x4801
4800c4e0:	eb000339 	bl	4800d1cc <dhry_prints>
4800c4e4:	e3a00011 	mov	r0, #17
4800c4e8:	eb00033f 	bl	4800d1ec <dhry_printi>
4800c4ec:	e3060248 	movw	r0, #25160	; 0x6248
4800c4f0:	e3440801 	movt	r0, #18433	; 0x4801
4800c4f4:	eb000334 	bl	4800d1cc <dhry_prints>
4800c4f8:	e3060534 	movw	r0, #25908	; 0x6534
4800c4fc:	e3440801 	movt	r0, #18433	; 0x4801
4800c500:	eb000331 	bl	4800d1cc <dhry_prints>
4800c504:	e3073754 	movw	r3, #30548	; 0x7754
4800c508:	e3443802 	movt	r3, #18434	; 0x4802
4800c50c:	e5933000 	ldr	r3, [r3]
4800c510:	e2833010 	add	r3, r3, #16
4800c514:	e1a00003 	mov	r0, r3
4800c518:	eb00032b 	bl	4800d1cc <dhry_prints>
4800c51c:	e3060248 	movw	r0, #25160	; 0x6248
4800c520:	e3440801 	movt	r0, #18433	; 0x4801
4800c524:	eb000328 	bl	4800d1cc <dhry_prints>
4800c528:	e306054c 	movw	r0, #25932	; 0x654c
4800c52c:	e3440801 	movt	r0, #18433	; 0x4801
4800c530:	eb000325 	bl	4800d1cc <dhry_prints>
4800c534:	e3060584 	movw	r0, #25988	; 0x6584
4800c538:	e3440801 	movt	r0, #18433	; 0x4801
4800c53c:	eb000322 	bl	4800d1cc <dhry_prints>
4800c540:	e30604a0 	movw	r0, #25760	; 0x64a0
4800c544:	e3440801 	movt	r0, #18433	; 0x4801
4800c548:	eb00031f 	bl	4800d1cc <dhry_prints>
4800c54c:	e3073748 	movw	r3, #30536	; 0x7748
4800c550:	e3443802 	movt	r3, #18434	; 0x4802
4800c554:	e5933000 	ldr	r3, [r3]
4800c558:	e5933000 	ldr	r3, [r3]
4800c55c:	e1a00003 	mov	r0, r3
4800c560:	eb000321 	bl	4800d1ec <dhry_printi>
4800c564:	e3060248 	movw	r0, #25160	; 0x6248
4800c568:	e3440801 	movt	r0, #18433	; 0x4801
4800c56c:	eb000316 	bl	4800d1cc <dhry_prints>
4800c570:	e3060598 	movw	r0, #26008	; 0x6598
4800c574:	e3440801 	movt	r0, #18433	; 0x4801
4800c578:	eb000313 	bl	4800d1cc <dhry_prints>
4800c57c:	e30604ec 	movw	r0, #25836	; 0x64ec
4800c580:	e3440801 	movt	r0, #18433	; 0x4801
4800c584:	eb000310 	bl	4800d1cc <dhry_prints>
4800c588:	e3073748 	movw	r3, #30536	; 0x7748
4800c58c:	e3443802 	movt	r3, #18434	; 0x4802
4800c590:	e5933000 	ldr	r3, [r3]
4800c594:	e5d33004 	ldrb	r3, [r3, #4]
4800c598:	e1a00003 	mov	r0, r3
4800c59c:	eb000312 	bl	4800d1ec <dhry_printi>
4800c5a0:	e3060248 	movw	r0, #25160	; 0x6248
4800c5a4:	e3440801 	movt	r0, #18433	; 0x4801
4800c5a8:	eb000307 	bl	4800d1cc <dhry_prints>
4800c5ac:	e30603a8 	movw	r0, #25512	; 0x63a8
4800c5b0:	e3440801 	movt	r0, #18433	; 0x4801
4800c5b4:	eb000304 	bl	4800d1cc <dhry_prints>
4800c5b8:	e3a00000 	mov	r0, #0
4800c5bc:	eb00030a 	bl	4800d1ec <dhry_printi>
4800c5c0:	e3060248 	movw	r0, #25160	; 0x6248
4800c5c4:	e3440801 	movt	r0, #18433	; 0x4801
4800c5c8:	eb0002ff 	bl	4800d1cc <dhry_prints>
4800c5cc:	e3060504 	movw	r0, #25860	; 0x6504
4800c5d0:	e3440801 	movt	r0, #18433	; 0x4801
4800c5d4:	eb0002fc 	bl	4800d1cc <dhry_prints>
4800c5d8:	e3073748 	movw	r3, #30536	; 0x7748
4800c5dc:	e3443802 	movt	r3, #18434	; 0x4802
4800c5e0:	e5933000 	ldr	r3, [r3]
4800c5e4:	e5d33008 	ldrb	r3, [r3, #8]
4800c5e8:	e1a00003 	mov	r0, r3
4800c5ec:	eb0002fe 	bl	4800d1ec <dhry_printi>
4800c5f0:	e3060248 	movw	r0, #25160	; 0x6248
4800c5f4:	e3440801 	movt	r0, #18433	; 0x4801
4800c5f8:	eb0002f3 	bl	4800d1cc <dhry_prints>
4800c5fc:	e30603a8 	movw	r0, #25512	; 0x63a8
4800c600:	e3440801 	movt	r0, #18433	; 0x4801
4800c604:	eb0002f0 	bl	4800d1cc <dhry_prints>
4800c608:	e3a00001 	mov	r0, #1
4800c60c:	eb0002f6 	bl	4800d1ec <dhry_printi>
4800c610:	e3060248 	movw	r0, #25160	; 0x6248
4800c614:	e3440801 	movt	r0, #18433	; 0x4801
4800c618:	eb0002eb 	bl	4800d1cc <dhry_prints>
4800c61c:	e306051c 	movw	r0, #25884	; 0x651c
4800c620:	e3440801 	movt	r0, #18433	; 0x4801
4800c624:	eb0002e8 	bl	4800d1cc <dhry_prints>
4800c628:	e3073748 	movw	r3, #30536	; 0x7748
4800c62c:	e3443802 	movt	r3, #18434	; 0x4802
4800c630:	e5933000 	ldr	r3, [r3]
4800c634:	e593300c 	ldr	r3, [r3, #12]
4800c638:	e1a00003 	mov	r0, r3
4800c63c:	eb0002ea 	bl	4800d1ec <dhry_printi>
4800c640:	e3060248 	movw	r0, #25160	; 0x6248
4800c644:	e3440801 	movt	r0, #18433	; 0x4801
4800c648:	eb0002df 	bl	4800d1cc <dhry_prints>
4800c64c:	e30603a8 	movw	r0, #25512	; 0x63a8
4800c650:	e3440801 	movt	r0, #18433	; 0x4801
4800c654:	eb0002dc 	bl	4800d1cc <dhry_prints>
4800c658:	e3a00012 	mov	r0, #18
4800c65c:	eb0002e2 	bl	4800d1ec <dhry_printi>
4800c660:	e3060248 	movw	r0, #25160	; 0x6248
4800c664:	e3440801 	movt	r0, #18433	; 0x4801
4800c668:	eb0002d7 	bl	4800d1cc <dhry_prints>
4800c66c:	e3060534 	movw	r0, #25908	; 0x6534
4800c670:	e3440801 	movt	r0, #18433	; 0x4801
4800c674:	eb0002d4 	bl	4800d1cc <dhry_prints>
4800c678:	e3073748 	movw	r3, #30536	; 0x7748
4800c67c:	e3443802 	movt	r3, #18434	; 0x4802
4800c680:	e5933000 	ldr	r3, [r3]
4800c684:	e2833010 	add	r3, r3, #16
4800c688:	e1a00003 	mov	r0, r3
4800c68c:	eb0002ce 	bl	4800d1cc <dhry_prints>
4800c690:	e3060248 	movw	r0, #25160	; 0x6248
4800c694:	e3440801 	movt	r0, #18433	; 0x4801
4800c698:	eb0002cb 	bl	4800d1cc <dhry_prints>
4800c69c:	e306054c 	movw	r0, #25932	; 0x654c
4800c6a0:	e3440801 	movt	r0, #18433	; 0x4801
4800c6a4:	eb0002c8 	bl	4800d1cc <dhry_prints>
4800c6a8:	e30605d8 	movw	r0, #26072	; 0x65d8
4800c6ac:	e3440801 	movt	r0, #18433	; 0x4801
4800c6b0:	eb0002c5 	bl	4800d1cc <dhry_prints>
4800c6b4:	e51b3018 	ldr	r3, [fp, #-24]
4800c6b8:	e1a00003 	mov	r0, r3
4800c6bc:	eb0002ca 	bl	4800d1ec <dhry_printi>
4800c6c0:	e3060248 	movw	r0, #25160	; 0x6248
4800c6c4:	e3440801 	movt	r0, #18433	; 0x4801
4800c6c8:	eb0002bf 	bl	4800d1cc <dhry_prints>
4800c6cc:	e30603a8 	movw	r0, #25512	; 0x63a8
4800c6d0:	e3440801 	movt	r0, #18433	; 0x4801
4800c6d4:	eb0002bc 	bl	4800d1cc <dhry_prints>
4800c6d8:	e3a00005 	mov	r0, #5
4800c6dc:	eb0002c2 	bl	4800d1ec <dhry_printi>
4800c6e0:	e3060248 	movw	r0, #25160	; 0x6248
4800c6e4:	e3440801 	movt	r0, #18433	; 0x4801
4800c6e8:	eb0002b7 	bl	4800d1cc <dhry_prints>
4800c6ec:	e30605f0 	movw	r0, #26096	; 0x65f0
4800c6f0:	e3440801 	movt	r0, #18433	; 0x4801
4800c6f4:	eb0002b4 	bl	4800d1cc <dhry_prints>
4800c6f8:	e1a00004 	mov	r0, r4
4800c6fc:	eb0002ba 	bl	4800d1ec <dhry_printi>
4800c700:	e3060248 	movw	r0, #25160	; 0x6248
4800c704:	e3440801 	movt	r0, #18433	; 0x4801
4800c708:	eb0002af 	bl	4800d1cc <dhry_prints>
4800c70c:	e30603a8 	movw	r0, #25512	; 0x63a8
4800c710:	e3440801 	movt	r0, #18433	; 0x4801
4800c714:	eb0002ac 	bl	4800d1cc <dhry_prints>
4800c718:	e3a0000d 	mov	r0, #13
4800c71c:	eb0002b2 	bl	4800d1ec <dhry_printi>
4800c720:	e3060248 	movw	r0, #25160	; 0x6248
4800c724:	e3440801 	movt	r0, #18433	; 0x4801
4800c728:	eb0002a7 	bl	4800d1cc <dhry_prints>
4800c72c:	e3060608 	movw	r0, #26120	; 0x6608
4800c730:	e3440801 	movt	r0, #18433	; 0x4801
4800c734:	eb0002a4 	bl	4800d1cc <dhry_prints>
4800c738:	e51b301c 	ldr	r3, [fp, #-28]
4800c73c:	e1a00003 	mov	r0, r3
4800c740:	eb0002a9 	bl	4800d1ec <dhry_printi>
4800c744:	e3060248 	movw	r0, #25160	; 0x6248
4800c748:	e3440801 	movt	r0, #18433	; 0x4801
4800c74c:	eb00029e 	bl	4800d1cc <dhry_prints>
4800c750:	e30603a8 	movw	r0, #25512	; 0x63a8
4800c754:	e3440801 	movt	r0, #18433	; 0x4801
4800c758:	eb00029b 	bl	4800d1cc <dhry_prints>
4800c75c:	e3a00007 	mov	r0, #7
4800c760:	eb0002a1 	bl	4800d1ec <dhry_printi>
4800c764:	e3060248 	movw	r0, #25160	; 0x6248
4800c768:	e3440801 	movt	r0, #18433	; 0x4801
4800c76c:	eb000296 	bl	4800d1cc <dhry_prints>
4800c770:	e3060620 	movw	r0, #26144	; 0x6620
4800c774:	e3440801 	movt	r0, #18433	; 0x4801
4800c778:	eb000293 	bl	4800d1cc <dhry_prints>
4800c77c:	e55b301d 	ldrb	r3, [fp, #-29]
4800c780:	e1a00003 	mov	r0, r3
4800c784:	eb000298 	bl	4800d1ec <dhry_printi>
4800c788:	e3060248 	movw	r0, #25160	; 0x6248
4800c78c:	e3440801 	movt	r0, #18433	; 0x4801
4800c790:	eb00028d 	bl	4800d1cc <dhry_prints>
4800c794:	e30603a8 	movw	r0, #25512	; 0x63a8
4800c798:	e3440801 	movt	r0, #18433	; 0x4801
4800c79c:	eb00028a 	bl	4800d1cc <dhry_prints>
4800c7a0:	e3a00001 	mov	r0, #1
4800c7a4:	eb000290 	bl	4800d1ec <dhry_printi>
4800c7a8:	e3060248 	movw	r0, #25160	; 0x6248
4800c7ac:	e3440801 	movt	r0, #18433	; 0x4801
4800c7b0:	eb000285 	bl	4800d1cc <dhry_prints>
4800c7b4:	e3060638 	movw	r0, #26168	; 0x6638
4800c7b8:	e3440801 	movt	r0, #18433	; 0x4801
4800c7bc:	eb000282 	bl	4800d1cc <dhry_prints>
4800c7c0:	e24b303c 	sub	r3, fp, #60	; 0x3c
4800c7c4:	e1a00003 	mov	r0, r3
4800c7c8:	eb00027f 	bl	4800d1cc <dhry_prints>
4800c7cc:	e3060248 	movw	r0, #25160	; 0x6248
4800c7d0:	e3440801 	movt	r0, #18433	; 0x4801
4800c7d4:	eb00027c 	bl	4800d1cc <dhry_prints>
4800c7d8:	e3060650 	movw	r0, #26192	; 0x6650
4800c7dc:	e3440801 	movt	r0, #18433	; 0x4801
4800c7e0:	eb000279 	bl	4800d1cc <dhry_prints>
4800c7e4:	e3060688 	movw	r0, #26248	; 0x6688
4800c7e8:	e3440801 	movt	r0, #18433	; 0x4801
4800c7ec:	eb000276 	bl	4800d1cc <dhry_prints>
4800c7f0:	e24b305c 	sub	r3, fp, #92	; 0x5c
4800c7f4:	e1a00003 	mov	r0, r3
4800c7f8:	eb000273 	bl	4800d1cc <dhry_prints>
4800c7fc:	e3060248 	movw	r0, #25160	; 0x6248
4800c800:	e3440801 	movt	r0, #18433	; 0x4801
4800c804:	eb000270 	bl	4800d1cc <dhry_prints>
4800c808:	e30606a0 	movw	r0, #26272	; 0x66a0
4800c80c:	e3440801 	movt	r0, #18433	; 0x4801
4800c810:	eb00026d 	bl	4800d1cc <dhry_prints>
4800c814:	e3060248 	movw	r0, #25160	; 0x6248
4800c818:	e3440801 	movt	r0, #18433	; 0x4801
4800c81c:	eb00026a 	bl	4800d1cc <dhry_prints>
4800c820:	e3073740 	movw	r3, #30528	; 0x7740
4800c824:	e3443802 	movt	r3, #18434	; 0x4802
4800c828:	e1c300d0 	ldrd	r0, [r3]
4800c82c:	e3053028 	movw	r3, #20520	; 0x5028
4800c830:	e3443802 	movt	r3, #18434	; 0x4802
4800c834:	e1c320d0 	ldrd	r2, [r3]
4800c838:	e0500002 	subs	r0, r0, r2
4800c83c:	e0c11003 	sbc	r1, r1, r3
4800c840:	e3053020 	movw	r3, #20512	; 0x5020
4800c844:	e3443802 	movt	r3, #18434	; 0x4802
4800c848:	e1c300f0 	strd	r0, [r3]
4800c84c:	e3053020 	movw	r3, #20512	; 0x5020
4800c850:	e3443802 	movt	r3, #18434	; 0x4802
4800c854:	e1c300d0 	ldrd	r0, [r3]
4800c858:	e304223f 	movw	r2, #16959	; 0x423f
4800c85c:	e340200f 	movt	r2, #15
4800c860:	e3a03000 	mov	r3, #0
4800c864:	e1510003 	cmp	r1, r3
4800c868:	01500002 	cmpeq	r0, r2
4800c86c:	8a000009 	bhi	4800c898 <dhry_main+0x9d8>
4800c870:	e30606d8 	movw	r0, #26328	; 0x66d8
4800c874:	e3440801 	movt	r0, #18433	; 0x4801
4800c878:	eb000253 	bl	4800d1cc <dhry_prints>
4800c87c:	e3060710 	movw	r0, #26384	; 0x6710
4800c880:	e3440801 	movt	r0, #18433	; 0x4801
4800c884:	eb000250 	bl	4800d1cc <dhry_prints>
4800c888:	e3060248 	movw	r0, #25160	; 0x6248
4800c88c:	e3440801 	movt	r0, #18433	; 0x4801
4800c890:	eb00024d 	bl	4800d1cc <dhry_prints>
4800c894:	ea00003c 	b	4800c98c <dhry_main+0xacc>
4800c898:	e3053020 	movw	r3, #20512	; 0x5020
4800c89c:	e3443802 	movt	r3, #18434	; 0x4802
4800c8a0:	e1c320d0 	ldrd	r2, [r3]
4800c8a4:	e1a00002 	mov	r0, r2
4800c8a8:	e1a01003 	mov	r1, r3
4800c8ac:	eb0001fc 	bl	4800d0a4 <dhry_to_microsecs>
4800c8b0:	e1a02000 	mov	r2, r0
4800c8b4:	e3053018 	movw	r3, #20504	; 0x5018
4800c8b8:	e3443802 	movt	r3, #18434	; 0x4802
4800c8bc:	e5832000 	str	r2, [r3]
4800c8c0:	e3053020 	movw	r3, #20512	; 0x5020
4800c8c4:	e3443802 	movt	r3, #18434	; 0x4802
4800c8c8:	e1c320d0 	ldrd	r2, [r3]
4800c8cc:	e1a00002 	mov	r0, r2
4800c8d0:	e1a01003 	mov	r1, r3
4800c8d4:	e1a02007 	mov	r2, r7
4800c8d8:	eb0001fa 	bl	4800d0c8 <dhry_iter_per_sec>
4800c8dc:	e1a02000 	mov	r2, r0
4800c8e0:	e305301c 	movw	r3, #20508	; 0x501c
4800c8e4:	e3443802 	movt	r3, #18434	; 0x4802
4800c8e8:	e5832000 	str	r2, [r3]
4800c8ec:	e3060730 	movw	r0, #26416	; 0x6730
4800c8f0:	e3440801 	movt	r0, #18433	; 0x4801
4800c8f4:	eb000234 	bl	4800d1cc <dhry_prints>
4800c8f8:	e3053018 	movw	r3, #20504	; 0x5018
4800c8fc:	e3443802 	movt	r3, #18434	; 0x4802
4800c900:	e5933000 	ldr	r3, [r3]
4800c904:	e1a00003 	mov	r0, r3
4800c908:	eb000237 	bl	4800d1ec <dhry_printi>
4800c90c:	e3060760 	movw	r0, #26464	; 0x6760
4800c910:	e3440801 	movt	r0, #18433	; 0x4801
4800c914:	eb00022c 	bl	4800d1cc <dhry_prints>
4800c918:	e3060764 	movw	r0, #26468	; 0x6764
4800c91c:	e3440801 	movt	r0, #18433	; 0x4801
4800c920:	eb000229 	bl	4800d1cc <dhry_prints>
4800c924:	e305301c 	movw	r3, #20508	; 0x501c
4800c928:	e3443802 	movt	r3, #18434	; 0x4802
4800c92c:	e5933000 	ldr	r3, [r3]
4800c930:	e1a00003 	mov	r0, r3
4800c934:	eb00022c 	bl	4800d1ec <dhry_printi>
4800c938:	e3060760 	movw	r0, #26464	; 0x6760
4800c93c:	e3440801 	movt	r0, #18433	; 0x4801
4800c940:	eb000221 	bl	4800d1cc <dhry_prints>
4800c944:	e3060794 	movw	r0, #26516	; 0x6794
4800c948:	e3440801 	movt	r0, #18433	; 0x4801
4800c94c:	eb00021e 	bl	4800d1cc <dhry_prints>
4800c950:	e305301c 	movw	r3, #20508	; 0x501c
4800c954:	e3443802 	movt	r3, #18434	; 0x4802
4800c958:	e5933000 	ldr	r3, [r3]
4800c95c:	e1a00003 	mov	r0, r3
4800c960:	e30016dd 	movw	r1, #1757	; 0x6dd
4800c964:	ebfffd2a 	bl	4800be14 <arm_sdiv32>
4800c968:	e1a03000 	mov	r3, r0
4800c96c:	e1a00003 	mov	r0, r3
4800c970:	eb00021d 	bl	4800d1ec <dhry_printi>
4800c974:	e3060760 	movw	r0, #26464	; 0x6760
4800c978:	e3440801 	movt	r0, #18433	; 0x4801
4800c97c:	eb000212 	bl	4800d1cc <dhry_prints>
4800c980:	e3060248 	movw	r0, #25160	; 0x6248
4800c984:	e3440801 	movt	r0, #18433	; 0x4801
4800c988:	eb00020f 	bl	4800d1cc <dhry_prints>
4800c98c:	e24bd014 	sub	sp, fp, #20
4800c990:	e8bd88f0 	pop	{r4, r5, r6, r7, fp, pc}

4800c994 <Proc_1>:
4800c994:	e92d4830 	push	{r4, r5, fp, lr}
4800c998:	e28db00c 	add	fp, sp, #12
4800c99c:	e1a05000 	mov	r5, r0
4800c9a0:	e5954000 	ldr	r4, [r5]
4800c9a4:	e5952000 	ldr	r2, [r5]
4800c9a8:	e3073754 	movw	r3, #30548	; 0x7754
4800c9ac:	e3443802 	movt	r3, #18434	; 0x4802
4800c9b0:	e5933000 	ldr	r3, [r3]
4800c9b4:	e1a0c002 	mov	ip, r2
4800c9b8:	e1a0e003 	mov	lr, r3
4800c9bc:	e8be000f 	ldm	lr!, {r0, r1, r2, r3}
4800c9c0:	e8ac000f 	stmia	ip!, {r0, r1, r2, r3}
4800c9c4:	e8be000f 	ldm	lr!, {r0, r1, r2, r3}
4800c9c8:	e8ac000f 	stmia	ip!, {r0, r1, r2, r3}
4800c9cc:	e89e000f 	ldm	lr, {r0, r1, r2, r3}
4800c9d0:	e88c000f 	stm	ip, {r0, r1, r2, r3}
4800c9d4:	e3a03005 	mov	r3, #5
4800c9d8:	e585300c 	str	r3, [r5, #12]
4800c9dc:	e595300c 	ldr	r3, [r5, #12]
4800c9e0:	e584300c 	str	r3, [r4, #12]
4800c9e4:	e5953000 	ldr	r3, [r5]
4800c9e8:	e5843000 	str	r3, [r4]
4800c9ec:	e1a03004 	mov	r3, r4
4800c9f0:	e1a00003 	mov	r0, r3
4800c9f4:	eb00003e 	bl	4800caf4 <Proc_3>
4800c9f8:	e5d43004 	ldrb	r3, [r4, #4]
4800c9fc:	e3530000 	cmp	r3, #0
4800ca00:	1a000012 	bne	4800ca50 <Proc_1+0xbc>
4800ca04:	e3a03006 	mov	r3, #6
4800ca08:	e584300c 	str	r3, [r4, #12]
4800ca0c:	e5d52008 	ldrb	r2, [r5, #8]
4800ca10:	e2843008 	add	r3, r4, #8
4800ca14:	e1a00002 	mov	r0, r2
4800ca18:	e1a01003 	mov	r1, r3
4800ca1c:	eb000077 	bl	4800cc00 <Proc_6>
4800ca20:	e3073754 	movw	r3, #30548	; 0x7754
4800ca24:	e3443802 	movt	r3, #18434	; 0x4802
4800ca28:	e5933000 	ldr	r3, [r3]
4800ca2c:	e5933000 	ldr	r3, [r3]
4800ca30:	e5843000 	str	r3, [r4]
4800ca34:	e594200c 	ldr	r2, [r4, #12]
4800ca38:	e284300c 	add	r3, r4, #12
4800ca3c:	e1a00002 	mov	r0, r2
4800ca40:	e3a0100a 	mov	r1, #10
4800ca44:	e1a02003 	mov	r2, r3
4800ca48:	eb0000a2 	bl	4800ccd8 <Proc_7>
4800ca4c:	ea000008 	b	4800ca74 <Proc_1+0xe0>
4800ca50:	e5953000 	ldr	r3, [r5]
4800ca54:	e1a0c005 	mov	ip, r5
4800ca58:	e1a04003 	mov	r4, r3
4800ca5c:	e8b4000f 	ldm	r4!, {r0, r1, r2, r3}
4800ca60:	e8ac000f 	stmia	ip!, {r0, r1, r2, r3}
4800ca64:	e8b4000f 	ldm	r4!, {r0, r1, r2, r3}
4800ca68:	e8ac000f 	stmia	ip!, {r0, r1, r2, r3}
4800ca6c:	e894000f 	ldm	r4, {r0, r1, r2, r3}
4800ca70:	e88c000f 	stm	ip, {r0, r1, r2, r3}
4800ca74:	e8bd8830 	pop	{r4, r5, fp, pc}

4800ca78 <Proc_2>:
4800ca78:	e52db004 	push	{fp}		; (str fp, [sp, #-4]!)
4800ca7c:	e28db000 	add	fp, sp, #0
4800ca80:	e24dd014 	sub	sp, sp, #20
4800ca84:	e50b0010 	str	r0, [fp, #-16]
4800ca88:	e51b3010 	ldr	r3, [fp, #-16]
4800ca8c:	e5933000 	ldr	r3, [r3]
4800ca90:	e283300a 	add	r3, r3, #10
4800ca94:	e50b3008 	str	r3, [fp, #-8]
4800ca98:	e3073750 	movw	r3, #30544	; 0x7750
4800ca9c:	e3443802 	movt	r3, #18434	; 0x4802
4800caa0:	e5d33000 	ldrb	r3, [r3]
4800caa4:	e3530041 	cmp	r3, #65	; 0x41
4800caa8:	1a00000b 	bne	4800cadc <Proc_2+0x64>
4800caac:	e51b3008 	ldr	r3, [fp, #-8]
4800cab0:	e2433001 	sub	r3, r3, #1
4800cab4:	e50b3008 	str	r3, [fp, #-8]
4800cab8:	e307374c 	movw	r3, #30540	; 0x774c
4800cabc:	e3443802 	movt	r3, #18434	; 0x4802
4800cac0:	e5933000 	ldr	r3, [r3]
4800cac4:	e51b2008 	ldr	r2, [fp, #-8]
4800cac8:	e0632002 	rsb	r2, r3, r2
4800cacc:	e51b3010 	ldr	r3, [fp, #-16]
4800cad0:	e5832000 	str	r2, [r3]
4800cad4:	e3a03000 	mov	r3, #0
4800cad8:	e54b3009 	strb	r3, [fp, #-9]
4800cadc:	e55b3009 	ldrb	r3, [fp, #-9]
4800cae0:	e3530000 	cmp	r3, #0
4800cae4:	1affffeb 	bne	4800ca98 <Proc_2+0x20>
4800cae8:	e24bd000 	sub	sp, fp, #0
4800caec:	e49db004 	pop	{fp}		; (ldr fp, [sp], #4)
4800caf0:	e12fff1e 	bx	lr

4800caf4 <Proc_3>:
4800caf4:	e92d4800 	push	{fp, lr}
4800caf8:	e28db004 	add	fp, sp, #4
4800cafc:	e24dd008 	sub	sp, sp, #8
4800cb00:	e50b0008 	str	r0, [fp, #-8]
4800cb04:	e3073754 	movw	r3, #30548	; 0x7754
4800cb08:	e3443802 	movt	r3, #18434	; 0x4802
4800cb0c:	e5933000 	ldr	r3, [r3]
4800cb10:	e3530000 	cmp	r3, #0
4800cb14:	0a000005 	beq	4800cb30 <Proc_3+0x3c>
4800cb18:	e3073754 	movw	r3, #30548	; 0x7754
4800cb1c:	e3443802 	movt	r3, #18434	; 0x4802
4800cb20:	e5933000 	ldr	r3, [r3]
4800cb24:	e5932000 	ldr	r2, [r3]
4800cb28:	e51b3008 	ldr	r3, [fp, #-8]
4800cb2c:	e5832000 	str	r2, [r3]
4800cb30:	e307374c 	movw	r3, #30540	; 0x774c
4800cb34:	e3443802 	movt	r3, #18434	; 0x4802
4800cb38:	e5932000 	ldr	r2, [r3]
4800cb3c:	e3073754 	movw	r3, #30548	; 0x7754
4800cb40:	e3443802 	movt	r3, #18434	; 0x4802
4800cb44:	e5933000 	ldr	r3, [r3]
4800cb48:	e283300c 	add	r3, r3, #12
4800cb4c:	e3a0000a 	mov	r0, #10
4800cb50:	e1a01002 	mov	r1, r2
4800cb54:	e1a02003 	mov	r2, r3
4800cb58:	eb00005e 	bl	4800ccd8 <Proc_7>
4800cb5c:	e24bd004 	sub	sp, fp, #4
4800cb60:	e8bd8800 	pop	{fp, pc}

4800cb64 <Proc_4>:
4800cb64:	e52db004 	push	{fp}		; (str fp, [sp, #-4]!)
4800cb68:	e28db000 	add	fp, sp, #0
4800cb6c:	e24dd00c 	sub	sp, sp, #12
4800cb70:	e3073750 	movw	r3, #30544	; 0x7750
4800cb74:	e3443802 	movt	r3, #18434	; 0x4802
4800cb78:	e5d33000 	ldrb	r3, [r3]
4800cb7c:	e3530041 	cmp	r3, #65	; 0x41
4800cb80:	13a03000 	movne	r3, #0
4800cb84:	03a03001 	moveq	r3, #1
4800cb88:	e6ef3073 	uxtb	r3, r3
4800cb8c:	e50b3008 	str	r3, [fp, #-8]
4800cb90:	e3073820 	movw	r3, #30752	; 0x7820
4800cb94:	e3443802 	movt	r3, #18434	; 0x4802
4800cb98:	e5932000 	ldr	r2, [r3]
4800cb9c:	e51b3008 	ldr	r3, [fp, #-8]
4800cba0:	e1822003 	orr	r2, r2, r3
4800cba4:	e3073820 	movw	r3, #30752	; 0x7820
4800cba8:	e3443802 	movt	r3, #18434	; 0x4802
4800cbac:	e5832000 	str	r2, [r3]
4800cbb0:	e3073751 	movw	r3, #30545	; 0x7751
4800cbb4:	e3443802 	movt	r3, #18434	; 0x4802
4800cbb8:	e3a02042 	mov	r2, #66	; 0x42
4800cbbc:	e5c32000 	strb	r2, [r3]
4800cbc0:	e24bd000 	sub	sp, fp, #0
4800cbc4:	e49db004 	pop	{fp}		; (ldr fp, [sp], #4)
4800cbc8:	e12fff1e 	bx	lr

4800cbcc <Proc_5>:
4800cbcc:	e52db004 	push	{fp}		; (str fp, [sp, #-4]!)
4800cbd0:	e28db000 	add	fp, sp, #0
4800cbd4:	e3073750 	movw	r3, #30544	; 0x7750
4800cbd8:	e3443802 	movt	r3, #18434	; 0x4802
4800cbdc:	e3a02041 	mov	r2, #65	; 0x41
4800cbe0:	e5c32000 	strb	r2, [r3]
4800cbe4:	e3073820 	movw	r3, #30752	; 0x7820
4800cbe8:	e3443802 	movt	r3, #18434	; 0x4802
4800cbec:	e3a02000 	mov	r2, #0
4800cbf0:	e5832000 	str	r2, [r3]
4800cbf4:	e24bd000 	sub	sp, fp, #0
4800cbf8:	e49db004 	pop	{fp}		; (ldr fp, [sp], #4)
4800cbfc:	e12fff1e 	bx	lr

4800cc00 <Proc_6>:
4800cc00:	e92d4800 	push	{fp, lr}
4800cc04:	e28db004 	add	fp, sp, #4
4800cc08:	e24dd008 	sub	sp, sp, #8
4800cc0c:	e1a03000 	mov	r3, r0
4800cc10:	e50b100c 	str	r1, [fp, #-12]
4800cc14:	e54b3008 	strb	r3, [fp, #-8]
4800cc18:	e51b300c 	ldr	r3, [fp, #-12]
4800cc1c:	e55b2008 	ldrb	r2, [fp, #-8]
4800cc20:	e5c32000 	strb	r2, [r3]
4800cc24:	e55b3008 	ldrb	r3, [fp, #-8]
4800cc28:	e1a00003 	mov	r0, r3
4800cc2c:	eb0000da 	bl	4800cf9c <Func_3>
4800cc30:	e1a03000 	mov	r3, r0
4800cc34:	e3530000 	cmp	r3, #0
4800cc38:	1a000002 	bne	4800cc48 <Proc_6+0x48>
4800cc3c:	e51b300c 	ldr	r3, [fp, #-12]
4800cc40:	e3a02003 	mov	r2, #3
4800cc44:	e5c32000 	strb	r2, [r3]
4800cc48:	e55b3008 	ldrb	r3, [fp, #-8]
4800cc4c:	e3530004 	cmp	r3, #4
4800cc50:	979ff103 	ldrls	pc, [pc, r3, lsl #2]
4800cc54:	ea00001d 	b	4800ccd0 <Proc_6+0xd0>
4800cc58:	4800cc6c 	.word	0x4800cc6c
4800cc5c:	4800cc7c 	.word	0x4800cc7c
4800cc60:	4800ccb0 	.word	0x4800ccb0
4800cc64:	4800ccd0 	.word	0x4800ccd0
4800cc68:	4800ccc0 	.word	0x4800ccc0
4800cc6c:	e51b300c 	ldr	r3, [fp, #-12]
4800cc70:	e3a02000 	mov	r2, #0
4800cc74:	e5c32000 	strb	r2, [r3]
4800cc78:	ea000014 	b	4800ccd0 <Proc_6+0xd0>
4800cc7c:	e307374c 	movw	r3, #30540	; 0x774c
4800cc80:	e3443802 	movt	r3, #18434	; 0x4802
4800cc84:	e5933000 	ldr	r3, [r3]
4800cc88:	e3530064 	cmp	r3, #100	; 0x64
4800cc8c:	da000003 	ble	4800cca0 <Proc_6+0xa0>
4800cc90:	e51b300c 	ldr	r3, [fp, #-12]
4800cc94:	e3a02000 	mov	r2, #0
4800cc98:	e5c32000 	strb	r2, [r3]
4800cc9c:	ea00000b 	b	4800ccd0 <Proc_6+0xd0>
4800cca0:	e51b300c 	ldr	r3, [fp, #-12]
4800cca4:	e3a02003 	mov	r2, #3
4800cca8:	e5c32000 	strb	r2, [r3]
4800ccac:	ea000007 	b	4800ccd0 <Proc_6+0xd0>
4800ccb0:	e51b300c 	ldr	r3, [fp, #-12]
4800ccb4:	e3a02001 	mov	r2, #1
4800ccb8:	e5c32000 	strb	r2, [r3]
4800ccbc:	ea000003 	b	4800ccd0 <Proc_6+0xd0>
4800ccc0:	e51b300c 	ldr	r3, [fp, #-12]
4800ccc4:	e3a02002 	mov	r2, #2
4800ccc8:	e5c32000 	strb	r2, [r3]
4800cccc:	e1a00000 	nop			; (mov r0, r0)
4800ccd0:	e24bd004 	sub	sp, fp, #4
4800ccd4:	e8bd8800 	pop	{fp, pc}

4800ccd8 <Proc_7>:
4800ccd8:	e52db004 	push	{fp}		; (str fp, [sp, #-4]!)
4800ccdc:	e28db000 	add	fp, sp, #0
4800cce0:	e24dd01c 	sub	sp, sp, #28
4800cce4:	e50b0010 	str	r0, [fp, #-16]
4800cce8:	e50b1014 	str	r1, [fp, #-20]
4800ccec:	e50b2018 	str	r2, [fp, #-24]
4800ccf0:	e51b3010 	ldr	r3, [fp, #-16]
4800ccf4:	e2833002 	add	r3, r3, #2
4800ccf8:	e50b3008 	str	r3, [fp, #-8]
4800ccfc:	e51b2014 	ldr	r2, [fp, #-20]
4800cd00:	e51b3008 	ldr	r3, [fp, #-8]
4800cd04:	e0822003 	add	r2, r2, r3
4800cd08:	e51b3018 	ldr	r3, [fp, #-24]
4800cd0c:	e5832000 	str	r2, [r3]
4800cd10:	e24bd000 	sub	sp, fp, #0
4800cd14:	e49db004 	pop	{fp}		; (ldr fp, [sp], #4)
4800cd18:	e12fff1e 	bx	lr

4800cd1c <Proc_8>:
4800cd1c:	e92d0830 	push	{r4, r5, fp}
4800cd20:	e28db008 	add	fp, sp, #8
4800cd24:	e24dd014 	sub	sp, sp, #20
4800cd28:	e50b0010 	str	r0, [fp, #-16]
4800cd2c:	e50b1014 	str	r1, [fp, #-20]
4800cd30:	e50b2018 	str	r2, [fp, #-24]
4800cd34:	e50b301c 	str	r3, [fp, #-28]
4800cd38:	e51b3018 	ldr	r3, [fp, #-24]
4800cd3c:	e2834005 	add	r4, r3, #5
4800cd40:	e1a03004 	mov	r3, r4
4800cd44:	e1a03103 	lsl	r3, r3, #2
4800cd48:	e51b2010 	ldr	r2, [fp, #-16]
4800cd4c:	e0823003 	add	r3, r2, r3
4800cd50:	e51b201c 	ldr	r2, [fp, #-28]
4800cd54:	e5832000 	str	r2, [r3]
4800cd58:	e1a03004 	mov	r3, r4
4800cd5c:	e2833001 	add	r3, r3, #1
4800cd60:	e1a03103 	lsl	r3, r3, #2
4800cd64:	e51b2010 	ldr	r2, [fp, #-16]
4800cd68:	e0823003 	add	r3, r2, r3
4800cd6c:	e1a02004 	mov	r2, r4
4800cd70:	e1a02102 	lsl	r2, r2, #2
4800cd74:	e51b1010 	ldr	r1, [fp, #-16]
4800cd78:	e0812002 	add	r2, r1, r2
4800cd7c:	e5922000 	ldr	r2, [r2]
4800cd80:	e5832000 	str	r2, [r3]
4800cd84:	e1a03004 	mov	r3, r4
4800cd88:	e283301e 	add	r3, r3, #30
4800cd8c:	e1a03103 	lsl	r3, r3, #2
4800cd90:	e51b2010 	ldr	r2, [fp, #-16]
4800cd94:	e0823003 	add	r3, r2, r3
4800cd98:	e5834000 	str	r4, [r3]
4800cd9c:	e1a05004 	mov	r5, r4
4800cda0:	ea000006 	b	4800cdc0 <Proc_8+0xa4>
4800cda4:	e1a03004 	mov	r3, r4
4800cda8:	e3a020c8 	mov	r2, #200	; 0xc8
4800cdac:	e0030392 	mul	r3, r2, r3
4800cdb0:	e51b2014 	ldr	r2, [fp, #-20]
4800cdb4:	e0823003 	add	r3, r2, r3
4800cdb8:	e7834105 	str	r4, [r3, r5, lsl #2]
4800cdbc:	e2855001 	add	r5, r5, #1
4800cdc0:	e2843001 	add	r3, r4, #1
4800cdc4:	e1530005 	cmp	r3, r5
4800cdc8:	aafffff5 	bge	4800cda4 <Proc_8+0x88>
4800cdcc:	e1a03004 	mov	r3, r4
4800cdd0:	e3a020c8 	mov	r2, #200	; 0xc8
4800cdd4:	e0030392 	mul	r3, r2, r3
4800cdd8:	e51b2014 	ldr	r2, [fp, #-20]
4800cddc:	e0823003 	add	r3, r2, r3
4800cde0:	e2442001 	sub	r2, r4, #1
4800cde4:	e1a01004 	mov	r1, r4
4800cde8:	e3a000c8 	mov	r0, #200	; 0xc8
4800cdec:	e0010190 	mul	r1, r0, r1
4800cdf0:	e51b0014 	ldr	r0, [fp, #-20]
4800cdf4:	e0801001 	add	r1, r0, r1
4800cdf8:	e2440001 	sub	r0, r4, #1
4800cdfc:	e7911100 	ldr	r1, [r1, r0, lsl #2]
4800ce00:	e2811001 	add	r1, r1, #1
4800ce04:	e7831102 	str	r1, [r3, r2, lsl #2]
4800ce08:	e1a03004 	mov	r3, r4
4800ce0c:	e3a020c8 	mov	r2, #200	; 0xc8
4800ce10:	e0030392 	mul	r3, r2, r3
4800ce14:	e2833efa 	add	r3, r3, #4000	; 0xfa0
4800ce18:	e51b2014 	ldr	r2, [fp, #-20]
4800ce1c:	e0823003 	add	r3, r2, r3
4800ce20:	e1a02004 	mov	r2, r4
4800ce24:	e1a02102 	lsl	r2, r2, #2
4800ce28:	e51b1010 	ldr	r1, [fp, #-16]
4800ce2c:	e0812002 	add	r2, r1, r2
4800ce30:	e5922000 	ldr	r2, [r2]
4800ce34:	e7832104 	str	r2, [r3, r4, lsl #2]
4800ce38:	e307374c 	movw	r3, #30540	; 0x774c
4800ce3c:	e3443802 	movt	r3, #18434	; 0x4802
4800ce40:	e3a02005 	mov	r2, #5
4800ce44:	e5832000 	str	r2, [r3]
4800ce48:	e24bd008 	sub	sp, fp, #8
4800ce4c:	e8bd0830 	pop	{r4, r5, fp}
4800ce50:	e12fff1e 	bx	lr

4800ce54 <Func_1>:
4800ce54:	e52db004 	push	{fp}		; (str fp, [sp, #-4]!)
4800ce58:	e28db000 	add	fp, sp, #0
4800ce5c:	e24dd014 	sub	sp, sp, #20
4800ce60:	e1a02000 	mov	r2, r0
4800ce64:	e1a03001 	mov	r3, r1
4800ce68:	e54b2010 	strb	r2, [fp, #-16]
4800ce6c:	e54b3014 	strb	r3, [fp, #-20]
4800ce70:	e55b3010 	ldrb	r3, [fp, #-16]
4800ce74:	e54b3005 	strb	r3, [fp, #-5]
4800ce78:	e55b3005 	ldrb	r3, [fp, #-5]
4800ce7c:	e54b3006 	strb	r3, [fp, #-6]
4800ce80:	e55b2006 	ldrb	r2, [fp, #-6]
4800ce84:	e55b3014 	ldrb	r3, [fp, #-20]
4800ce88:	e1520003 	cmp	r2, r3
4800ce8c:	0a000001 	beq	4800ce98 <Func_1+0x44>
4800ce90:	e3a03000 	mov	r3, #0
4800ce94:	ea000004 	b	4800ceac <Func_1+0x58>
4800ce98:	e3073750 	movw	r3, #30544	; 0x7750
4800ce9c:	e3443802 	movt	r3, #18434	; 0x4802
4800cea0:	e55b2005 	ldrb	r2, [fp, #-5]
4800cea4:	e5c32000 	strb	r2, [r3]
4800cea8:	e3a03001 	mov	r3, #1
4800ceac:	e1a00003 	mov	r0, r3
4800ceb0:	e24bd000 	sub	sp, fp, #0
4800ceb4:	e49db004 	pop	{fp}		; (ldr fp, [sp], #4)
4800ceb8:	e12fff1e 	bx	lr

4800cebc <Func_2>:
4800cebc:	e92d4810 	push	{r4, fp, lr}
4800cec0:	e28db008 	add	fp, sp, #8
4800cec4:	e24dd014 	sub	sp, sp, #20
4800cec8:	e50b0018 	str	r0, [fp, #-24]
4800cecc:	e50b101c 	str	r1, [fp, #-28]
4800ced0:	e3a04002 	mov	r4, #2
4800ced4:	ea000012 	b	4800cf24 <Func_2+0x68>
4800ced8:	e1a03004 	mov	r3, r4
4800cedc:	e51b2018 	ldr	r2, [fp, #-24]
4800cee0:	e0823003 	add	r3, r2, r3
4800cee4:	e5d33000 	ldrb	r3, [r3]
4800cee8:	e1a02003 	mov	r2, r3
4800ceec:	e1a03004 	mov	r3, r4
4800cef0:	e2833001 	add	r3, r3, #1
4800cef4:	e51b101c 	ldr	r1, [fp, #-28]
4800cef8:	e0813003 	add	r3, r1, r3
4800cefc:	e5d33000 	ldrb	r3, [r3]
4800cf00:	e1a00002 	mov	r0, r2
4800cf04:	e1a01003 	mov	r1, r3
4800cf08:	ebffffd1 	bl	4800ce54 <Func_1>
4800cf0c:	e1a03000 	mov	r3, r0
4800cf10:	e3530000 	cmp	r3, #0
4800cf14:	1a000002 	bne	4800cf24 <Func_2+0x68>
4800cf18:	e3a03041 	mov	r3, #65	; 0x41
4800cf1c:	e54b300d 	strb	r3, [fp, #-13]
4800cf20:	e2844001 	add	r4, r4, #1
4800cf24:	e3540002 	cmp	r4, #2
4800cf28:	daffffea 	ble	4800ced8 <Func_2+0x1c>
4800cf2c:	e55b300d 	ldrb	r3, [fp, #-13]
4800cf30:	e3530056 	cmp	r3, #86	; 0x56
4800cf34:	9a000003 	bls	4800cf48 <Func_2+0x8c>
4800cf38:	e55b300d 	ldrb	r3, [fp, #-13]
4800cf3c:	e3530059 	cmp	r3, #89	; 0x59
4800cf40:	8a000000 	bhi	4800cf48 <Func_2+0x8c>
4800cf44:	e3a04007 	mov	r4, #7
4800cf48:	e55b300d 	ldrb	r3, [fp, #-13]
4800cf4c:	e3530052 	cmp	r3, #82	; 0x52
4800cf50:	1a000001 	bne	4800cf5c <Func_2+0xa0>
4800cf54:	e3a03001 	mov	r3, #1
4800cf58:	ea00000c 	b	4800cf90 <Func_2+0xd4>
4800cf5c:	e51b0018 	ldr	r0, [fp, #-24]
4800cf60:	e51b101c 	ldr	r1, [fp, #-28]
4800cf64:	eb000074 	bl	4800d13c <dhry_strcmp>
4800cf68:	e1a03000 	mov	r3, r0
4800cf6c:	e3530000 	cmp	r3, #0
4800cf70:	da000005 	ble	4800cf8c <Func_2+0xd0>
4800cf74:	e2844007 	add	r4, r4, #7
4800cf78:	e307374c 	movw	r3, #30540	; 0x774c
4800cf7c:	e3443802 	movt	r3, #18434	; 0x4802
4800cf80:	e5834000 	str	r4, [r3]
4800cf84:	e3a03001 	mov	r3, #1
4800cf88:	ea000000 	b	4800cf90 <Func_2+0xd4>
4800cf8c:	e3a03000 	mov	r3, #0
4800cf90:	e1a00003 	mov	r0, r3
4800cf94:	e24bd008 	sub	sp, fp, #8
4800cf98:	e8bd8810 	pop	{r4, fp, pc}

4800cf9c <Func_3>:
4800cf9c:	e52db004 	push	{fp}		; (str fp, [sp, #-4]!)
4800cfa0:	e28db000 	add	fp, sp, #0
4800cfa4:	e24dd014 	sub	sp, sp, #20
4800cfa8:	e1a03000 	mov	r3, r0
4800cfac:	e54b300d 	strb	r3, [fp, #-13]
4800cfb0:	e55b300d 	ldrb	r3, [fp, #-13]
4800cfb4:	e54b3005 	strb	r3, [fp, #-5]
4800cfb8:	e55b3005 	ldrb	r3, [fp, #-5]
4800cfbc:	e3530002 	cmp	r3, #2
4800cfc0:	1a000001 	bne	4800cfcc <Func_3+0x30>
4800cfc4:	e3a03001 	mov	r3, #1
4800cfc8:	ea000000 	b	4800cfd0 <Func_3+0x34>
4800cfcc:	e3a03000 	mov	r3, #0
4800cfd0:	e1a00003 	mov	r0, r3
4800cfd4:	e24bd000 	sub	sp, fp, #0
4800cfd8:	e49db004 	pop	{fp}		; (ldr fp, [sp], #4)
4800cfdc:	e12fff1e 	bx	lr

4800cfe0 <arm_timer_timestamp>:
4800cfe0:	e92d4800 	push	{fp, lr}
4800cfe4:	e28db004 	add	fp, sp, #4
4800cfe8:	ebffe4a1 	bl	48006274 <arm_board_timer_timestamp>
4800cfec:	e1a02000 	mov	r2, r0
4800cff0:	e1a03001 	mov	r3, r1
4800cff4:	e1a00002 	mov	r0, r2
4800cff8:	e1a01003 	mov	r1, r3
4800cffc:	e8bd8800 	pop	{fp, pc}

4800d000 <arm_udiv64>:
4800d000:	e92d4800 	push	{fp, lr}
4800d004:	e28db004 	add	fp, sp, #4
4800d008:	e24dd018 	sub	sp, sp, #24
4800d00c:	e14b00fc 	strd	r0, [fp, #-12]
4800d010:	e14b21f4 	strd	r2, [fp, #-20]	; 0xffffffec
4800d014:	e3a03000 	mov	r3, #0
4800d018:	e58d3000 	str	r3, [sp]
4800d01c:	e14b00dc 	ldrd	r0, [fp, #-12]
4800d020:	e14b21d4 	ldrd	r2, [fp, #-20]	; 0xffffffec
4800d024:	ebfffa04 	bl	4800b83c <do_udiv64>
4800d028:	e1a02000 	mov	r2, r0
4800d02c:	e1a03001 	mov	r3, r1
4800d030:	e1a00002 	mov	r0, r2
4800d034:	e1a01003 	mov	r1, r3
4800d038:	e24bd004 	sub	sp, fp, #4
4800d03c:	e8bd8800 	pop	{fp, pc}

4800d040 <dhry_malloc>:
4800d040:	e92d4800 	push	{fp, lr}
4800d044:	e28db004 	add	fp, sp, #4
4800d048:	e24dd008 	sub	sp, sp, #8
4800d04c:	e50b0008 	str	r0, [fp, #-8]
4800d050:	e51b0008 	ldr	r0, [fp, #-8]
4800d054:	ebfff0af 	bl	48009318 <arm_malloc>
4800d058:	e1a03000 	mov	r3, r0
4800d05c:	e1a00003 	mov	r0, r3
4800d060:	e24bd004 	sub	sp, fp, #4
4800d064:	e8bd8800 	pop	{fp, pc}

4800d068 <dhry_timestamp>:
4800d068:	e92d4800 	push	{fp, lr}
4800d06c:	e28db004 	add	fp, sp, #4
4800d070:	ebffffda 	bl	4800cfe0 <arm_timer_timestamp>
4800d074:	e1a02000 	mov	r2, r0
4800d078:	e1a03001 	mov	r3, r1
4800d07c:	e1a00002 	mov	r0, r2
4800d080:	e1a01003 	mov	r1, r3
4800d084:	e3a02ffa 	mov	r2, #1000	; 0x3e8
4800d088:	e3a03000 	mov	r3, #0
4800d08c:	ebffffdb 	bl	4800d000 <arm_udiv64>
4800d090:	e1a02000 	mov	r2, r0
4800d094:	e1a03001 	mov	r3, r1
4800d098:	e1a00002 	mov	r0, r2
4800d09c:	e1a01003 	mov	r1, r3
4800d0a0:	e8bd8800 	pop	{fp, pc}

4800d0a4 <dhry_to_microsecs>:
4800d0a4:	e52db004 	push	{fp}		; (str fp, [sp, #-4]!)
4800d0a8:	e28db000 	add	fp, sp, #0
4800d0ac:	e24dd00c 	sub	sp, sp, #12
4800d0b0:	e14b00fc 	strd	r0, [fp, #-12]
4800d0b4:	e51b300c 	ldr	r3, [fp, #-12]
4800d0b8:	e1a00003 	mov	r0, r3
4800d0bc:	e24bd000 	sub	sp, fp, #0
4800d0c0:	e49db004 	pop	{fp}		; (ldr fp, [sp], #4)
4800d0c4:	e12fff1e 	bx	lr

4800d0c8 <dhry_iter_per_sec>:
4800d0c8:	e92d4800 	push	{fp, lr}
4800d0cc:	e28db004 	add	fp, sp, #4
4800d0d0:	e24dd010 	sub	sp, sp, #16
4800d0d4:	e14b00fc 	strd	r0, [fp, #-12]
4800d0d8:	e50b2010 	str	r2, [fp, #-16]
4800d0dc:	e51b3010 	ldr	r3, [fp, #-16]
4800d0e0:	e1a02003 	mov	r2, r3
4800d0e4:	e1a03fc2 	asr	r3, r2, #31
4800d0e8:	e3041240 	movw	r1, #16960	; 0x4240
4800d0ec:	e340100f 	movt	r1, #15
4800d0f0:	e0000391 	mul	r0, r1, r3
4800d0f4:	e3a01000 	mov	r1, #0
4800d0f8:	e0010291 	mul	r1, r1, r2
4800d0fc:	e0800001 	add	r0, r0, r1
4800d100:	e3041240 	movw	r1, #16960	; 0x4240
4800d104:	e340100f 	movt	r1, #15
4800d108:	e0832192 	umull	r2, r3, r2, r1
4800d10c:	e0801003 	add	r1, r0, r3
4800d110:	e1a03001 	mov	r3, r1
4800d114:	e1a00002 	mov	r0, r2
4800d118:	e1a01003 	mov	r1, r3
4800d11c:	e14b20dc 	ldrd	r2, [fp, #-12]
4800d120:	ebffffb6 	bl	4800d000 <arm_udiv64>
4800d124:	e1a02000 	mov	r2, r0
4800d128:	e1a03001 	mov	r3, r1
4800d12c:	e1a03002 	mov	r3, r2
4800d130:	e1a00003 	mov	r0, r3
4800d134:	e24bd004 	sub	sp, fp, #4
4800d138:	e8bd8800 	pop	{fp, pc}

4800d13c <dhry_strcmp>:
4800d13c:	e92d4800 	push	{fp, lr}
4800d140:	e28db004 	add	fp, sp, #4
4800d144:	e24dd008 	sub	sp, sp, #8
4800d148:	e50b0008 	str	r0, [fp, #-8]
4800d14c:	e50b100c 	str	r1, [fp, #-12]
4800d150:	e51b0008 	ldr	r0, [fp, #-8]
4800d154:	e51b100c 	ldr	r1, [fp, #-12]
4800d158:	ebfff72e 	bl	4800ae18 <arm_strcmp>
4800d15c:	e1a03000 	mov	r3, r0
4800d160:	e1a00003 	mov	r0, r3
4800d164:	e24bd004 	sub	sp, fp, #4
4800d168:	e8bd8800 	pop	{fp, pc}

4800d16c <dhry_strcpy>:
4800d16c:	e92d4800 	push	{fp, lr}
4800d170:	e28db004 	add	fp, sp, #4
4800d174:	e24dd008 	sub	sp, sp, #8
4800d178:	e50b0008 	str	r0, [fp, #-8]
4800d17c:	e50b100c 	str	r1, [fp, #-12]
4800d180:	e51b0008 	ldr	r0, [fp, #-8]
4800d184:	e51b100c 	ldr	r1, [fp, #-12]
4800d188:	ebfff6ee 	bl	4800ad48 <arm_strcpy>
4800d18c:	e24bd004 	sub	sp, fp, #4
4800d190:	e8bd8800 	pop	{fp, pc}

4800d194 <dhry_printc>:
4800d194:	e92d4800 	push	{fp, lr}
4800d198:	e28db004 	add	fp, sp, #4
4800d19c:	e24dd010 	sub	sp, sp, #16
4800d1a0:	e1a03000 	mov	r3, r0
4800d1a4:	e54b300d 	strb	r3, [fp, #-13]
4800d1a8:	e55b300d 	ldrb	r3, [fp, #-13]
4800d1ac:	e54b3008 	strb	r3, [fp, #-8]
4800d1b0:	e3a03000 	mov	r3, #0
4800d1b4:	e54b3007 	strb	r3, [fp, #-7]
4800d1b8:	e24b3008 	sub	r3, fp, #8
4800d1bc:	e1a00003 	mov	r0, r3
4800d1c0:	ebfff195 	bl	4800981c <arm_puts>
4800d1c4:	e24bd004 	sub	sp, fp, #4
4800d1c8:	e8bd8800 	pop	{fp, pc}

4800d1cc <dhry_prints>:
4800d1cc:	e92d4800 	push	{fp, lr}
4800d1d0:	e28db004 	add	fp, sp, #4
4800d1d4:	e24dd008 	sub	sp, sp, #8
4800d1d8:	e50b0008 	str	r0, [fp, #-8]
4800d1dc:	e51b0008 	ldr	r0, [fp, #-8]
4800d1e0:	ebfff18d 	bl	4800981c <arm_puts>
4800d1e4:	e24bd004 	sub	sp, fp, #4
4800d1e8:	e8bd8800 	pop	{fp, pc}

4800d1ec <dhry_printi>:
4800d1ec:	e92d4800 	push	{fp, lr}
4800d1f0:	e28db004 	add	fp, sp, #4
4800d1f4:	e24dd088 	sub	sp, sp, #136	; 0x88
4800d1f8:	e50b0088 	str	r0, [fp, #-136]	; 0x88
4800d1fc:	e24b3084 	sub	r3, fp, #132	; 0x84
4800d200:	e1a00003 	mov	r0, r3
4800d204:	e51b1088 	ldr	r1, [fp, #-136]	; 0x88
4800d208:	ebfff765 	bl	4800afa4 <arm_int2str>
4800d20c:	e24b3084 	sub	r3, fp, #132	; 0x84
4800d210:	e1a00003 	mov	r0, r3
4800d214:	ebfff180 	bl	4800981c <arm_puts>
4800d218:	e24bd004 	sub	sp, fp, #4
4800d21c:	e8bd8800 	pop	{fp, pc}

4800d220 <_fdt_offset_ptr>:
4800d220:	e52db004 	push	{fp}		; (str fp, [sp, #-4]!)
4800d224:	e28db000 	add	fp, sp, #0
4800d228:	e24dd00c 	sub	sp, sp, #12
4800d22c:	e50b0008 	str	r0, [fp, #-8]
4800d230:	e50b100c 	str	r1, [fp, #-12]
4800d234:	e51b3008 	ldr	r3, [fp, #-8]
4800d238:	e5933008 	ldr	r3, [r3, #8]
4800d23c:	e1a02c03 	lsl	r2, r3, #24
4800d240:	e51b3008 	ldr	r3, [fp, #-8]
4800d244:	e5933008 	ldr	r3, [r3, #8]
4800d248:	e2033cff 	and	r3, r3, #65280	; 0xff00
4800d24c:	e1a03403 	lsl	r3, r3, #8
4800d250:	e1822003 	orr	r2, r2, r3
4800d254:	e51b3008 	ldr	r3, [fp, #-8]
4800d258:	e5933008 	ldr	r3, [r3, #8]
4800d25c:	e20338ff 	and	r3, r3, #16711680	; 0xff0000
4800d260:	e1a03423 	lsr	r3, r3, #8
4800d264:	e1822003 	orr	r2, r2, r3
4800d268:	e51b3008 	ldr	r3, [fp, #-8]
4800d26c:	e5933008 	ldr	r3, [r3, #8]
4800d270:	e1a03c23 	lsr	r3, r3, #24
4800d274:	e1822003 	orr	r2, r2, r3
4800d278:	e51b300c 	ldr	r3, [fp, #-12]
4800d27c:	e0823003 	add	r3, r2, r3
4800d280:	e51b2008 	ldr	r2, [fp, #-8]
4800d284:	e0823003 	add	r3, r2, r3
4800d288:	e1a00003 	mov	r0, r3
4800d28c:	e24bd000 	sub	sp, fp, #0
4800d290:	e49db004 	pop	{fp}		; (ldr fp, [sp], #4)
4800d294:	e12fff1e 	bx	lr

4800d298 <fdt_check_header>:
4800d298:	e92d4800 	push	{fp, lr}
4800d29c:	e28db004 	add	fp, sp, #4
4800d2a0:	e24dd008 	sub	sp, sp, #8
4800d2a4:	e50b0008 	str	r0, [fp, #-8]
4800d2a8:	e51b3008 	ldr	r3, [fp, #-8]
4800d2ac:	e5933000 	ldr	r3, [r3]
4800d2b0:	e1a02c03 	lsl	r2, r3, #24
4800d2b4:	e51b3008 	ldr	r3, [fp, #-8]
4800d2b8:	e5933000 	ldr	r3, [r3]
4800d2bc:	e2033cff 	and	r3, r3, #65280	; 0xff00
4800d2c0:	e1a03403 	lsl	r3, r3, #8
4800d2c4:	e1822003 	orr	r2, r2, r3
4800d2c8:	e51b3008 	ldr	r3, [fp, #-8]
4800d2cc:	e5933000 	ldr	r3, [r3]
4800d2d0:	e20338ff 	and	r3, r3, #16711680	; 0xff0000
4800d2d4:	e1a03423 	lsr	r3, r3, #8
4800d2d8:	e1822003 	orr	r2, r2, r3
4800d2dc:	e51b3008 	ldr	r3, [fp, #-8]
4800d2e0:	e5933000 	ldr	r3, [r3]
4800d2e4:	e1a03c23 	lsr	r3, r3, #24
4800d2e8:	e1822003 	orr	r2, r2, r3
4800d2ec:	e30f3eed 	movw	r3, #65261	; 0xfeed
4800d2f0:	e34d300d 	movt	r3, #53261	; 0xd00d
4800d2f4:	e1520003 	cmp	r2, r3
4800d2f8:	1a000029 	bne	4800d3a4 <fdt_check_header+0x10c>
4800d2fc:	e51b3008 	ldr	r3, [fp, #-8]
4800d300:	e5933014 	ldr	r3, [r3, #20]
4800d304:	e1a02c03 	lsl	r2, r3, #24
4800d308:	e51b3008 	ldr	r3, [fp, #-8]
4800d30c:	e5933014 	ldr	r3, [r3, #20]
4800d310:	e2033cff 	and	r3, r3, #65280	; 0xff00
4800d314:	e1a03403 	lsl	r3, r3, #8
4800d318:	e1822003 	orr	r2, r2, r3
4800d31c:	e51b3008 	ldr	r3, [fp, #-8]
4800d320:	e5933014 	ldr	r3, [r3, #20]
4800d324:	e20338ff 	and	r3, r3, #16711680	; 0xff0000
4800d328:	e1a03423 	lsr	r3, r3, #8
4800d32c:	e1822003 	orr	r2, r2, r3
4800d330:	e51b3008 	ldr	r3, [fp, #-8]
4800d334:	e5933014 	ldr	r3, [r3, #20]
4800d338:	e1a03c23 	lsr	r3, r3, #24
4800d33c:	e1823003 	orr	r3, r2, r3
4800d340:	e353000f 	cmp	r3, #15
4800d344:	8a000001 	bhi	4800d350 <fdt_check_header+0xb8>
4800d348:	e3e03009 	mvn	r3, #9
4800d34c:	ea000058 	b	4800d4b4 <fdt_check_header+0x21c>
4800d350:	e51b3008 	ldr	r3, [fp, #-8]
4800d354:	e5933018 	ldr	r3, [r3, #24]
4800d358:	e1a02c03 	lsl	r2, r3, #24
4800d35c:	e51b3008 	ldr	r3, [fp, #-8]
4800d360:	e5933018 	ldr	r3, [r3, #24]
4800d364:	e2033cff 	and	r3, r3, #65280	; 0xff00
4800d368:	e1a03403 	lsl	r3, r3, #8
4800d36c:	e1822003 	orr	r2, r2, r3
4800d370:	e51b3008 	ldr	r3, [fp, #-8]
4800d374:	e5933018 	ldr	r3, [r3, #24]
4800d378:	e20338ff 	and	r3, r3, #16711680	; 0xff0000
4800d37c:	e1a03423 	lsr	r3, r3, #8
4800d380:	e1822003 	orr	r2, r2, r3
4800d384:	e51b3008 	ldr	r3, [fp, #-8]
4800d388:	e5933018 	ldr	r3, [r3, #24]
4800d38c:	e1a03c23 	lsr	r3, r3, #24
4800d390:	e1823003 	orr	r3, r2, r3
4800d394:	e3530011 	cmp	r3, #17
4800d398:	9a000044 	bls	4800d4b0 <fdt_check_header+0x218>
4800d39c:	e3e03009 	mvn	r3, #9
4800d3a0:	ea000043 	b	4800d4b4 <fdt_check_header+0x21c>
4800d3a4:	e51b3008 	ldr	r3, [fp, #-8]
4800d3a8:	e5933000 	ldr	r3, [r3]
4800d3ac:	e1a02c03 	lsl	r2, r3, #24
4800d3b0:	e51b3008 	ldr	r3, [fp, #-8]
4800d3b4:	e5933000 	ldr	r3, [r3]
4800d3b8:	e2033cff 	and	r3, r3, #65280	; 0xff00
4800d3bc:	e1a03403 	lsl	r3, r3, #8
4800d3c0:	e1822003 	orr	r2, r2, r3
4800d3c4:	e51b3008 	ldr	r3, [fp, #-8]
4800d3c8:	e5933000 	ldr	r3, [r3]
4800d3cc:	e20338ff 	and	r3, r3, #16711680	; 0xff0000
4800d3d0:	e1a03423 	lsr	r3, r3, #8
4800d3d4:	e1822003 	orr	r2, r2, r3
4800d3d8:	e51b3008 	ldr	r3, [fp, #-8]
4800d3dc:	e5933000 	ldr	r3, [r3]
4800d3e0:	e1a03c23 	lsr	r3, r3, #24
4800d3e4:	e1822003 	orr	r2, r2, r3
4800d3e8:	e3003112 	movw	r3, #274	; 0x112
4800d3ec:	e3423ff2 	movt	r3, #12274	; 0x2ff2
4800d3f0:	e1520003 	cmp	r2, r3
4800d3f4:	1a000014 	bne	4800d44c <fdt_check_header+0x1b4>
4800d3f8:	e51b3008 	ldr	r3, [fp, #-8]
4800d3fc:	e5933024 	ldr	r3, [r3, #36]	; 0x24
4800d400:	e1a02c03 	lsl	r2, r3, #24
4800d404:	e51b3008 	ldr	r3, [fp, #-8]
4800d408:	e5933024 	ldr	r3, [r3, #36]	; 0x24
4800d40c:	e2033cff 	and	r3, r3, #65280	; 0xff00
4800d410:	e1a03403 	lsl	r3, r3, #8
4800d414:	e1822003 	orr	r2, r2, r3
4800d418:	e51b3008 	ldr	r3, [fp, #-8]
4800d41c:	e5933024 	ldr	r3, [r3, #36]	; 0x24
4800d420:	e20338ff 	and	r3, r3, #16711680	; 0xff0000
4800d424:	e1a03423 	lsr	r3, r3, #8
4800d428:	e1822003 	orr	r2, r2, r3
4800d42c:	e51b3008 	ldr	r3, [fp, #-8]
4800d430:	e5933024 	ldr	r3, [r3, #36]	; 0x24
4800d434:	e1a03c23 	lsr	r3, r3, #24
4800d438:	e1823003 	orr	r3, r2, r3
4800d43c:	e3530000 	cmp	r3, #0
4800d440:	1a00001a 	bne	4800d4b0 <fdt_check_header+0x218>
4800d444:	e3e03006 	mvn	r3, #6
4800d448:	ea000019 	b	4800d4b4 <fdt_check_header+0x21c>
4800d44c:	e51b2008 	ldr	r2, [fp, #-8]
4800d450:	e51b3008 	ldr	r3, [fp, #-8]
4800d454:	e5933000 	ldr	r3, [r3]
4800d458:	e1a01c03 	lsl	r1, r3, #24
4800d45c:	e51b3008 	ldr	r3, [fp, #-8]
4800d460:	e5933000 	ldr	r3, [r3]
4800d464:	e2033cff 	and	r3, r3, #65280	; 0xff00
4800d468:	e1a03403 	lsl	r3, r3, #8
4800d46c:	e1811003 	orr	r1, r1, r3
4800d470:	e51b3008 	ldr	r3, [fp, #-8]
4800d474:	e5933000 	ldr	r3, [r3]
4800d478:	e20338ff 	and	r3, r3, #16711680	; 0xff0000
4800d47c:	e1a03423 	lsr	r3, r3, #8
4800d480:	e1811003 	orr	r1, r1, r3
4800d484:	e51b3008 	ldr	r3, [fp, #-8]
4800d488:	e5933000 	ldr	r3, [r3]
4800d48c:	e1a03c23 	lsr	r3, r3, #24
4800d490:	e1813003 	orr	r3, r1, r3
4800d494:	e30607c4 	movw	r0, #26564	; 0x67c4
4800d498:	e3440801 	movt	r0, #18433	; 0x4801
4800d49c:	e1a01002 	mov	r1, r2
4800d4a0:	e1a02003 	mov	r2, r3
4800d4a4:	ebfff4ca 	bl	4800a7d4 <arm_printf>
4800d4a8:	e3e03008 	mvn	r3, #8
4800d4ac:	ea000000 	b	4800d4b4 <fdt_check_header+0x21c>
4800d4b0:	e3a03000 	mov	r3, #0
4800d4b4:	e1a00003 	mov	r0, r3
4800d4b8:	e24bd004 	sub	sp, fp, #4
4800d4bc:	e8bd8800 	pop	{fp, pc}

4800d4c0 <fdt_offset_ptr>:
4800d4c0:	e92d4800 	push	{fp, lr}
4800d4c4:	e28db004 	add	fp, sp, #4
4800d4c8:	e24dd018 	sub	sp, sp, #24
4800d4cc:	e50b0010 	str	r0, [fp, #-16]
4800d4d0:	e50b1014 	str	r1, [fp, #-20]
4800d4d4:	e50b2018 	str	r2, [fp, #-24]
4800d4d8:	e51b3010 	ldr	r3, [fp, #-16]
4800d4dc:	e5933014 	ldr	r3, [r3, #20]
4800d4e0:	e1a02c03 	lsl	r2, r3, #24
4800d4e4:	e51b3010 	ldr	r3, [fp, #-16]
4800d4e8:	e5933014 	ldr	r3, [r3, #20]
4800d4ec:	e2033cff 	and	r3, r3, #65280	; 0xff00
4800d4f0:	e1a03403 	lsl	r3, r3, #8
4800d4f4:	e1822003 	orr	r2, r2, r3
4800d4f8:	e51b3010 	ldr	r3, [fp, #-16]
4800d4fc:	e5933014 	ldr	r3, [r3, #20]
4800d500:	e20338ff 	and	r3, r3, #16711680	; 0xff0000
4800d504:	e1a03423 	lsr	r3, r3, #8
4800d508:	e1822003 	orr	r2, r2, r3
4800d50c:	e51b3010 	ldr	r3, [fp, #-16]
4800d510:	e5933014 	ldr	r3, [r3, #20]
4800d514:	e1a03c23 	lsr	r3, r3, #24
4800d518:	e1823003 	orr	r3, r2, r3
4800d51c:	e3530010 	cmp	r3, #16
4800d520:	9a00001d 	bls	4800d59c <fdt_offset_ptr+0xdc>
4800d524:	e51b2014 	ldr	r2, [fp, #-20]
4800d528:	e51b3018 	ldr	r3, [fp, #-24]
4800d52c:	e0822003 	add	r2, r2, r3
4800d530:	e51b3014 	ldr	r3, [fp, #-20]
4800d534:	e1520003 	cmp	r2, r3
4800d538:	3a000015 	bcc	4800d594 <fdt_offset_ptr+0xd4>
4800d53c:	e51b2014 	ldr	r2, [fp, #-20]
4800d540:	e51b3018 	ldr	r3, [fp, #-24]
4800d544:	e0822003 	add	r2, r2, r3
4800d548:	e51b3010 	ldr	r3, [fp, #-16]
4800d54c:	e5933024 	ldr	r3, [r3, #36]	; 0x24
4800d550:	e1a01c03 	lsl	r1, r3, #24
4800d554:	e51b3010 	ldr	r3, [fp, #-16]
4800d558:	e5933024 	ldr	r3, [r3, #36]	; 0x24
4800d55c:	e2033cff 	and	r3, r3, #65280	; 0xff00
4800d560:	e1a03403 	lsl	r3, r3, #8
4800d564:	e1811003 	orr	r1, r1, r3
4800d568:	e51b3010 	ldr	r3, [fp, #-16]
4800d56c:	e5933024 	ldr	r3, [r3, #36]	; 0x24
4800d570:	e20338ff 	and	r3, r3, #16711680	; 0xff0000
4800d574:	e1a03423 	lsr	r3, r3, #8
4800d578:	e1811003 	orr	r1, r1, r3
4800d57c:	e51b3010 	ldr	r3, [fp, #-16]
4800d580:	e5933024 	ldr	r3, [r3, #36]	; 0x24
4800d584:	e1a03c23 	lsr	r3, r3, #24
4800d588:	e1813003 	orr	r3, r1, r3
4800d58c:	e1520003 	cmp	r2, r3
4800d590:	9a000001 	bls	4800d59c <fdt_offset_ptr+0xdc>
4800d594:	e3a03000 	mov	r3, #0
4800d598:	ea00000c 	b	4800d5d0 <fdt_offset_ptr+0x110>
4800d59c:	e51b0010 	ldr	r0, [fp, #-16]
4800d5a0:	e51b1014 	ldr	r1, [fp, #-20]
4800d5a4:	ebffff1d 	bl	4800d220 <_fdt_offset_ptr>
4800d5a8:	e50b0008 	str	r0, [fp, #-8]
4800d5ac:	e51b2008 	ldr	r2, [fp, #-8]
4800d5b0:	e51b3018 	ldr	r3, [fp, #-24]
4800d5b4:	e0822003 	add	r2, r2, r3
4800d5b8:	e51b3008 	ldr	r3, [fp, #-8]
4800d5bc:	e1520003 	cmp	r2, r3
4800d5c0:	2a000001 	bcs	4800d5cc <fdt_offset_ptr+0x10c>
4800d5c4:	e3a03000 	mov	r3, #0
4800d5c8:	ea000000 	b	4800d5d0 <fdt_offset_ptr+0x110>
4800d5cc:	e51b3008 	ldr	r3, [fp, #-8]
4800d5d0:	e1a00003 	mov	r0, r3
4800d5d4:	e24bd004 	sub	sp, fp, #4
4800d5d8:	e8bd8800 	pop	{fp, pc}

4800d5dc <fdt_next_tag>:
4800d5dc:	e92d4800 	push	{fp, lr}
4800d5e0:	e28db004 	add	fp, sp, #4
4800d5e4:	e24dd028 	sub	sp, sp, #40	; 0x28
4800d5e8:	e50b0020 	str	r0, [fp, #-32]
4800d5ec:	e50b1024 	str	r1, [fp, #-36]	; 0x24
4800d5f0:	e50b2028 	str	r2, [fp, #-40]	; 0x28
4800d5f4:	e51b3024 	ldr	r3, [fp, #-36]	; 0x24
4800d5f8:	e50b3008 	str	r3, [fp, #-8]
4800d5fc:	e51b3028 	ldr	r3, [fp, #-40]	; 0x28
4800d600:	e3e02007 	mvn	r2, #7
4800d604:	e5832000 	str	r2, [r3]
4800d608:	e51b0020 	ldr	r0, [fp, #-32]
4800d60c:	e51b1008 	ldr	r1, [fp, #-8]
4800d610:	e3a02004 	mov	r2, #4
4800d614:	ebffffa9 	bl	4800d4c0 <fdt_offset_ptr>
4800d618:	e50b000c 	str	r0, [fp, #-12]
4800d61c:	e51b300c 	ldr	r3, [fp, #-12]
4800d620:	e3530000 	cmp	r3, #0
4800d624:	1a000001 	bne	4800d630 <fdt_next_tag+0x54>
4800d628:	e3a03009 	mov	r3, #9
4800d62c:	ea00006f 	b	4800d7f0 <fdt_next_tag+0x214>
4800d630:	e51b300c 	ldr	r3, [fp, #-12]
4800d634:	e5933000 	ldr	r3, [r3]
4800d638:	e1a02c03 	lsl	r2, r3, #24
4800d63c:	e51b300c 	ldr	r3, [fp, #-12]
4800d640:	e5933000 	ldr	r3, [r3]
4800d644:	e2033cff 	and	r3, r3, #65280	; 0xff00
4800d648:	e1a03403 	lsl	r3, r3, #8
4800d64c:	e1822003 	orr	r2, r2, r3
4800d650:	e51b300c 	ldr	r3, [fp, #-12]
4800d654:	e5933000 	ldr	r3, [r3]
4800d658:	e20338ff 	and	r3, r3, #16711680	; 0xff0000
4800d65c:	e1a03423 	lsr	r3, r3, #8
4800d660:	e1822003 	orr	r2, r2, r3
4800d664:	e51b300c 	ldr	r3, [fp, #-12]
4800d668:	e5933000 	ldr	r3, [r3]
4800d66c:	e1a03c23 	lsr	r3, r3, #24
4800d670:	e1823003 	orr	r3, r2, r3
4800d674:	e50b3010 	str	r3, [fp, #-16]
4800d678:	e51b3008 	ldr	r3, [fp, #-8]
4800d67c:	e2833004 	add	r3, r3, #4
4800d680:	e50b3008 	str	r3, [fp, #-8]
4800d684:	e51b3028 	ldr	r3, [fp, #-40]	; 0x28
4800d688:	e3e0200a 	mvn	r2, #10
4800d68c:	e5832000 	str	r2, [r3]
4800d690:	e51b3010 	ldr	r3, [fp, #-16]
4800d694:	e2433001 	sub	r3, r3, #1
4800d698:	e3530008 	cmp	r3, #8
4800d69c:	979ff103 	ldrls	pc, [pc, r3, lsl #2]
4800d6a0:	ea00003d 	b	4800d79c <fdt_next_tag+0x1c0>
4800d6a4:	4800d6c8 	.word	0x4800d6c8
4800d6a8:	4800d7a4 	.word	0x4800d7a4
4800d6ac:	4800d71c 	.word	0x4800d71c
4800d6b0:	4800d7a4 	.word	0x4800d7a4
4800d6b4:	4800d79c 	.word	0x4800d79c
4800d6b8:	4800d79c 	.word	0x4800d79c
4800d6bc:	4800d79c 	.word	0x4800d79c
4800d6c0:	4800d79c 	.word	0x4800d79c
4800d6c4:	4800d7a4 	.word	0x4800d7a4
4800d6c8:	e51b3008 	ldr	r3, [fp, #-8]
4800d6cc:	e2832001 	add	r2, r3, #1
4800d6d0:	e50b2008 	str	r2, [fp, #-8]
4800d6d4:	e51b0020 	ldr	r0, [fp, #-32]
4800d6d8:	e1a01003 	mov	r1, r3
4800d6dc:	e3a02001 	mov	r2, #1
4800d6e0:	ebffff76 	bl	4800d4c0 <fdt_offset_ptr>
4800d6e4:	e50b0014 	str	r0, [fp, #-20]
4800d6e8:	e51b3014 	ldr	r3, [fp, #-20]
4800d6ec:	e3530000 	cmp	r3, #0
4800d6f0:	0a000003 	beq	4800d704 <fdt_next_tag+0x128>
4800d6f4:	e51b3014 	ldr	r3, [fp, #-20]
4800d6f8:	e5d33000 	ldrb	r3, [r3]
4800d6fc:	e3530000 	cmp	r3, #0
4800d700:	1afffff0 	bne	4800d6c8 <fdt_next_tag+0xec>
4800d704:	e51b3014 	ldr	r3, [fp, #-20]
4800d708:	e3530000 	cmp	r3, #0
4800d70c:	1a000001 	bne	4800d718 <fdt_next_tag+0x13c>
4800d710:	e3a03009 	mov	r3, #9
4800d714:	ea000035 	b	4800d7f0 <fdt_next_tag+0x214>
4800d718:	ea000022 	b	4800d7a8 <fdt_next_tag+0x1cc>
4800d71c:	e51b0020 	ldr	r0, [fp, #-32]
4800d720:	e51b1008 	ldr	r1, [fp, #-8]
4800d724:	e3a02004 	mov	r2, #4
4800d728:	ebffff64 	bl	4800d4c0 <fdt_offset_ptr>
4800d72c:	e50b0018 	str	r0, [fp, #-24]
4800d730:	e51b3018 	ldr	r3, [fp, #-24]
4800d734:	e3530000 	cmp	r3, #0
4800d738:	1a000001 	bne	4800d744 <fdt_next_tag+0x168>
4800d73c:	e3a03009 	mov	r3, #9
4800d740:	ea00002a 	b	4800d7f0 <fdt_next_tag+0x214>
4800d744:	e51b3018 	ldr	r3, [fp, #-24]
4800d748:	e5933000 	ldr	r3, [r3]
4800d74c:	e1a02c03 	lsl	r2, r3, #24
4800d750:	e51b3018 	ldr	r3, [fp, #-24]
4800d754:	e5933000 	ldr	r3, [r3]
4800d758:	e2033cff 	and	r3, r3, #65280	; 0xff00
4800d75c:	e1a03403 	lsl	r3, r3, #8
4800d760:	e1822003 	orr	r2, r2, r3
4800d764:	e51b3018 	ldr	r3, [fp, #-24]
4800d768:	e5933000 	ldr	r3, [r3]
4800d76c:	e20338ff 	and	r3, r3, #16711680	; 0xff0000
4800d770:	e1a03423 	lsr	r3, r3, #8
4800d774:	e1822003 	orr	r2, r2, r3
4800d778:	e51b3018 	ldr	r3, [fp, #-24]
4800d77c:	e5933000 	ldr	r3, [r3]
4800d780:	e1a03c23 	lsr	r3, r3, #24
4800d784:	e1822003 	orr	r2, r2, r3
4800d788:	e51b3008 	ldr	r3, [fp, #-8]
4800d78c:	e0823003 	add	r3, r2, r3
4800d790:	e2833008 	add	r3, r3, #8
4800d794:	e50b3008 	str	r3, [fp, #-8]
4800d798:	ea000002 	b	4800d7a8 <fdt_next_tag+0x1cc>
4800d79c:	e3a03009 	mov	r3, #9
4800d7a0:	ea000012 	b	4800d7f0 <fdt_next_tag+0x214>
4800d7a4:	e1a00000 	nop			; (mov r0, r0)
4800d7a8:	e51b2008 	ldr	r2, [fp, #-8]
4800d7ac:	e51b3024 	ldr	r3, [fp, #-36]	; 0x24
4800d7b0:	e0633002 	rsb	r3, r3, r2
4800d7b4:	e51b0020 	ldr	r0, [fp, #-32]
4800d7b8:	e51b1024 	ldr	r1, [fp, #-36]	; 0x24
4800d7bc:	e1a02003 	mov	r2, r3
4800d7c0:	ebffff3e 	bl	4800d4c0 <fdt_offset_ptr>
4800d7c4:	e1a03000 	mov	r3, r0
4800d7c8:	e3530000 	cmp	r3, #0
4800d7cc:	1a000001 	bne	4800d7d8 <fdt_next_tag+0x1fc>
4800d7d0:	e3a03009 	mov	r3, #9
4800d7d4:	ea000005 	b	4800d7f0 <fdt_next_tag+0x214>
4800d7d8:	e51b3008 	ldr	r3, [fp, #-8]
4800d7dc:	e2833003 	add	r3, r3, #3
4800d7e0:	e3c32003 	bic	r2, r3, #3
4800d7e4:	e51b3028 	ldr	r3, [fp, #-40]	; 0x28
4800d7e8:	e5832000 	str	r2, [r3]
4800d7ec:	e51b3010 	ldr	r3, [fp, #-16]
4800d7f0:	e1a00003 	mov	r0, r3
4800d7f4:	e24bd004 	sub	sp, fp, #4
4800d7f8:	e8bd8800 	pop	{fp, pc}

4800d7fc <_fdt_check_node_offset>:
4800d7fc:	e92d4800 	push	{fp, lr}
4800d800:	e28db004 	add	fp, sp, #4
4800d804:	e24dd008 	sub	sp, sp, #8
4800d808:	e50b0008 	str	r0, [fp, #-8]
4800d80c:	e50b100c 	str	r1, [fp, #-12]
4800d810:	e51b300c 	ldr	r3, [fp, #-12]
4800d814:	e3530000 	cmp	r3, #0
4800d818:	ba00000c 	blt	4800d850 <_fdt_check_node_offset+0x54>
4800d81c:	e51b300c 	ldr	r3, [fp, #-12]
4800d820:	e2033003 	and	r3, r3, #3
4800d824:	e3530000 	cmp	r3, #0
4800d828:	1a000008 	bne	4800d850 <_fdt_check_node_offset+0x54>
4800d82c:	e51b200c 	ldr	r2, [fp, #-12]
4800d830:	e24b300c 	sub	r3, fp, #12
4800d834:	e51b0008 	ldr	r0, [fp, #-8]
4800d838:	e1a01002 	mov	r1, r2
4800d83c:	e1a02003 	mov	r2, r3
4800d840:	ebffff65 	bl	4800d5dc <fdt_next_tag>
4800d844:	e1a03000 	mov	r3, r0
4800d848:	e3530001 	cmp	r3, #1
4800d84c:	0a000001 	beq	4800d858 <_fdt_check_node_offset+0x5c>
4800d850:	e3e03003 	mvn	r3, #3
4800d854:	ea000000 	b	4800d85c <_fdt_check_node_offset+0x60>
4800d858:	e51b300c 	ldr	r3, [fp, #-12]
4800d85c:	e1a00003 	mov	r0, r3
4800d860:	e24bd004 	sub	sp, fp, #4
4800d864:	e8bd8800 	pop	{fp, pc}

4800d868 <_fdt_check_prop_offset>:
4800d868:	e92d4800 	push	{fp, lr}
4800d86c:	e28db004 	add	fp, sp, #4
4800d870:	e24dd008 	sub	sp, sp, #8
4800d874:	e50b0008 	str	r0, [fp, #-8]
4800d878:	e50b100c 	str	r1, [fp, #-12]
4800d87c:	e51b300c 	ldr	r3, [fp, #-12]
4800d880:	e3530000 	cmp	r3, #0
4800d884:	ba00000c 	blt	4800d8bc <_fdt_check_prop_offset+0x54>
4800d888:	e51b300c 	ldr	r3, [fp, #-12]
4800d88c:	e2033003 	and	r3, r3, #3
4800d890:	e3530000 	cmp	r3, #0
4800d894:	1a000008 	bne	4800d8bc <_fdt_check_prop_offset+0x54>
4800d898:	e51b200c 	ldr	r2, [fp, #-12]
4800d89c:	e24b300c 	sub	r3, fp, #12
4800d8a0:	e51b0008 	ldr	r0, [fp, #-8]
4800d8a4:	e1a01002 	mov	r1, r2
4800d8a8:	e1a02003 	mov	r2, r3
4800d8ac:	ebffff4a 	bl	4800d5dc <fdt_next_tag>
4800d8b0:	e1a03000 	mov	r3, r0
4800d8b4:	e3530003 	cmp	r3, #3
4800d8b8:	0a000001 	beq	4800d8c4 <_fdt_check_prop_offset+0x5c>
4800d8bc:	e3e03003 	mvn	r3, #3
4800d8c0:	ea000000 	b	4800d8c8 <_fdt_check_prop_offset+0x60>
4800d8c4:	e51b300c 	ldr	r3, [fp, #-12]
4800d8c8:	e1a00003 	mov	r0, r3
4800d8cc:	e24bd004 	sub	sp, fp, #4
4800d8d0:	e8bd8800 	pop	{fp, pc}

4800d8d4 <fdt_next_node>:
4800d8d4:	e92d4800 	push	{fp, lr}
4800d8d8:	e28db004 	add	fp, sp, #4
4800d8dc:	e24dd018 	sub	sp, sp, #24
4800d8e0:	e50b0010 	str	r0, [fp, #-16]
4800d8e4:	e50b1014 	str	r1, [fp, #-20]
4800d8e8:	e50b2018 	str	r2, [fp, #-24]
4800d8ec:	e3a03000 	mov	r3, #0
4800d8f0:	e50b300c 	str	r3, [fp, #-12]
4800d8f4:	e51b3014 	ldr	r3, [fp, #-20]
4800d8f8:	e3530000 	cmp	r3, #0
4800d8fc:	ba000009 	blt	4800d928 <fdt_next_node+0x54>
4800d900:	e51b0010 	ldr	r0, [fp, #-16]
4800d904:	e51b1014 	ldr	r1, [fp, #-20]
4800d908:	ebffffbb 	bl	4800d7fc <_fdt_check_node_offset>
4800d90c:	e1a03000 	mov	r3, r0
4800d910:	e50b300c 	str	r3, [fp, #-12]
4800d914:	e51b300c 	ldr	r3, [fp, #-12]
4800d918:	e3530000 	cmp	r3, #0
4800d91c:	aa000001 	bge	4800d928 <fdt_next_node+0x54>
4800d920:	e51b300c 	ldr	r3, [fp, #-12]
4800d924:	ea00003f 	b	4800da28 <fdt_next_node+0x154>
4800d928:	e51b300c 	ldr	r3, [fp, #-12]
4800d92c:	e50b3014 	str	r3, [fp, #-20]
4800d930:	e24b300c 	sub	r3, fp, #12
4800d934:	e51b0010 	ldr	r0, [fp, #-16]
4800d938:	e51b1014 	ldr	r1, [fp, #-20]
4800d93c:	e1a02003 	mov	r2, r3
4800d940:	ebffff25 	bl	4800d5dc <fdt_next_tag>
4800d944:	e50b0008 	str	r0, [fp, #-8]
4800d948:	e51b3008 	ldr	r3, [fp, #-8]
4800d94c:	e2433001 	sub	r3, r3, #1
4800d950:	e3530008 	cmp	r3, #8
4800d954:	979ff103 	ldrls	pc, [pc, r3, lsl #2]
4800d958:	ea00002e 	b	4800da18 <fdt_next_node+0x144>
4800d95c:	4800d980 	.word	0x4800d980
4800d960:	4800d9a8 	.word	0x4800d9a8
4800d964:	4800da18 	.word	0x4800da18
4800d968:	4800da18 	.word	0x4800da18
4800d96c:	4800da18 	.word	0x4800da18
4800d970:	4800da18 	.word	0x4800da18
4800d974:	4800da18 	.word	0x4800da18
4800d978:	4800da18 	.word	0x4800da18
4800d97c:	4800d9e4 	.word	0x4800d9e4
4800d980:	e51b3018 	ldr	r3, [fp, #-24]
4800d984:	e3530000 	cmp	r3, #0
4800d988:	0a000005 	beq	4800d9a4 <fdt_next_node+0xd0>
4800d98c:	e51b3018 	ldr	r3, [fp, #-24]
4800d990:	e5933000 	ldr	r3, [r3]
4800d994:	e2832001 	add	r2, r3, #1
4800d998:	e51b3018 	ldr	r3, [fp, #-24]
4800d99c:	e5832000 	str	r2, [r3]
4800d9a0:	ea00001c 	b	4800da18 <fdt_next_node+0x144>
4800d9a4:	ea00001b 	b	4800da18 <fdt_next_node+0x144>
4800d9a8:	e51b3018 	ldr	r3, [fp, #-24]
4800d9ac:	e3530000 	cmp	r3, #0
4800d9b0:	0a00000a 	beq	4800d9e0 <fdt_next_node+0x10c>
4800d9b4:	e51b3018 	ldr	r3, [fp, #-24]
4800d9b8:	e5933000 	ldr	r3, [r3]
4800d9bc:	e2432001 	sub	r2, r3, #1
4800d9c0:	e51b3018 	ldr	r3, [fp, #-24]
4800d9c4:	e5832000 	str	r2, [r3]
4800d9c8:	e51b3018 	ldr	r3, [fp, #-24]
4800d9cc:	e5933000 	ldr	r3, [r3]
4800d9d0:	e3530000 	cmp	r3, #0
4800d9d4:	aa000001 	bge	4800d9e0 <fdt_next_node+0x10c>
4800d9d8:	e51b300c 	ldr	r3, [fp, #-12]
4800d9dc:	ea000011 	b	4800da28 <fdt_next_node+0x154>
4800d9e0:	ea00000c 	b	4800da18 <fdt_next_node+0x144>
4800d9e4:	e51b300c 	ldr	r3, [fp, #-12]
4800d9e8:	e3530000 	cmp	r3, #0
4800d9ec:	aa000005 	bge	4800da08 <fdt_next_node+0x134>
4800d9f0:	e51b300c 	ldr	r3, [fp, #-12]
4800d9f4:	e3730008 	cmn	r3, #8
4800d9f8:	1a000004 	bne	4800da10 <fdt_next_node+0x13c>
4800d9fc:	e51b3018 	ldr	r3, [fp, #-24]
4800da00:	e3530000 	cmp	r3, #0
4800da04:	1a000001 	bne	4800da10 <fdt_next_node+0x13c>
4800da08:	e3e03000 	mvn	r3, #0
4800da0c:	ea000005 	b	4800da28 <fdt_next_node+0x154>
4800da10:	e51b300c 	ldr	r3, [fp, #-12]
4800da14:	ea000003 	b	4800da28 <fdt_next_node+0x154>
4800da18:	e51b3008 	ldr	r3, [fp, #-8]
4800da1c:	e3530001 	cmp	r3, #1
4800da20:	1affffc0 	bne	4800d928 <fdt_next_node+0x54>
4800da24:	e51b3014 	ldr	r3, [fp, #-20]
4800da28:	e1a00003 	mov	r0, r3
4800da2c:	e24bd004 	sub	sp, fp, #4
4800da30:	e8bd8800 	pop	{fp, pc}

4800da34 <_fdt_find_string>:
4800da34:	e92d4800 	push	{fp, lr}
4800da38:	e28db004 	add	fp, sp, #4
4800da3c:	e24dd020 	sub	sp, sp, #32
4800da40:	e50b0018 	str	r0, [fp, #-24]
4800da44:	e50b101c 	str	r1, [fp, #-28]
4800da48:	e50b2020 	str	r2, [fp, #-32]
4800da4c:	e51b0020 	ldr	r0, [fp, #-32]
4800da50:	ebfff4a7 	bl	4800acf4 <arm_strlen>
4800da54:	e1a03000 	mov	r3, r0
4800da58:	e2833001 	add	r3, r3, #1
4800da5c:	e50b300c 	str	r3, [fp, #-12]
4800da60:	e51b201c 	ldr	r2, [fp, #-28]
4800da64:	e51b300c 	ldr	r3, [fp, #-12]
4800da68:	e0633002 	rsb	r3, r3, r2
4800da6c:	e51b2018 	ldr	r2, [fp, #-24]
4800da70:	e0823003 	add	r3, r2, r3
4800da74:	e50b3010 	str	r3, [fp, #-16]
4800da78:	e51b3018 	ldr	r3, [fp, #-24]
4800da7c:	e50b3008 	str	r3, [fp, #-8]
4800da80:	ea00000c 	b	4800dab8 <_fdt_find_string+0x84>
4800da84:	e51b300c 	ldr	r3, [fp, #-12]
4800da88:	e51b0008 	ldr	r0, [fp, #-8]
4800da8c:	e51b1020 	ldr	r1, [fp, #-32]
4800da90:	e1a02003 	mov	r2, r3
4800da94:	ebfff42f 	bl	4800ab58 <arm_memcmp>
4800da98:	e1a03000 	mov	r3, r0
4800da9c:	e3530000 	cmp	r3, #0
4800daa0:	1a000001 	bne	4800daac <_fdt_find_string+0x78>
4800daa4:	e51b3008 	ldr	r3, [fp, #-8]
4800daa8:	ea000007 	b	4800dacc <_fdt_find_string+0x98>
4800daac:	e51b3008 	ldr	r3, [fp, #-8]
4800dab0:	e2833001 	add	r3, r3, #1
4800dab4:	e50b3008 	str	r3, [fp, #-8]
4800dab8:	e51b2008 	ldr	r2, [fp, #-8]
4800dabc:	e51b3010 	ldr	r3, [fp, #-16]
4800dac0:	e1520003 	cmp	r2, r3
4800dac4:	9affffee 	bls	4800da84 <_fdt_find_string+0x50>
4800dac8:	e3a03000 	mov	r3, #0
4800dacc:	e1a00003 	mov	r0, r3
4800dad0:	e24bd004 	sub	sp, fp, #4
4800dad4:	e8bd8800 	pop	{fp, pc}

4800dad8 <fdt_move>:
4800dad8:	e92d4800 	push	{fp, lr}
4800dadc:	e28db004 	add	fp, sp, #4
4800dae0:	e24dd018 	sub	sp, sp, #24
4800dae4:	e50b0010 	str	r0, [fp, #-16]
4800dae8:	e50b1014 	str	r1, [fp, #-20]
4800daec:	e50b2018 	str	r2, [fp, #-24]
4800daf0:	e51b0010 	ldr	r0, [fp, #-16]
4800daf4:	ebfffde7 	bl	4800d298 <fdt_check_header>
4800daf8:	e50b0008 	str	r0, [fp, #-8]
4800dafc:	e51b3008 	ldr	r3, [fp, #-8]
4800db00:	e3530000 	cmp	r3, #0
4800db04:	0a000001 	beq	4800db10 <fdt_move+0x38>
4800db08:	e51b3008 	ldr	r3, [fp, #-8]
4800db0c:	ea00002b 	b	4800dbc0 <fdt_move+0xe8>
4800db10:	e51b3010 	ldr	r3, [fp, #-16]
4800db14:	e5933004 	ldr	r3, [r3, #4]
4800db18:	e1a02c03 	lsl	r2, r3, #24
4800db1c:	e51b3010 	ldr	r3, [fp, #-16]
4800db20:	e5933004 	ldr	r3, [r3, #4]
4800db24:	e2033cff 	and	r3, r3, #65280	; 0xff00
4800db28:	e1a03403 	lsl	r3, r3, #8
4800db2c:	e1822003 	orr	r2, r2, r3
4800db30:	e51b3010 	ldr	r3, [fp, #-16]
4800db34:	e5933004 	ldr	r3, [r3, #4]
4800db38:	e20338ff 	and	r3, r3, #16711680	; 0xff0000
4800db3c:	e1a03423 	lsr	r3, r3, #8
4800db40:	e1822003 	orr	r2, r2, r3
4800db44:	e51b3010 	ldr	r3, [fp, #-16]
4800db48:	e5933004 	ldr	r3, [r3, #4]
4800db4c:	e1a03c23 	lsr	r3, r3, #24
4800db50:	e1822003 	orr	r2, r2, r3
4800db54:	e51b3018 	ldr	r3, [fp, #-24]
4800db58:	e1520003 	cmp	r2, r3
4800db5c:	9a000001 	bls	4800db68 <fdt_move+0x90>
4800db60:	e3e03002 	mvn	r3, #2
4800db64:	ea000015 	b	4800dbc0 <fdt_move+0xe8>
4800db68:	e51b3010 	ldr	r3, [fp, #-16]
4800db6c:	e5933004 	ldr	r3, [r3, #4]
4800db70:	e1a02c03 	lsl	r2, r3, #24
4800db74:	e51b3010 	ldr	r3, [fp, #-16]
4800db78:	e5933004 	ldr	r3, [r3, #4]
4800db7c:	e2033cff 	and	r3, r3, #65280	; 0xff00
4800db80:	e1a03403 	lsl	r3, r3, #8
4800db84:	e1822003 	orr	r2, r2, r3
4800db88:	e51b3010 	ldr	r3, [fp, #-16]
4800db8c:	e5933004 	ldr	r3, [r3, #4]
4800db90:	e20338ff 	and	r3, r3, #16711680	; 0xff0000
4800db94:	e1a03423 	lsr	r3, r3, #8
4800db98:	e1822003 	orr	r2, r2, r3
4800db9c:	e51b3010 	ldr	r3, [fp, #-16]
4800dba0:	e5933004 	ldr	r3, [r3, #4]
4800dba4:	e1a03c23 	lsr	r3, r3, #24
4800dba8:	e1823003 	orr	r3, r2, r3
4800dbac:	e51b0014 	ldr	r0, [fp, #-20]
4800dbb0:	e51b1010 	ldr	r1, [fp, #-16]
4800dbb4:	e1a02003 	mov	r2, r3
4800dbb8:	ebfff34c 	bl	4800a8f0 <arm_memmove>
4800dbbc:	e3a03000 	mov	r3, #0
4800dbc0:	e1a00003 	mov	r0, r3
4800dbc4:	e24bd004 	sub	sp, fp, #4
4800dbc8:	e8bd8800 	pop	{fp, pc}

4800dbcc <_fdt_offset_ptr>:
4800dbcc:	e52db004 	push	{fp}		; (str fp, [sp, #-4]!)
4800dbd0:	e28db000 	add	fp, sp, #0
4800dbd4:	e24dd00c 	sub	sp, sp, #12
4800dbd8:	e50b0008 	str	r0, [fp, #-8]
4800dbdc:	e50b100c 	str	r1, [fp, #-12]
4800dbe0:	e51b3008 	ldr	r3, [fp, #-8]
4800dbe4:	e5933008 	ldr	r3, [r3, #8]
4800dbe8:	e1a02c03 	lsl	r2, r3, #24
4800dbec:	e51b3008 	ldr	r3, [fp, #-8]
4800dbf0:	e5933008 	ldr	r3, [r3, #8]
4800dbf4:	e2033cff 	and	r3, r3, #65280	; 0xff00
4800dbf8:	e1a03403 	lsl	r3, r3, #8
4800dbfc:	e1822003 	orr	r2, r2, r3
4800dc00:	e51b3008 	ldr	r3, [fp, #-8]
4800dc04:	e5933008 	ldr	r3, [r3, #8]
4800dc08:	e20338ff 	and	r3, r3, #16711680	; 0xff0000
4800dc0c:	e1a03423 	lsr	r3, r3, #8
4800dc10:	e1822003 	orr	r2, r2, r3
4800dc14:	e51b3008 	ldr	r3, [fp, #-8]
4800dc18:	e5933008 	ldr	r3, [r3, #8]
4800dc1c:	e1a03c23 	lsr	r3, r3, #24
4800dc20:	e1822003 	orr	r2, r2, r3
4800dc24:	e51b300c 	ldr	r3, [fp, #-12]
4800dc28:	e0823003 	add	r3, r2, r3
4800dc2c:	e51b2008 	ldr	r2, [fp, #-8]
4800dc30:	e0823003 	add	r3, r2, r3
4800dc34:	e1a00003 	mov	r0, r3
4800dc38:	e24bd000 	sub	sp, fp, #0
4800dc3c:	e49db004 	pop	{fp}		; (ldr fp, [sp], #4)
4800dc40:	e12fff1e 	bx	lr

4800dc44 <_fdt_mem_rsv>:
4800dc44:	e52db004 	push	{fp}		; (str fp, [sp, #-4]!)
4800dc48:	e28db000 	add	fp, sp, #0
4800dc4c:	e24dd014 	sub	sp, sp, #20
4800dc50:	e50b0010 	str	r0, [fp, #-16]
4800dc54:	e50b1014 	str	r1, [fp, #-20]
4800dc58:	e51b3010 	ldr	r3, [fp, #-16]
4800dc5c:	e5933010 	ldr	r3, [r3, #16]
4800dc60:	e1a02c03 	lsl	r2, r3, #24
4800dc64:	e51b3010 	ldr	r3, [fp, #-16]
4800dc68:	e5933010 	ldr	r3, [r3, #16]
4800dc6c:	e2033cff 	and	r3, r3, #65280	; 0xff00
4800dc70:	e1a03403 	lsl	r3, r3, #8
4800dc74:	e1822003 	orr	r2, r2, r3
4800dc78:	e51b3010 	ldr	r3, [fp, #-16]
4800dc7c:	e5933010 	ldr	r3, [r3, #16]
4800dc80:	e20338ff 	and	r3, r3, #16711680	; 0xff0000
4800dc84:	e1a03423 	lsr	r3, r3, #8
4800dc88:	e1822003 	orr	r2, r2, r3
4800dc8c:	e51b3010 	ldr	r3, [fp, #-16]
4800dc90:	e5933010 	ldr	r3, [r3, #16]
4800dc94:	e1a03c23 	lsr	r3, r3, #24
4800dc98:	e1823003 	orr	r3, r2, r3
4800dc9c:	e51b2010 	ldr	r2, [fp, #-16]
4800dca0:	e0823003 	add	r3, r2, r3
4800dca4:	e50b3008 	str	r3, [fp, #-8]
4800dca8:	e51b3014 	ldr	r3, [fp, #-20]
4800dcac:	e1a03203 	lsl	r3, r3, #4
4800dcb0:	e51b2008 	ldr	r2, [fp, #-8]
4800dcb4:	e0823003 	add	r3, r2, r3
4800dcb8:	e1a00003 	mov	r0, r3
4800dcbc:	e24bd000 	sub	sp, fp, #0
4800dcc0:	e49db004 	pop	{fp}		; (ldr fp, [sp], #4)
4800dcc4:	e12fff1e 	bx	lr

4800dcc8 <_fdt_nodename_eq>:
4800dcc8:	e92d4800 	push	{fp, lr}
4800dccc:	e28db004 	add	fp, sp, #4
4800dcd0:	e24dd018 	sub	sp, sp, #24
4800dcd4:	e50b0010 	str	r0, [fp, #-16]
4800dcd8:	e50b1014 	str	r1, [fp, #-20]
4800dcdc:	e50b2018 	str	r2, [fp, #-24]
4800dce0:	e50b301c 	str	r3, [fp, #-28]
4800dce4:	e51b3014 	ldr	r3, [fp, #-20]
4800dce8:	e2833004 	add	r3, r3, #4
4800dcec:	e1a02003 	mov	r2, r3
4800dcf0:	e51b301c 	ldr	r3, [fp, #-28]
4800dcf4:	e2833001 	add	r3, r3, #1
4800dcf8:	e51b0010 	ldr	r0, [fp, #-16]
4800dcfc:	e1a01002 	mov	r1, r2
4800dd00:	e1a02003 	mov	r2, r3
4800dd04:	ebfffded 	bl	4800d4c0 <fdt_offset_ptr>
4800dd08:	e50b0008 	str	r0, [fp, #-8]
4800dd0c:	e51b3008 	ldr	r3, [fp, #-8]
4800dd10:	e3530000 	cmp	r3, #0
4800dd14:	1a000001 	bne	4800dd20 <_fdt_nodename_eq+0x58>
4800dd18:	e3a03000 	mov	r3, #0
4800dd1c:	ea000021 	b	4800dda8 <_fdt_nodename_eq+0xe0>
4800dd20:	e51b301c 	ldr	r3, [fp, #-28]
4800dd24:	e51b0008 	ldr	r0, [fp, #-8]
4800dd28:	e51b1018 	ldr	r1, [fp, #-24]
4800dd2c:	e1a02003 	mov	r2, r3
4800dd30:	ebfff388 	bl	4800ab58 <arm_memcmp>
4800dd34:	e1a03000 	mov	r3, r0
4800dd38:	e3530000 	cmp	r3, #0
4800dd3c:	0a000001 	beq	4800dd48 <_fdt_nodename_eq+0x80>
4800dd40:	e3a03000 	mov	r3, #0
4800dd44:	ea000017 	b	4800dda8 <_fdt_nodename_eq+0xe0>
4800dd48:	e51b301c 	ldr	r3, [fp, #-28]
4800dd4c:	e51b2008 	ldr	r2, [fp, #-8]
4800dd50:	e0823003 	add	r3, r2, r3
4800dd54:	e5d33000 	ldrb	r3, [r3]
4800dd58:	e3530000 	cmp	r3, #0
4800dd5c:	1a000001 	bne	4800dd68 <_fdt_nodename_eq+0xa0>
4800dd60:	e3a03001 	mov	r3, #1
4800dd64:	ea00000f 	b	4800dda8 <_fdt_nodename_eq+0xe0>
4800dd68:	e51b0018 	ldr	r0, [fp, #-24]
4800dd6c:	e3a01040 	mov	r1, #64	; 0x40
4800dd70:	e51b201c 	ldr	r2, [fp, #-28]
4800dd74:	ebfff3a6 	bl	4800ac14 <arm_memchr>
4800dd78:	e1a03000 	mov	r3, r0
4800dd7c:	e3530000 	cmp	r3, #0
4800dd80:	1a000007 	bne	4800dda4 <_fdt_nodename_eq+0xdc>
4800dd84:	e51b301c 	ldr	r3, [fp, #-28]
4800dd88:	e51b2008 	ldr	r2, [fp, #-8]
4800dd8c:	e0823003 	add	r3, r2, r3
4800dd90:	e5d33000 	ldrb	r3, [r3]
4800dd94:	e3530040 	cmp	r3, #64	; 0x40
4800dd98:	1a000001 	bne	4800dda4 <_fdt_nodename_eq+0xdc>
4800dd9c:	e3a03001 	mov	r3, #1
4800dda0:	ea000000 	b	4800dda8 <_fdt_nodename_eq+0xe0>
4800dda4:	e3a03000 	mov	r3, #0
4800dda8:	e1a00003 	mov	r0, r3
4800ddac:	e24bd004 	sub	sp, fp, #4
4800ddb0:	e8bd8800 	pop	{fp, pc}

4800ddb4 <fdt_string>:
4800ddb4:	e52db004 	push	{fp}		; (str fp, [sp, #-4]!)
4800ddb8:	e28db000 	add	fp, sp, #0
4800ddbc:	e24dd00c 	sub	sp, sp, #12
4800ddc0:	e50b0008 	str	r0, [fp, #-8]
4800ddc4:	e50b100c 	str	r1, [fp, #-12]
4800ddc8:	e51b3008 	ldr	r3, [fp, #-8]
4800ddcc:	e593300c 	ldr	r3, [r3, #12]
4800ddd0:	e1a02c03 	lsl	r2, r3, #24
4800ddd4:	e51b3008 	ldr	r3, [fp, #-8]
4800ddd8:	e593300c 	ldr	r3, [r3, #12]
4800dddc:	e2033cff 	and	r3, r3, #65280	; 0xff00
4800dde0:	e1a03403 	lsl	r3, r3, #8
4800dde4:	e1822003 	orr	r2, r2, r3
4800dde8:	e51b3008 	ldr	r3, [fp, #-8]
4800ddec:	e593300c 	ldr	r3, [r3, #12]
4800ddf0:	e20338ff 	and	r3, r3, #16711680	; 0xff0000
4800ddf4:	e1a03423 	lsr	r3, r3, #8
4800ddf8:	e1822003 	orr	r2, r2, r3
4800ddfc:	e51b3008 	ldr	r3, [fp, #-8]
4800de00:	e593300c 	ldr	r3, [r3, #12]
4800de04:	e1a03c23 	lsr	r3, r3, #24
4800de08:	e1822003 	orr	r2, r2, r3
4800de0c:	e51b300c 	ldr	r3, [fp, #-12]
4800de10:	e0823003 	add	r3, r2, r3
4800de14:	e51b2008 	ldr	r2, [fp, #-8]
4800de18:	e0823003 	add	r3, r2, r3
4800de1c:	e1a00003 	mov	r0, r3
4800de20:	e24bd000 	sub	sp, fp, #0
4800de24:	e49db004 	pop	{fp}		; (ldr fp, [sp], #4)
4800de28:	e12fff1e 	bx	lr

4800de2c <_fdt_string_eq>:
4800de2c:	e92d4800 	push	{fp, lr}
4800de30:	e28db004 	add	fp, sp, #4
4800de34:	e24dd018 	sub	sp, sp, #24
4800de38:	e50b0010 	str	r0, [fp, #-16]
4800de3c:	e50b1014 	str	r1, [fp, #-20]
4800de40:	e50b2018 	str	r2, [fp, #-24]
4800de44:	e50b301c 	str	r3, [fp, #-28]
4800de48:	e51b0010 	ldr	r0, [fp, #-16]
4800de4c:	e51b1014 	ldr	r1, [fp, #-20]
4800de50:	ebffffd7 	bl	4800ddb4 <fdt_string>
4800de54:	e50b0008 	str	r0, [fp, #-8]
4800de58:	e51b0008 	ldr	r0, [fp, #-8]
4800de5c:	ebfff3a4 	bl	4800acf4 <arm_strlen>
4800de60:	e1a02000 	mov	r2, r0
4800de64:	e51b301c 	ldr	r3, [fp, #-28]
4800de68:	e1520003 	cmp	r2, r3
4800de6c:	1a000009 	bne	4800de98 <_fdt_string_eq+0x6c>
4800de70:	e51b301c 	ldr	r3, [fp, #-28]
4800de74:	e51b0008 	ldr	r0, [fp, #-8]
4800de78:	e51b1018 	ldr	r1, [fp, #-24]
4800de7c:	e1a02003 	mov	r2, r3
4800de80:	ebfff334 	bl	4800ab58 <arm_memcmp>
4800de84:	e1a03000 	mov	r3, r0
4800de88:	e3530000 	cmp	r3, #0
4800de8c:	1a000001 	bne	4800de98 <_fdt_string_eq+0x6c>
4800de90:	e3a03001 	mov	r3, #1
4800de94:	ea000000 	b	4800de9c <_fdt_string_eq+0x70>
4800de98:	e3a03000 	mov	r3, #0
4800de9c:	e1a00003 	mov	r0, r3
4800dea0:	e24bd004 	sub	sp, fp, #4
4800dea4:	e8bd8800 	pop	{fp, pc}

4800dea8 <fdt_get_mem_rsv>:
4800dea8:	e92d4bf0 	push	{r4, r5, r6, r7, r8, r9, fp, lr}
4800deac:	e28db01c 	add	fp, sp, #28
4800deb0:	e24dd080 	sub	sp, sp, #128	; 0x80
4800deb4:	e50b0028 	str	r0, [fp, #-40]	; 0x28
4800deb8:	e50b102c 	str	r1, [fp, #-44]	; 0x2c
4800debc:	e50b2030 	str	r2, [fp, #-48]	; 0x30
4800dec0:	e50b3034 	str	r3, [fp, #-52]	; 0x34
4800dec4:	e51b0028 	ldr	r0, [fp, #-40]	; 0x28
4800dec8:	ebfffcf2 	bl	4800d298 <fdt_check_header>
4800decc:	e50b0020 	str	r0, [fp, #-32]
4800ded0:	e51b3020 	ldr	r3, [fp, #-32]
4800ded4:	e3530000 	cmp	r3, #0
4800ded8:	0a000001 	beq	4800dee4 <fdt_get_mem_rsv+0x3c>
4800dedc:	e51b3020 	ldr	r3, [fp, #-32]
4800dee0:	ea0000fb 	b	4800e2d4 <fdt_get_mem_rsv+0x42c>
4800dee4:	e51b0028 	ldr	r0, [fp, #-40]	; 0x28
4800dee8:	e51b102c 	ldr	r1, [fp, #-44]	; 0x2c
4800deec:	ebffff54 	bl	4800dc44 <_fdt_mem_rsv>
4800def0:	e1a03000 	mov	r3, r0
4800def4:	e1c320d0 	ldrd	r2, [r3]
4800def8:	e1a01c02 	lsl	r1, r2, #24
4800defc:	e50b1038 	str	r1, [fp, #-56]	; 0x38
4800df00:	e3a02000 	mov	r2, #0
4800df04:	e50b203c 	str	r2, [fp, #-60]	; 0x3c
4800df08:	e51b0028 	ldr	r0, [fp, #-40]	; 0x28
4800df0c:	e51b102c 	ldr	r1, [fp, #-44]	; 0x2c
4800df10:	ebffff4b 	bl	4800dc44 <_fdt_mem_rsv>
4800df14:	e1a03000 	mov	r3, r0
4800df18:	e1c300d0 	ldrd	r0, [r3]
4800df1c:	e3a02cff 	mov	r2, #65280	; 0xff00
4800df20:	e3a03000 	mov	r3, #0
4800df24:	e0022000 	and	r2, r2, r0
4800df28:	e0033001 	and	r3, r3, r1
4800df2c:	e1a07402 	lsl	r7, r2, #8
4800df30:	e3a06000 	mov	r6, #0
4800df34:	e14b23dc 	ldrd	r2, [fp, #-60]	; 0xffffffc4
4800df38:	e1866002 	orr	r6, r6, r2
4800df3c:	e1877003 	orr	r7, r7, r3
4800df40:	e51b0028 	ldr	r0, [fp, #-40]	; 0x28
4800df44:	e51b102c 	ldr	r1, [fp, #-44]	; 0x2c
4800df48:	ebffff3d 	bl	4800dc44 <_fdt_mem_rsv>
4800df4c:	e1a03000 	mov	r3, r0
4800df50:	e1c300d0 	ldrd	r0, [r3]
4800df54:	e3a028ff 	mov	r2, #16711680	; 0xff0000
4800df58:	e3a03000 	mov	r3, #0
4800df5c:	e0022000 	and	r2, r2, r0
4800df60:	e0033001 	and	r3, r3, r1
4800df64:	e1a05c03 	lsl	r5, r3, #24
4800df68:	e1855422 	orr	r5, r5, r2, lsr #8
4800df6c:	e1a04c02 	lsl	r4, r2, #24
4800df70:	e1844006 	orr	r4, r4, r6
4800df74:	e1855007 	orr	r5, r5, r7
4800df78:	e51b0028 	ldr	r0, [fp, #-40]	; 0x28
4800df7c:	e51b102c 	ldr	r1, [fp, #-44]	; 0x2c
4800df80:	ebffff2f 	bl	4800dc44 <_fdt_mem_rsv>
4800df84:	e1a03000 	mov	r3, r0
4800df88:	e1c300d0 	ldrd	r0, [r3]
4800df8c:	e3a024ff 	mov	r2, #-16777216	; 0xff000000
4800df90:	e3a03000 	mov	r3, #0
4800df94:	e0022000 	and	r2, r2, r0
4800df98:	e0033001 	and	r3, r3, r1
4800df9c:	e1a09403 	lsl	r9, r3, #8
4800dfa0:	e1899c22 	orr	r9, r9, r2, lsr #24
4800dfa4:	e1a08402 	lsl	r8, r2, #8
4800dfa8:	e1844008 	orr	r4, r4, r8
4800dfac:	e1855009 	orr	r5, r5, r9
4800dfb0:	e51b0028 	ldr	r0, [fp, #-40]	; 0x28
4800dfb4:	e51b102c 	ldr	r1, [fp, #-44]	; 0x2c
4800dfb8:	ebffff21 	bl	4800dc44 <_fdt_mem_rsv>
4800dfbc:	e1a03000 	mov	r3, r0
4800dfc0:	e1c300d0 	ldrd	r0, [r3]
4800dfc4:	e3a02000 	mov	r2, #0
4800dfc8:	e3a030ff 	mov	r3, #255	; 0xff
4800dfcc:	e0022000 	and	r2, r2, r0
4800dfd0:	e0033001 	and	r3, r3, r1
4800dfd4:	e1a01422 	lsr	r1, r2, #8
4800dfd8:	e50b1044 	str	r1, [fp, #-68]	; 0x44
4800dfdc:	e51b1044 	ldr	r1, [fp, #-68]	; 0x44
4800dfe0:	e1811c03 	orr	r1, r1, r3, lsl #24
4800dfe4:	e50b1044 	str	r1, [fp, #-68]	; 0x44
4800dfe8:	e1a01423 	lsr	r1, r3, #8
4800dfec:	e50b1040 	str	r1, [fp, #-64]	; 0x40
4800dff0:	e14b24d4 	ldrd	r2, [fp, #-68]	; 0xffffffbc
4800dff4:	e1844002 	orr	r4, r4, r2
4800dff8:	e1855003 	orr	r5, r5, r3
4800dffc:	e51b0028 	ldr	r0, [fp, #-40]	; 0x28
4800e000:	e51b102c 	ldr	r1, [fp, #-44]	; 0x2c
4800e004:	ebffff0e 	bl	4800dc44 <_fdt_mem_rsv>
4800e008:	e1a03000 	mov	r3, r0
4800e00c:	e1c300d0 	ldrd	r0, [r3]
4800e010:	e3a02000 	mov	r2, #0
4800e014:	e3a03cff 	mov	r3, #65280	; 0xff00
4800e018:	e0022000 	and	r2, r2, r0
4800e01c:	e0033001 	and	r3, r3, r1
4800e020:	e1a01c22 	lsr	r1, r2, #24
4800e024:	e50b104c 	str	r1, [fp, #-76]	; 0x4c
4800e028:	e51b104c 	ldr	r1, [fp, #-76]	; 0x4c
4800e02c:	e1811403 	orr	r1, r1, r3, lsl #8
4800e030:	e50b104c 	str	r1, [fp, #-76]	; 0x4c
4800e034:	e1a01c23 	lsr	r1, r3, #24
4800e038:	e50b1048 	str	r1, [fp, #-72]	; 0x48
4800e03c:	e14b24dc 	ldrd	r2, [fp, #-76]	; 0xffffffb4
4800e040:	e1844002 	orr	r4, r4, r2
4800e044:	e1855003 	orr	r5, r5, r3
4800e048:	e51b0028 	ldr	r0, [fp, #-40]	; 0x28
4800e04c:	e51b102c 	ldr	r1, [fp, #-44]	; 0x2c
4800e050:	ebfffefb 	bl	4800dc44 <_fdt_mem_rsv>
4800e054:	e1a03000 	mov	r3, r0
4800e058:	e1c300d0 	ldrd	r0, [r3]
4800e05c:	e3a02000 	mov	r2, #0
4800e060:	e3a038ff 	mov	r3, #16711680	; 0xff0000
4800e064:	e0022000 	and	r2, r2, r0
4800e068:	e0033001 	and	r3, r3, r1
4800e06c:	e1a01423 	lsr	r1, r3, #8
4800e070:	e50b1054 	str	r1, [fp, #-84]	; 0x54
4800e074:	e3a02000 	mov	r2, #0
4800e078:	e50b2050 	str	r2, [fp, #-80]	; 0x50
4800e07c:	e14b25d4 	ldrd	r2, [fp, #-84]	; 0xffffffac
4800e080:	e1844002 	orr	r4, r4, r2
4800e084:	e1855003 	orr	r5, r5, r3
4800e088:	e51b0028 	ldr	r0, [fp, #-40]	; 0x28
4800e08c:	e51b102c 	ldr	r1, [fp, #-44]	; 0x2c
4800e090:	ebfffeeb 	bl	4800dc44 <_fdt_mem_rsv>
4800e094:	e1a03000 	mov	r3, r0
4800e098:	e1c320d0 	ldrd	r2, [r3]
4800e09c:	e1a01c23 	lsr	r1, r3, #24
4800e0a0:	e50b105c 	str	r1, [fp, #-92]	; 0x5c
4800e0a4:	e3a02000 	mov	r2, #0
4800e0a8:	e50b2058 	str	r2, [fp, #-88]	; 0x58
4800e0ac:	e14b05dc 	ldrd	r0, [fp, #-92]	; 0xffffffa4
4800e0b0:	e1800004 	orr	r0, r0, r4
4800e0b4:	e1811005 	orr	r1, r1, r5
4800e0b8:	e51b3030 	ldr	r3, [fp, #-48]	; 0x30
4800e0bc:	e1c300f0 	strd	r0, [r3]
4800e0c0:	e51b0028 	ldr	r0, [fp, #-40]	; 0x28
4800e0c4:	e51b102c 	ldr	r1, [fp, #-44]	; 0x2c
4800e0c8:	ebfffedd 	bl	4800dc44 <_fdt_mem_rsv>
4800e0cc:	e1a03000 	mov	r3, r0
4800e0d0:	e1c320d8 	ldrd	r2, [r3, #8]
4800e0d4:	e1a01c02 	lsl	r1, r2, #24
4800e0d8:	e50b1060 	str	r1, [fp, #-96]	; 0x60
4800e0dc:	e3a02000 	mov	r2, #0
4800e0e0:	e50b2064 	str	r2, [fp, #-100]	; 0x64
4800e0e4:	e51b0028 	ldr	r0, [fp, #-40]	; 0x28
4800e0e8:	e51b102c 	ldr	r1, [fp, #-44]	; 0x2c
4800e0ec:	ebfffed4 	bl	4800dc44 <_fdt_mem_rsv>
4800e0f0:	e1a03000 	mov	r3, r0
4800e0f4:	e1c300d8 	ldrd	r0, [r3, #8]
4800e0f8:	e3a02cff 	mov	r2, #65280	; 0xff00
4800e0fc:	e3a03000 	mov	r3, #0
4800e100:	e0022000 	and	r2, r2, r0
4800e104:	e0033001 	and	r3, r3, r1
4800e108:	e1a01402 	lsl	r1, r2, #8
4800e10c:	e50b1068 	str	r1, [fp, #-104]	; 0x68
4800e110:	e3a02000 	mov	r2, #0
4800e114:	e50b206c 	str	r2, [fp, #-108]	; 0x6c
4800e118:	e14b46d4 	ldrd	r4, [fp, #-100]	; 0xffffff9c
4800e11c:	e14b26dc 	ldrd	r2, [fp, #-108]	; 0xffffff94
4800e120:	e1844002 	orr	r4, r4, r2
4800e124:	e1855003 	orr	r5, r5, r3
4800e128:	e51b0028 	ldr	r0, [fp, #-40]	; 0x28
4800e12c:	e51b102c 	ldr	r1, [fp, #-44]	; 0x2c
4800e130:	ebfffec3 	bl	4800dc44 <_fdt_mem_rsv>
4800e134:	e1a03000 	mov	r3, r0
4800e138:	e1c300d8 	ldrd	r0, [r3, #8]
4800e13c:	e3a028ff 	mov	r2, #16711680	; 0xff0000
4800e140:	e3a03000 	mov	r3, #0
4800e144:	e0022000 	and	r2, r2, r0
4800e148:	e0033001 	and	r3, r3, r1
4800e14c:	e1a01c03 	lsl	r1, r3, #24
4800e150:	e50b1070 	str	r1, [fp, #-112]	; 0x70
4800e154:	e51b1070 	ldr	r1, [fp, #-112]	; 0x70
4800e158:	e1811422 	orr	r1, r1, r2, lsr #8
4800e15c:	e50b1070 	str	r1, [fp, #-112]	; 0x70
4800e160:	e1a01c02 	lsl	r1, r2, #24
4800e164:	e50b1074 	str	r1, [fp, #-116]	; 0x74
4800e168:	e14b27d4 	ldrd	r2, [fp, #-116]	; 0xffffff8c
4800e16c:	e1844002 	orr	r4, r4, r2
4800e170:	e1855003 	orr	r5, r5, r3
4800e174:	e51b0028 	ldr	r0, [fp, #-40]	; 0x28
4800e178:	e51b102c 	ldr	r1, [fp, #-44]	; 0x2c
4800e17c:	ebfffeb0 	bl	4800dc44 <_fdt_mem_rsv>
4800e180:	e1a03000 	mov	r3, r0
4800e184:	e1c300d8 	ldrd	r0, [r3, #8]
4800e188:	e3a024ff 	mov	r2, #-16777216	; 0xff000000
4800e18c:	e3a03000 	mov	r3, #0
4800e190:	e0022000 	and	r2, r2, r0
4800e194:	e0033001 	and	r3, r3, r1
4800e198:	e1a01403 	lsl	r1, r3, #8
4800e19c:	e50b1078 	str	r1, [fp, #-120]	; 0x78
4800e1a0:	e51b1078 	ldr	r1, [fp, #-120]	; 0x78
4800e1a4:	e1811c22 	orr	r1, r1, r2, lsr #24
4800e1a8:	e50b1078 	str	r1, [fp, #-120]	; 0x78
4800e1ac:	e1a01402 	lsl	r1, r2, #8
4800e1b0:	e50b107c 	str	r1, [fp, #-124]	; 0x7c
4800e1b4:	e14b27dc 	ldrd	r2, [fp, #-124]	; 0xffffff84
4800e1b8:	e1844002 	orr	r4, r4, r2
4800e1bc:	e1855003 	orr	r5, r5, r3
4800e1c0:	e51b0028 	ldr	r0, [fp, #-40]	; 0x28
4800e1c4:	e51b102c 	ldr	r1, [fp, #-44]	; 0x2c
4800e1c8:	ebfffe9d 	bl	4800dc44 <_fdt_mem_rsv>
4800e1cc:	e1a03000 	mov	r3, r0
4800e1d0:	e1c300d8 	ldrd	r0, [r3, #8]
4800e1d4:	e3a02000 	mov	r2, #0
4800e1d8:	e3a030ff 	mov	r3, #255	; 0xff
4800e1dc:	e0022000 	and	r2, r2, r0
4800e1e0:	e0033001 	and	r3, r3, r1
4800e1e4:	e1a01422 	lsr	r1, r2, #8
4800e1e8:	e50b1084 	str	r1, [fp, #-132]	; 0x84
4800e1ec:	e51b1084 	ldr	r1, [fp, #-132]	; 0x84
4800e1f0:	e1811c03 	orr	r1, r1, r3, lsl #24
4800e1f4:	e50b1084 	str	r1, [fp, #-132]	; 0x84
4800e1f8:	e1a01423 	lsr	r1, r3, #8
4800e1fc:	e50b1080 	str	r1, [fp, #-128]	; 0x80
4800e200:	e14b28d4 	ldrd	r2, [fp, #-132]	; 0xffffff7c
4800e204:	e1844002 	orr	r4, r4, r2
4800e208:	e1855003 	orr	r5, r5, r3
4800e20c:	e51b0028 	ldr	r0, [fp, #-40]	; 0x28
4800e210:	e51b102c 	ldr	r1, [fp, #-44]	; 0x2c
4800e214:	ebfffe8a 	bl	4800dc44 <_fdt_mem_rsv>
4800e218:	e1a03000 	mov	r3, r0
4800e21c:	e1c300d8 	ldrd	r0, [r3, #8]
4800e220:	e3a02000 	mov	r2, #0
4800e224:	e3a03cff 	mov	r3, #65280	; 0xff00
4800e228:	e0022000 	and	r2, r2, r0
4800e22c:	e0033001 	and	r3, r3, r1
4800e230:	e1a01c22 	lsr	r1, r2, #24
4800e234:	e50b108c 	str	r1, [fp, #-140]	; 0x8c
4800e238:	e51b108c 	ldr	r1, [fp, #-140]	; 0x8c
4800e23c:	e1811403 	orr	r1, r1, r3, lsl #8
4800e240:	e50b108c 	str	r1, [fp, #-140]	; 0x8c
4800e244:	e1a01c23 	lsr	r1, r3, #24
4800e248:	e50b1088 	str	r1, [fp, #-136]	; 0x88
4800e24c:	e14b28dc 	ldrd	r2, [fp, #-140]	; 0xffffff74
4800e250:	e1844002 	orr	r4, r4, r2
4800e254:	e1855003 	orr	r5, r5, r3
4800e258:	e51b0028 	ldr	r0, [fp, #-40]	; 0x28
4800e25c:	e51b102c 	ldr	r1, [fp, #-44]	; 0x2c
4800e260:	ebfffe77 	bl	4800dc44 <_fdt_mem_rsv>
4800e264:	e1a03000 	mov	r3, r0
4800e268:	e1c300d8 	ldrd	r0, [r3, #8]
4800e26c:	e3a02000 	mov	r2, #0
4800e270:	e3a038ff 	mov	r3, #16711680	; 0xff0000
4800e274:	e0022000 	and	r2, r2, r0
4800e278:	e0033001 	and	r3, r3, r1
4800e27c:	e1a01423 	lsr	r1, r3, #8
4800e280:	e50b1094 	str	r1, [fp, #-148]	; 0x94
4800e284:	e3a02000 	mov	r2, #0
4800e288:	e50b2090 	str	r2, [fp, #-144]	; 0x90
4800e28c:	e14b29d4 	ldrd	r2, [fp, #-148]	; 0xffffff6c
4800e290:	e1844002 	orr	r4, r4, r2
4800e294:	e1855003 	orr	r5, r5, r3
4800e298:	e51b0028 	ldr	r0, [fp, #-40]	; 0x28
4800e29c:	e51b102c 	ldr	r1, [fp, #-44]	; 0x2c
4800e2a0:	ebfffe67 	bl	4800dc44 <_fdt_mem_rsv>
4800e2a4:	e1a03000 	mov	r3, r0
4800e2a8:	e1c320d8 	ldrd	r2, [r3, #8]
4800e2ac:	e1a01c23 	lsr	r1, r3, #24
4800e2b0:	e50b109c 	str	r1, [fp, #-156]	; 0x9c
4800e2b4:	e3a02000 	mov	r2, #0
4800e2b8:	e50b2098 	str	r2, [fp, #-152]	; 0x98
4800e2bc:	e14b29dc 	ldrd	r2, [fp, #-156]	; 0xffffff64
4800e2c0:	e1822004 	orr	r2, r2, r4
4800e2c4:	e1833005 	orr	r3, r3, r5
4800e2c8:	e51b1034 	ldr	r1, [fp, #-52]	; 0x34
4800e2cc:	e1c120f0 	strd	r2, [r1]
4800e2d0:	e3a03000 	mov	r3, #0
4800e2d4:	e1a00003 	mov	r0, r3
4800e2d8:	e24bd01c 	sub	sp, fp, #28
4800e2dc:	e8bd8bf0 	pop	{r4, r5, r6, r7, r8, r9, fp, pc}

4800e2e0 <fdt_num_mem_rsv>:
4800e2e0:	e92d4bf0 	push	{r4, r5, r6, r7, r8, r9, fp, lr}
4800e2e4:	e28db01c 	add	fp, sp, #28
4800e2e8:	e24dd040 	sub	sp, sp, #64	; 0x40
4800e2ec:	e50b0028 	str	r0, [fp, #-40]	; 0x28
4800e2f0:	e3a03000 	mov	r3, #0
4800e2f4:	e50b3020 	str	r3, [fp, #-32]
4800e2f8:	ea000002 	b	4800e308 <fdt_num_mem_rsv+0x28>
4800e2fc:	e51b3020 	ldr	r3, [fp, #-32]
4800e300:	e2833001 	add	r3, r3, #1
4800e304:	e50b3020 	str	r3, [fp, #-32]
4800e308:	e51b0028 	ldr	r0, [fp, #-40]	; 0x28
4800e30c:	e51b1020 	ldr	r1, [fp, #-32]
4800e310:	ebfffe4b 	bl	4800dc44 <_fdt_mem_rsv>
4800e314:	e1a03000 	mov	r3, r0
4800e318:	e1c320d8 	ldrd	r2, [r3, #8]
4800e31c:	e1a01c02 	lsl	r1, r2, #24
4800e320:	e50b1030 	str	r1, [fp, #-48]	; 0x30
4800e324:	e3a02000 	mov	r2, #0
4800e328:	e50b2034 	str	r2, [fp, #-52]	; 0x34
4800e32c:	e51b0028 	ldr	r0, [fp, #-40]	; 0x28
4800e330:	e51b1020 	ldr	r1, [fp, #-32]
4800e334:	ebfffe42 	bl	4800dc44 <_fdt_mem_rsv>
4800e338:	e1a03000 	mov	r3, r0
4800e33c:	e1c300d8 	ldrd	r0, [r3, #8]
4800e340:	e3a02cff 	mov	r2, #65280	; 0xff00
4800e344:	e3a03000 	mov	r3, #0
4800e348:	e0022000 	and	r2, r2, r0
4800e34c:	e0033001 	and	r3, r3, r1
4800e350:	e1a01402 	lsl	r1, r2, #8
4800e354:	e50b1038 	str	r1, [fp, #-56]	; 0x38
4800e358:	e3a02000 	mov	r2, #0
4800e35c:	e50b203c 	str	r2, [fp, #-60]	; 0x3c
4800e360:	e14b43d4 	ldrd	r4, [fp, #-52]	; 0xffffffcc
4800e364:	e14b23dc 	ldrd	r2, [fp, #-60]	; 0xffffffc4
4800e368:	e1844002 	orr	r4, r4, r2
4800e36c:	e1855003 	orr	r5, r5, r3
4800e370:	e51b0028 	ldr	r0, [fp, #-40]	; 0x28
4800e374:	e51b1020 	ldr	r1, [fp, #-32]
4800e378:	ebfffe31 	bl	4800dc44 <_fdt_mem_rsv>
4800e37c:	e1a03000 	mov	r3, r0
4800e380:	e1c300d8 	ldrd	r0, [r3, #8]
4800e384:	e3a028ff 	mov	r2, #16711680	; 0xff0000
4800e388:	e3a03000 	mov	r3, #0
4800e38c:	e0022000 	and	r2, r2, r0
4800e390:	e0033001 	and	r3, r3, r1
4800e394:	e1a01c03 	lsl	r1, r3, #24
4800e398:	e50b1040 	str	r1, [fp, #-64]	; 0x40
4800e39c:	e51b1040 	ldr	r1, [fp, #-64]	; 0x40
4800e3a0:	e1811422 	orr	r1, r1, r2, lsr #8
4800e3a4:	e50b1040 	str	r1, [fp, #-64]	; 0x40
4800e3a8:	e1a01c02 	lsl	r1, r2, #24
4800e3ac:	e50b1044 	str	r1, [fp, #-68]	; 0x44
4800e3b0:	e14b24d4 	ldrd	r2, [fp, #-68]	; 0xffffffbc
4800e3b4:	e1844002 	orr	r4, r4, r2
4800e3b8:	e1855003 	orr	r5, r5, r3
4800e3bc:	e51b0028 	ldr	r0, [fp, #-40]	; 0x28
4800e3c0:	e51b1020 	ldr	r1, [fp, #-32]
4800e3c4:	ebfffe1e 	bl	4800dc44 <_fdt_mem_rsv>
4800e3c8:	e1a03000 	mov	r3, r0
4800e3cc:	e1c300d8 	ldrd	r0, [r3, #8]
4800e3d0:	e3a024ff 	mov	r2, #-16777216	; 0xff000000
4800e3d4:	e3a03000 	mov	r3, #0
4800e3d8:	e0022000 	and	r2, r2, r0
4800e3dc:	e0033001 	and	r3, r3, r1
4800e3e0:	e1a01403 	lsl	r1, r3, #8
4800e3e4:	e50b1048 	str	r1, [fp, #-72]	; 0x48
4800e3e8:	e51b1048 	ldr	r1, [fp, #-72]	; 0x48
4800e3ec:	e1811c22 	orr	r1, r1, r2, lsr #24
4800e3f0:	e50b1048 	str	r1, [fp, #-72]	; 0x48
4800e3f4:	e1a01402 	lsl	r1, r2, #8
4800e3f8:	e50b104c 	str	r1, [fp, #-76]	; 0x4c
4800e3fc:	e14b24dc 	ldrd	r2, [fp, #-76]	; 0xffffffb4
4800e400:	e1844002 	orr	r4, r4, r2
4800e404:	e1855003 	orr	r5, r5, r3
4800e408:	e51b0028 	ldr	r0, [fp, #-40]	; 0x28
4800e40c:	e51b1020 	ldr	r1, [fp, #-32]
4800e410:	ebfffe0b 	bl	4800dc44 <_fdt_mem_rsv>
4800e414:	e1a03000 	mov	r3, r0
4800e418:	e1c300d8 	ldrd	r0, [r3, #8]
4800e41c:	e3a02000 	mov	r2, #0
4800e420:	e3a030ff 	mov	r3, #255	; 0xff
4800e424:	e0022000 	and	r2, r2, r0
4800e428:	e0033001 	and	r3, r3, r1
4800e42c:	e1a08422 	lsr	r8, r2, #8
4800e430:	e1888c03 	orr	r8, r8, r3, lsl #24
4800e434:	e1a09423 	lsr	r9, r3, #8
4800e438:	e1844008 	orr	r4, r4, r8
4800e43c:	e1855009 	orr	r5, r5, r9
4800e440:	e51b0028 	ldr	r0, [fp, #-40]	; 0x28
4800e444:	e51b1020 	ldr	r1, [fp, #-32]
4800e448:	ebfffdfd 	bl	4800dc44 <_fdt_mem_rsv>
4800e44c:	e1a03000 	mov	r3, r0
4800e450:	e1c300d8 	ldrd	r0, [r3, #8]
4800e454:	e3a02000 	mov	r2, #0
4800e458:	e3a03cff 	mov	r3, #65280	; 0xff00
4800e45c:	e0022000 	and	r2, r2, r0
4800e460:	e0033001 	and	r3, r3, r1
4800e464:	e1a06c22 	lsr	r6, r2, #24
4800e468:	e1866403 	orr	r6, r6, r3, lsl #8
4800e46c:	e1a07c23 	lsr	r7, r3, #24
4800e470:	e1844006 	orr	r4, r4, r6
4800e474:	e1855007 	orr	r5, r5, r7
4800e478:	e51b0028 	ldr	r0, [fp, #-40]	; 0x28
4800e47c:	e51b1020 	ldr	r1, [fp, #-32]
4800e480:	ebfffdef 	bl	4800dc44 <_fdt_mem_rsv>
4800e484:	e1a03000 	mov	r3, r0
4800e488:	e1c300d8 	ldrd	r0, [r3, #8]
4800e48c:	e3a02000 	mov	r2, #0
4800e490:	e3a038ff 	mov	r3, #16711680	; 0xff0000
4800e494:	e0022000 	and	r2, r2, r0
4800e498:	e0033001 	and	r3, r3, r1
4800e49c:	e1a01423 	lsr	r1, r3, #8
4800e4a0:	e50b1054 	str	r1, [fp, #-84]	; 0x54
4800e4a4:	e3a02000 	mov	r2, #0
4800e4a8:	e50b2050 	str	r2, [fp, #-80]	; 0x50
4800e4ac:	e14b25d4 	ldrd	r2, [fp, #-84]	; 0xffffffac
4800e4b0:	e1844002 	orr	r4, r4, r2
4800e4b4:	e1855003 	orr	r5, r5, r3
4800e4b8:	e51b0028 	ldr	r0, [fp, #-40]	; 0x28
4800e4bc:	e51b1020 	ldr	r1, [fp, #-32]
4800e4c0:	ebfffddf 	bl	4800dc44 <_fdt_mem_rsv>
4800e4c4:	e1a03000 	mov	r3, r0
4800e4c8:	e1c320d8 	ldrd	r2, [r3, #8]
4800e4cc:	e1a01c23 	lsr	r1, r3, #24
4800e4d0:	e50b105c 	str	r1, [fp, #-92]	; 0x5c
4800e4d4:	e3a02000 	mov	r2, #0
4800e4d8:	e50b2058 	str	r2, [fp, #-88]	; 0x58
4800e4dc:	e14b25dc 	ldrd	r2, [fp, #-92]	; 0xffffffa4
4800e4e0:	e1822004 	orr	r2, r2, r4
4800e4e4:	e1833005 	orr	r3, r3, r5
4800e4e8:	e1921003 	orrs	r1, r2, r3
4800e4ec:	1affff82 	bne	4800e2fc <fdt_num_mem_rsv+0x1c>
4800e4f0:	e51b3020 	ldr	r3, [fp, #-32]
4800e4f4:	e1a00003 	mov	r0, r3
4800e4f8:	e24bd01c 	sub	sp, fp, #28
4800e4fc:	e8bd8bf0 	pop	{r4, r5, r6, r7, r8, r9, fp, pc}

4800e500 <_nextprop>:
4800e500:	e92d4800 	push	{fp, lr}
4800e504:	e28db004 	add	fp, sp, #4
4800e508:	e24dd010 	sub	sp, sp, #16
4800e50c:	e50b0010 	str	r0, [fp, #-16]
4800e510:	e50b1014 	str	r1, [fp, #-20]
4800e514:	e24b300c 	sub	r3, fp, #12
4800e518:	e51b0010 	ldr	r0, [fp, #-16]
4800e51c:	e51b1014 	ldr	r1, [fp, #-20]
4800e520:	e1a02003 	mov	r2, r3
4800e524:	ebfffc2c 	bl	4800d5dc <fdt_next_tag>
4800e528:	e50b0008 	str	r0, [fp, #-8]
4800e52c:	e51b3008 	ldr	r3, [fp, #-8]
4800e530:	e3530003 	cmp	r3, #3
4800e534:	0a000008 	beq	4800e55c <_nextprop+0x5c>
4800e538:	e3530009 	cmp	r3, #9
4800e53c:	1a000008 	bne	4800e564 <_nextprop+0x64>
4800e540:	e51b300c 	ldr	r3, [fp, #-12]
4800e544:	e3530000 	cmp	r3, #0
4800e548:	ba000001 	blt	4800e554 <_nextprop+0x54>
4800e54c:	e3e0300a 	mvn	r3, #10
4800e550:	ea000009 	b	4800e57c <_nextprop+0x7c>
4800e554:	e51b300c 	ldr	r3, [fp, #-12]
4800e558:	ea000007 	b	4800e57c <_nextprop+0x7c>
4800e55c:	e51b3014 	ldr	r3, [fp, #-20]
4800e560:	ea000005 	b	4800e57c <_nextprop+0x7c>
4800e564:	e51b300c 	ldr	r3, [fp, #-12]
4800e568:	e50b3014 	str	r3, [fp, #-20]
4800e56c:	e51b3008 	ldr	r3, [fp, #-8]
4800e570:	e3530004 	cmp	r3, #4
4800e574:	0affffe6 	beq	4800e514 <_nextprop+0x14>
4800e578:	e3e03000 	mvn	r3, #0
4800e57c:	e1a00003 	mov	r0, r3
4800e580:	e24bd004 	sub	sp, fp, #4
4800e584:	e8bd8800 	pop	{fp, pc}

4800e588 <fdt_subnode_offset_namelen>:
4800e588:	e92d4800 	push	{fp, lr}
4800e58c:	e28db004 	add	fp, sp, #4
4800e590:	e24dd018 	sub	sp, sp, #24
4800e594:	e50b0010 	str	r0, [fp, #-16]
4800e598:	e50b1014 	str	r1, [fp, #-20]
4800e59c:	e50b2018 	str	r2, [fp, #-24]
4800e5a0:	e50b301c 	str	r3, [fp, #-28]
4800e5a4:	e51b0010 	ldr	r0, [fp, #-16]
4800e5a8:	ebfffb3a 	bl	4800d298 <fdt_check_header>
4800e5ac:	e50b0008 	str	r0, [fp, #-8]
4800e5b0:	e51b3008 	ldr	r3, [fp, #-8]
4800e5b4:	e3530000 	cmp	r3, #0
4800e5b8:	0a000001 	beq	4800e5c4 <fdt_subnode_offset_namelen+0x3c>
4800e5bc:	e51b3008 	ldr	r3, [fp, #-8]
4800e5c0:	ea000021 	b	4800e64c <fdt_subnode_offset_namelen+0xc4>
4800e5c4:	e3a03000 	mov	r3, #0
4800e5c8:	e50b300c 	str	r3, [fp, #-12]
4800e5cc:	ea000012 	b	4800e61c <fdt_subnode_offset_namelen+0x94>
4800e5d0:	e51b300c 	ldr	r3, [fp, #-12]
4800e5d4:	e3530001 	cmp	r3, #1
4800e5d8:	1a000009 	bne	4800e604 <fdt_subnode_offset_namelen+0x7c>
4800e5dc:	e51b0010 	ldr	r0, [fp, #-16]
4800e5e0:	e51b1014 	ldr	r1, [fp, #-20]
4800e5e4:	e51b2018 	ldr	r2, [fp, #-24]
4800e5e8:	e51b301c 	ldr	r3, [fp, #-28]
4800e5ec:	ebfffdb5 	bl	4800dcc8 <_fdt_nodename_eq>
4800e5f0:	e1a03000 	mov	r3, r0
4800e5f4:	e3530000 	cmp	r3, #0
4800e5f8:	0a000001 	beq	4800e604 <fdt_subnode_offset_namelen+0x7c>
4800e5fc:	e51b3014 	ldr	r3, [fp, #-20]
4800e600:	ea000011 	b	4800e64c <fdt_subnode_offset_namelen+0xc4>
4800e604:	e24b300c 	sub	r3, fp, #12
4800e608:	e51b0010 	ldr	r0, [fp, #-16]
4800e60c:	e51b1014 	ldr	r1, [fp, #-20]
4800e610:	e1a02003 	mov	r2, r3
4800e614:	ebfffcae 	bl	4800d8d4 <fdt_next_node>
4800e618:	e50b0014 	str	r0, [fp, #-20]
4800e61c:	e51b3014 	ldr	r3, [fp, #-20]
4800e620:	e3530000 	cmp	r3, #0
4800e624:	ba000002 	blt	4800e634 <fdt_subnode_offset_namelen+0xac>
4800e628:	e51b300c 	ldr	r3, [fp, #-12]
4800e62c:	e3530000 	cmp	r3, #0
4800e630:	aaffffe6 	bge	4800e5d0 <fdt_subnode_offset_namelen+0x48>
4800e634:	e51b300c 	ldr	r3, [fp, #-12]
4800e638:	e3530000 	cmp	r3, #0
4800e63c:	aa000001 	bge	4800e648 <fdt_subnode_offset_namelen+0xc0>
4800e640:	e3e03000 	mvn	r3, #0
4800e644:	ea000000 	b	4800e64c <fdt_subnode_offset_namelen+0xc4>
4800e648:	e51b3014 	ldr	r3, [fp, #-20]
4800e64c:	e1a00003 	mov	r0, r3
4800e650:	e24bd004 	sub	sp, fp, #4
4800e654:	e8bd8800 	pop	{fp, pc}

4800e658 <fdt_subnode_offset>:
4800e658:	e92d4800 	push	{fp, lr}
4800e65c:	e28db004 	add	fp, sp, #4
4800e660:	e24dd010 	sub	sp, sp, #16
4800e664:	e50b0008 	str	r0, [fp, #-8]
4800e668:	e50b100c 	str	r1, [fp, #-12]
4800e66c:	e50b2010 	str	r2, [fp, #-16]
4800e670:	e51b0010 	ldr	r0, [fp, #-16]
4800e674:	ebfff19e 	bl	4800acf4 <arm_strlen>
4800e678:	e1a03000 	mov	r3, r0
4800e67c:	e51b0008 	ldr	r0, [fp, #-8]
4800e680:	e51b100c 	ldr	r1, [fp, #-12]
4800e684:	e51b2010 	ldr	r2, [fp, #-16]
4800e688:	ebffffbe 	bl	4800e588 <fdt_subnode_offset_namelen>
4800e68c:	e1a03000 	mov	r3, r0
4800e690:	e1a00003 	mov	r0, r3
4800e694:	e24bd004 	sub	sp, fp, #4
4800e698:	e8bd8800 	pop	{fp, pc}

4800e69c <fdt_path_offset>:
4800e69c:	e92d4800 	push	{fp, lr}
4800e6a0:	e28db004 	add	fp, sp, #4
4800e6a4:	e24dd020 	sub	sp, sp, #32
4800e6a8:	e50b0020 	str	r0, [fp, #-32]
4800e6ac:	e50b1024 	str	r1, [fp, #-36]	; 0x24
4800e6b0:	e51b0024 	ldr	r0, [fp, #-36]	; 0x24
4800e6b4:	ebfff18e 	bl	4800acf4 <arm_strlen>
4800e6b8:	e1a03000 	mov	r3, r0
4800e6bc:	e51b2024 	ldr	r2, [fp, #-36]	; 0x24
4800e6c0:	e0823003 	add	r3, r2, r3
4800e6c4:	e50b3018 	str	r3, [fp, #-24]
4800e6c8:	e51b3024 	ldr	r3, [fp, #-36]	; 0x24
4800e6cc:	e50b3008 	str	r3, [fp, #-8]
4800e6d0:	e3a03000 	mov	r3, #0
4800e6d4:	e50b300c 	str	r3, [fp, #-12]
4800e6d8:	e51b0020 	ldr	r0, [fp, #-32]
4800e6dc:	ebfffaed 	bl	4800d298 <fdt_check_header>
4800e6e0:	e50b001c 	str	r0, [fp, #-28]
4800e6e4:	e51b301c 	ldr	r3, [fp, #-28]
4800e6e8:	e3530000 	cmp	r3, #0
4800e6ec:	0a000001 	beq	4800e6f8 <fdt_path_offset+0x5c>
4800e6f0:	e51b301c 	ldr	r3, [fp, #-28]
4800e6f4:	ea00004c 	b	4800e82c <fdt_path_offset+0x190>
4800e6f8:	e51b3024 	ldr	r3, [fp, #-36]	; 0x24
4800e6fc:	e5d33000 	ldrb	r3, [r3]
4800e700:	e353002f 	cmp	r3, #47	; 0x2f
4800e704:	0a00001c 	beq	4800e77c <fdt_path_offset+0xe0>
4800e708:	e51b0024 	ldr	r0, [fp, #-36]	; 0x24
4800e70c:	e3a0102f 	mov	r1, #47	; 0x2f
4800e710:	ebfff15f 	bl	4800ac94 <arm_strchr>
4800e714:	e50b0010 	str	r0, [fp, #-16]
4800e718:	e51b3010 	ldr	r3, [fp, #-16]
4800e71c:	e3530000 	cmp	r3, #0
4800e720:	1a000001 	bne	4800e72c <fdt_path_offset+0x90>
4800e724:	e51b3018 	ldr	r3, [fp, #-24]
4800e728:	e50b3010 	str	r3, [fp, #-16]
4800e72c:	e51b2010 	ldr	r2, [fp, #-16]
4800e730:	e51b3008 	ldr	r3, [fp, #-8]
4800e734:	e0633002 	rsb	r3, r3, r2
4800e738:	e51b0020 	ldr	r0, [fp, #-32]
4800e73c:	e51b1008 	ldr	r1, [fp, #-8]
4800e740:	e1a02003 	mov	r2, r3
4800e744:	eb0001b1 	bl	4800ee10 <fdt_get_alias_namelen>
4800e748:	e50b0008 	str	r0, [fp, #-8]
4800e74c:	e51b3008 	ldr	r3, [fp, #-8]
4800e750:	e3530000 	cmp	r3, #0
4800e754:	1a000001 	bne	4800e760 <fdt_path_offset+0xc4>
4800e758:	e3e03004 	mvn	r3, #4
4800e75c:	ea000032 	b	4800e82c <fdt_path_offset+0x190>
4800e760:	e51b0020 	ldr	r0, [fp, #-32]
4800e764:	e51b1008 	ldr	r1, [fp, #-8]
4800e768:	ebffffcb 	bl	4800e69c <fdt_path_offset>
4800e76c:	e50b000c 	str	r0, [fp, #-12]
4800e770:	e51b3010 	ldr	r3, [fp, #-16]
4800e774:	e50b3008 	str	r3, [fp, #-8]
4800e778:	ea000026 	b	4800e818 <fdt_path_offset+0x17c>
4800e77c:	ea000025 	b	4800e818 <fdt_path_offset+0x17c>
4800e780:	ea000002 	b	4800e790 <fdt_path_offset+0xf4>
4800e784:	e51b3008 	ldr	r3, [fp, #-8]
4800e788:	e2833001 	add	r3, r3, #1
4800e78c:	e50b3008 	str	r3, [fp, #-8]
4800e790:	e51b3008 	ldr	r3, [fp, #-8]
4800e794:	e5d33000 	ldrb	r3, [r3]
4800e798:	e353002f 	cmp	r3, #47	; 0x2f
4800e79c:	0afffff8 	beq	4800e784 <fdt_path_offset+0xe8>
4800e7a0:	e51b3008 	ldr	r3, [fp, #-8]
4800e7a4:	e5d33000 	ldrb	r3, [r3]
4800e7a8:	e3530000 	cmp	r3, #0
4800e7ac:	1a000001 	bne	4800e7b8 <fdt_path_offset+0x11c>
4800e7b0:	e51b300c 	ldr	r3, [fp, #-12]
4800e7b4:	ea00001c 	b	4800e82c <fdt_path_offset+0x190>
4800e7b8:	e51b0008 	ldr	r0, [fp, #-8]
4800e7bc:	e3a0102f 	mov	r1, #47	; 0x2f
4800e7c0:	ebfff133 	bl	4800ac94 <arm_strchr>
4800e7c4:	e50b0014 	str	r0, [fp, #-20]
4800e7c8:	e51b3014 	ldr	r3, [fp, #-20]
4800e7cc:	e3530000 	cmp	r3, #0
4800e7d0:	1a000001 	bne	4800e7dc <fdt_path_offset+0x140>
4800e7d4:	e51b3018 	ldr	r3, [fp, #-24]
4800e7d8:	e50b3014 	str	r3, [fp, #-20]
4800e7dc:	e51b2014 	ldr	r2, [fp, #-20]
4800e7e0:	e51b3008 	ldr	r3, [fp, #-8]
4800e7e4:	e0633002 	rsb	r3, r3, r2
4800e7e8:	e51b0020 	ldr	r0, [fp, #-32]
4800e7ec:	e51b100c 	ldr	r1, [fp, #-12]
4800e7f0:	e51b2008 	ldr	r2, [fp, #-8]
4800e7f4:	ebffff63 	bl	4800e588 <fdt_subnode_offset_namelen>
4800e7f8:	e50b000c 	str	r0, [fp, #-12]
4800e7fc:	e51b300c 	ldr	r3, [fp, #-12]
4800e800:	e3530000 	cmp	r3, #0
4800e804:	aa000001 	bge	4800e810 <fdt_path_offset+0x174>
4800e808:	e51b300c 	ldr	r3, [fp, #-12]
4800e80c:	ea000006 	b	4800e82c <fdt_path_offset+0x190>
4800e810:	e51b3014 	ldr	r3, [fp, #-20]
4800e814:	e50b3008 	str	r3, [fp, #-8]
4800e818:	e51b3008 	ldr	r3, [fp, #-8]
4800e81c:	e5d33000 	ldrb	r3, [r3]
4800e820:	e3530000 	cmp	r3, #0
4800e824:	1affffd5 	bne	4800e780 <fdt_path_offset+0xe4>
4800e828:	e51b300c 	ldr	r3, [fp, #-12]
4800e82c:	e1a00003 	mov	r0, r3
4800e830:	e24bd004 	sub	sp, fp, #4
4800e834:	e8bd8800 	pop	{fp, pc}

4800e838 <fdt_get_name>:
4800e838:	e92d4800 	push	{fp, lr}
4800e83c:	e28db004 	add	fp, sp, #4
4800e840:	e24dd018 	sub	sp, sp, #24
4800e844:	e50b0010 	str	r0, [fp, #-16]
4800e848:	e50b1014 	str	r1, [fp, #-20]
4800e84c:	e50b2018 	str	r2, [fp, #-24]
4800e850:	e51b0010 	ldr	r0, [fp, #-16]
4800e854:	e51b1014 	ldr	r1, [fp, #-20]
4800e858:	ebfffcdb 	bl	4800dbcc <_fdt_offset_ptr>
4800e85c:	e50b000c 	str	r0, [fp, #-12]
4800e860:	e51b0010 	ldr	r0, [fp, #-16]
4800e864:	ebfffa8b 	bl	4800d298 <fdt_check_header>
4800e868:	e50b0008 	str	r0, [fp, #-8]
4800e86c:	e51b3008 	ldr	r3, [fp, #-8]
4800e870:	e3530000 	cmp	r3, #0
4800e874:	1a000014 	bne	4800e8cc <fdt_get_name+0x94>
4800e878:	e51b0010 	ldr	r0, [fp, #-16]
4800e87c:	e51b1014 	ldr	r1, [fp, #-20]
4800e880:	ebfffbdd 	bl	4800d7fc <_fdt_check_node_offset>
4800e884:	e50b0008 	str	r0, [fp, #-8]
4800e888:	e51b3008 	ldr	r3, [fp, #-8]
4800e88c:	e3530000 	cmp	r3, #0
4800e890:	ba00000d 	blt	4800e8cc <fdt_get_name+0x94>
4800e894:	e51b3018 	ldr	r3, [fp, #-24]
4800e898:	e3530000 	cmp	r3, #0
4800e89c:	0a000007 	beq	4800e8c0 <fdt_get_name+0x88>
4800e8a0:	e51b300c 	ldr	r3, [fp, #-12]
4800e8a4:	e2833004 	add	r3, r3, #4
4800e8a8:	e1a00003 	mov	r0, r3
4800e8ac:	ebfff110 	bl	4800acf4 <arm_strlen>
4800e8b0:	e1a03000 	mov	r3, r0
4800e8b4:	e1a02003 	mov	r2, r3
4800e8b8:	e51b3018 	ldr	r3, [fp, #-24]
4800e8bc:	e5832000 	str	r2, [r3]
4800e8c0:	e51b300c 	ldr	r3, [fp, #-12]
4800e8c4:	e2833004 	add	r3, r3, #4
4800e8c8:	ea000006 	b	4800e8e8 <fdt_get_name+0xb0>
4800e8cc:	e51b3018 	ldr	r3, [fp, #-24]
4800e8d0:	e3530000 	cmp	r3, #0
4800e8d4:	0a000002 	beq	4800e8e4 <fdt_get_name+0xac>
4800e8d8:	e51b3018 	ldr	r3, [fp, #-24]
4800e8dc:	e51b2008 	ldr	r2, [fp, #-8]
4800e8e0:	e5832000 	str	r2, [r3]
4800e8e4:	e3a03000 	mov	r3, #0
4800e8e8:	e1a00003 	mov	r0, r3
4800e8ec:	e24bd004 	sub	sp, fp, #4
4800e8f0:	e8bd8800 	pop	{fp, pc}

4800e8f4 <fdt_first_property_offset>:
4800e8f4:	e92d4800 	push	{fp, lr}
4800e8f8:	e28db004 	add	fp, sp, #4
4800e8fc:	e24dd010 	sub	sp, sp, #16
4800e900:	e50b0010 	str	r0, [fp, #-16]
4800e904:	e50b1014 	str	r1, [fp, #-20]
4800e908:	e51b0010 	ldr	r0, [fp, #-16]
4800e90c:	e51b1014 	ldr	r1, [fp, #-20]
4800e910:	ebfffbb9 	bl	4800d7fc <_fdt_check_node_offset>
4800e914:	e50b0008 	str	r0, [fp, #-8]
4800e918:	e51b3008 	ldr	r3, [fp, #-8]
4800e91c:	e3530000 	cmp	r3, #0
4800e920:	aa000001 	bge	4800e92c <fdt_first_property_offset+0x38>
4800e924:	e51b3008 	ldr	r3, [fp, #-8]
4800e928:	ea000003 	b	4800e93c <fdt_first_property_offset+0x48>
4800e92c:	e51b0010 	ldr	r0, [fp, #-16]
4800e930:	e51b1008 	ldr	r1, [fp, #-8]
4800e934:	ebfffef1 	bl	4800e500 <_nextprop>
4800e938:	e1a03000 	mov	r3, r0
4800e93c:	e1a00003 	mov	r0, r3
4800e940:	e24bd004 	sub	sp, fp, #4
4800e944:	e8bd8800 	pop	{fp, pc}

4800e948 <fdt_next_property_offset>:
4800e948:	e92d4800 	push	{fp, lr}
4800e94c:	e28db004 	add	fp, sp, #4
4800e950:	e24dd008 	sub	sp, sp, #8
4800e954:	e50b0008 	str	r0, [fp, #-8]
4800e958:	e50b100c 	str	r1, [fp, #-12]
4800e95c:	e51b0008 	ldr	r0, [fp, #-8]
4800e960:	e51b100c 	ldr	r1, [fp, #-12]
4800e964:	ebfffbbf 	bl	4800d868 <_fdt_check_prop_offset>
4800e968:	e50b000c 	str	r0, [fp, #-12]
4800e96c:	e51b300c 	ldr	r3, [fp, #-12]
4800e970:	e3530000 	cmp	r3, #0
4800e974:	aa000001 	bge	4800e980 <fdt_next_property_offset+0x38>
4800e978:	e51b300c 	ldr	r3, [fp, #-12]
4800e97c:	ea000003 	b	4800e990 <fdt_next_property_offset+0x48>
4800e980:	e51b0008 	ldr	r0, [fp, #-8]
4800e984:	e51b100c 	ldr	r1, [fp, #-12]
4800e988:	ebfffedc 	bl	4800e500 <_nextprop>
4800e98c:	e1a03000 	mov	r3, r0
4800e990:	e1a00003 	mov	r0, r3
4800e994:	e24bd004 	sub	sp, fp, #4
4800e998:	e8bd8800 	pop	{fp, pc}

4800e99c <fdt_get_property_by_offset>:
4800e99c:	e92d4800 	push	{fp, lr}
4800e9a0:	e28db004 	add	fp, sp, #4
4800e9a4:	e24dd018 	sub	sp, sp, #24
4800e9a8:	e50b0010 	str	r0, [fp, #-16]
4800e9ac:	e50b1014 	str	r1, [fp, #-20]
4800e9b0:	e50b2018 	str	r2, [fp, #-24]
4800e9b4:	e51b0010 	ldr	r0, [fp, #-16]
4800e9b8:	e51b1014 	ldr	r1, [fp, #-20]
4800e9bc:	ebfffba9 	bl	4800d868 <_fdt_check_prop_offset>
4800e9c0:	e50b0008 	str	r0, [fp, #-8]
4800e9c4:	e51b3008 	ldr	r3, [fp, #-8]
4800e9c8:	e3530000 	cmp	r3, #0
4800e9cc:	aa000007 	bge	4800e9f0 <fdt_get_property_by_offset+0x54>
4800e9d0:	e51b3018 	ldr	r3, [fp, #-24]
4800e9d4:	e3530000 	cmp	r3, #0
4800e9d8:	0a000002 	beq	4800e9e8 <fdt_get_property_by_offset+0x4c>
4800e9dc:	e51b3018 	ldr	r3, [fp, #-24]
4800e9e0:	e51b2008 	ldr	r2, [fp, #-8]
4800e9e4:	e5832000 	str	r2, [r3]
4800e9e8:	e3a03000 	mov	r3, #0
4800e9ec:	ea00001b 	b	4800ea60 <fdt_get_property_by_offset+0xc4>
4800e9f0:	e51b0010 	ldr	r0, [fp, #-16]
4800e9f4:	e51b1014 	ldr	r1, [fp, #-20]
4800e9f8:	ebfffc73 	bl	4800dbcc <_fdt_offset_ptr>
4800e9fc:	e50b000c 	str	r0, [fp, #-12]
4800ea00:	e51b3018 	ldr	r3, [fp, #-24]
4800ea04:	e3530000 	cmp	r3, #0
4800ea08:	0a000013 	beq	4800ea5c <fdt_get_property_by_offset+0xc0>
4800ea0c:	e51b300c 	ldr	r3, [fp, #-12]
4800ea10:	e5933004 	ldr	r3, [r3, #4]
4800ea14:	e1a02c03 	lsl	r2, r3, #24
4800ea18:	e51b300c 	ldr	r3, [fp, #-12]
4800ea1c:	e5933004 	ldr	r3, [r3, #4]
4800ea20:	e2033cff 	and	r3, r3, #65280	; 0xff00
4800ea24:	e1a03403 	lsl	r3, r3, #8
4800ea28:	e1822003 	orr	r2, r2, r3
4800ea2c:	e51b300c 	ldr	r3, [fp, #-12]
4800ea30:	e5933004 	ldr	r3, [r3, #4]
4800ea34:	e20338ff 	and	r3, r3, #16711680	; 0xff0000
4800ea38:	e1a03423 	lsr	r3, r3, #8
4800ea3c:	e1822003 	orr	r2, r2, r3
4800ea40:	e51b300c 	ldr	r3, [fp, #-12]
4800ea44:	e5933004 	ldr	r3, [r3, #4]
4800ea48:	e1a03c23 	lsr	r3, r3, #24
4800ea4c:	e1823003 	orr	r3, r2, r3
4800ea50:	e1a02003 	mov	r2, r3
4800ea54:	e51b3018 	ldr	r3, [fp, #-24]
4800ea58:	e5832000 	str	r2, [r3]
4800ea5c:	e51b300c 	ldr	r3, [fp, #-12]
4800ea60:	e1a00003 	mov	r0, r3
4800ea64:	e24bd004 	sub	sp, fp, #4
4800ea68:	e8bd8800 	pop	{fp, pc}

4800ea6c <fdt_get_property_namelen>:
4800ea6c:	e92d4800 	push	{fp, lr}
4800ea70:	e28db004 	add	fp, sp, #4
4800ea74:	e24dd018 	sub	sp, sp, #24
4800ea78:	e50b0010 	str	r0, [fp, #-16]
4800ea7c:	e50b1014 	str	r1, [fp, #-20]
4800ea80:	e50b2018 	str	r2, [fp, #-24]
4800ea84:	e50b301c 	str	r3, [fp, #-28]
4800ea88:	e51b0010 	ldr	r0, [fp, #-16]
4800ea8c:	e51b1014 	ldr	r1, [fp, #-20]
4800ea90:	ebffff97 	bl	4800e8f4 <fdt_first_property_offset>
4800ea94:	e50b0014 	str	r0, [fp, #-20]
4800ea98:	ea000029 	b	4800eb44 <fdt_get_property_namelen+0xd8>
4800ea9c:	e51b0010 	ldr	r0, [fp, #-16]
4800eaa0:	e51b1014 	ldr	r1, [fp, #-20]
4800eaa4:	e59b2004 	ldr	r2, [fp, #4]
4800eaa8:	ebffffbb 	bl	4800e99c <fdt_get_property_by_offset>
4800eaac:	e50b0008 	str	r0, [fp, #-8]
4800eab0:	e51b3008 	ldr	r3, [fp, #-8]
4800eab4:	e3530000 	cmp	r3, #0
4800eab8:	1a000002 	bne	4800eac8 <fdt_get_property_namelen+0x5c>
4800eabc:	e3e0300c 	mvn	r3, #12
4800eac0:	e50b3014 	str	r3, [fp, #-20]
4800eac4:	ea000021 	b	4800eb50 <fdt_get_property_namelen+0xe4>
4800eac8:	e51b3008 	ldr	r3, [fp, #-8]
4800eacc:	e5933008 	ldr	r3, [r3, #8]
4800ead0:	e1a02c03 	lsl	r2, r3, #24
4800ead4:	e51b3008 	ldr	r3, [fp, #-8]
4800ead8:	e5933008 	ldr	r3, [r3, #8]
4800eadc:	e2033cff 	and	r3, r3, #65280	; 0xff00
4800eae0:	e1a03403 	lsl	r3, r3, #8
4800eae4:	e1822003 	orr	r2, r2, r3
4800eae8:	e51b3008 	ldr	r3, [fp, #-8]
4800eaec:	e5933008 	ldr	r3, [r3, #8]
4800eaf0:	e20338ff 	and	r3, r3, #16711680	; 0xff0000
4800eaf4:	e1a03423 	lsr	r3, r3, #8
4800eaf8:	e1822003 	orr	r2, r2, r3
4800eafc:	e51b3008 	ldr	r3, [fp, #-8]
4800eb00:	e5933008 	ldr	r3, [r3, #8]
4800eb04:	e1a03c23 	lsr	r3, r3, #24
4800eb08:	e1823003 	orr	r3, r2, r3
4800eb0c:	e51b0010 	ldr	r0, [fp, #-16]
4800eb10:	e1a01003 	mov	r1, r3
4800eb14:	e51b2018 	ldr	r2, [fp, #-24]
4800eb18:	e51b301c 	ldr	r3, [fp, #-28]
4800eb1c:	ebfffcc2 	bl	4800de2c <_fdt_string_eq>
4800eb20:	e1a03000 	mov	r3, r0
4800eb24:	e3530000 	cmp	r3, #0
4800eb28:	0a000001 	beq	4800eb34 <fdt_get_property_namelen+0xc8>
4800eb2c:	e51b3008 	ldr	r3, [fp, #-8]
4800eb30:	ea00000d 	b	4800eb6c <fdt_get_property_namelen+0x100>
4800eb34:	e51b0010 	ldr	r0, [fp, #-16]
4800eb38:	e51b1014 	ldr	r1, [fp, #-20]
4800eb3c:	ebffff81 	bl	4800e948 <fdt_next_property_offset>
4800eb40:	e50b0014 	str	r0, [fp, #-20]
4800eb44:	e51b3014 	ldr	r3, [fp, #-20]
4800eb48:	e3530000 	cmp	r3, #0
4800eb4c:	aaffffd2 	bge	4800ea9c <fdt_get_property_namelen+0x30>
4800eb50:	e59b3004 	ldr	r3, [fp, #4]
4800eb54:	e3530000 	cmp	r3, #0
4800eb58:	0a000002 	beq	4800eb68 <fdt_get_property_namelen+0xfc>
4800eb5c:	e59b3004 	ldr	r3, [fp, #4]
4800eb60:	e51b2014 	ldr	r2, [fp, #-20]
4800eb64:	e5832000 	str	r2, [r3]
4800eb68:	e3a03000 	mov	r3, #0
4800eb6c:	e1a00003 	mov	r0, r3
4800eb70:	e24bd004 	sub	sp, fp, #4
4800eb74:	e8bd8800 	pop	{fp, pc}

4800eb78 <fdt_get_property>:
4800eb78:	e92d4800 	push	{fp, lr}
4800eb7c:	e28db004 	add	fp, sp, #4
4800eb80:	e24dd018 	sub	sp, sp, #24
4800eb84:	e50b0008 	str	r0, [fp, #-8]
4800eb88:	e50b100c 	str	r1, [fp, #-12]
4800eb8c:	e50b2010 	str	r2, [fp, #-16]
4800eb90:	e50b3014 	str	r3, [fp, #-20]
4800eb94:	e51b0010 	ldr	r0, [fp, #-16]
4800eb98:	ebfff055 	bl	4800acf4 <arm_strlen>
4800eb9c:	e1a03000 	mov	r3, r0
4800eba0:	e51b2014 	ldr	r2, [fp, #-20]
4800eba4:	e58d2000 	str	r2, [sp]
4800eba8:	e51b0008 	ldr	r0, [fp, #-8]
4800ebac:	e51b100c 	ldr	r1, [fp, #-12]
4800ebb0:	e51b2010 	ldr	r2, [fp, #-16]
4800ebb4:	ebffffac 	bl	4800ea6c <fdt_get_property_namelen>
4800ebb8:	e1a03000 	mov	r3, r0
4800ebbc:	e1a00003 	mov	r0, r3
4800ebc0:	e24bd004 	sub	sp, fp, #4
4800ebc4:	e8bd8800 	pop	{fp, pc}

4800ebc8 <fdt_getprop_namelen>:
4800ebc8:	e92d4800 	push	{fp, lr}
4800ebcc:	e28db004 	add	fp, sp, #4
4800ebd0:	e24dd020 	sub	sp, sp, #32
4800ebd4:	e50b0010 	str	r0, [fp, #-16]
4800ebd8:	e50b1014 	str	r1, [fp, #-20]
4800ebdc:	e50b2018 	str	r2, [fp, #-24]
4800ebe0:	e50b301c 	str	r3, [fp, #-28]
4800ebe4:	e59b3004 	ldr	r3, [fp, #4]
4800ebe8:	e58d3000 	str	r3, [sp]
4800ebec:	e51b0010 	ldr	r0, [fp, #-16]
4800ebf0:	e51b1014 	ldr	r1, [fp, #-20]
4800ebf4:	e51b2018 	ldr	r2, [fp, #-24]
4800ebf8:	e51b301c 	ldr	r3, [fp, #-28]
4800ebfc:	ebffff9a 	bl	4800ea6c <fdt_get_property_namelen>
4800ec00:	e50b0008 	str	r0, [fp, #-8]
4800ec04:	e51b3008 	ldr	r3, [fp, #-8]
4800ec08:	e3530000 	cmp	r3, #0
4800ec0c:	1a000001 	bne	4800ec18 <fdt_getprop_namelen+0x50>
4800ec10:	e3a03000 	mov	r3, #0
4800ec14:	ea000001 	b	4800ec20 <fdt_getprop_namelen+0x58>
4800ec18:	e51b3008 	ldr	r3, [fp, #-8]
4800ec1c:	e283300c 	add	r3, r3, #12
4800ec20:	e1a00003 	mov	r0, r3
4800ec24:	e24bd004 	sub	sp, fp, #4
4800ec28:	e8bd8800 	pop	{fp, pc}

4800ec2c <fdt_getprop_by_offset>:
4800ec2c:	e92d4800 	push	{fp, lr}
4800ec30:	e28db004 	add	fp, sp, #4
4800ec34:	e24dd018 	sub	sp, sp, #24
4800ec38:	e50b0010 	str	r0, [fp, #-16]
4800ec3c:	e50b1014 	str	r1, [fp, #-20]
4800ec40:	e50b2018 	str	r2, [fp, #-24]
4800ec44:	e50b301c 	str	r3, [fp, #-28]
4800ec48:	e51b0010 	ldr	r0, [fp, #-16]
4800ec4c:	e51b1014 	ldr	r1, [fp, #-20]
4800ec50:	e51b201c 	ldr	r2, [fp, #-28]
4800ec54:	ebffff50 	bl	4800e99c <fdt_get_property_by_offset>
4800ec58:	e50b0008 	str	r0, [fp, #-8]
4800ec5c:	e51b3008 	ldr	r3, [fp, #-8]
4800ec60:	e3530000 	cmp	r3, #0
4800ec64:	1a000001 	bne	4800ec70 <fdt_getprop_by_offset+0x44>
4800ec68:	e3a03000 	mov	r3, #0
4800ec6c:	ea00001b 	b	4800ece0 <fdt_getprop_by_offset+0xb4>
4800ec70:	e51b3018 	ldr	r3, [fp, #-24]
4800ec74:	e3530000 	cmp	r3, #0
4800ec78:	0a000016 	beq	4800ecd8 <fdt_getprop_by_offset+0xac>
4800ec7c:	e51b3008 	ldr	r3, [fp, #-8]
4800ec80:	e5933008 	ldr	r3, [r3, #8]
4800ec84:	e1a02c03 	lsl	r2, r3, #24
4800ec88:	e51b3008 	ldr	r3, [fp, #-8]
4800ec8c:	e5933008 	ldr	r3, [r3, #8]
4800ec90:	e2033cff 	and	r3, r3, #65280	; 0xff00
4800ec94:	e1a03403 	lsl	r3, r3, #8
4800ec98:	e1822003 	orr	r2, r2, r3
4800ec9c:	e51b3008 	ldr	r3, [fp, #-8]
4800eca0:	e5933008 	ldr	r3, [r3, #8]
4800eca4:	e20338ff 	and	r3, r3, #16711680	; 0xff0000
4800eca8:	e1a03423 	lsr	r3, r3, #8
4800ecac:	e1822003 	orr	r2, r2, r3
4800ecb0:	e51b3008 	ldr	r3, [fp, #-8]
4800ecb4:	e5933008 	ldr	r3, [r3, #8]
4800ecb8:	e1a03c23 	lsr	r3, r3, #24
4800ecbc:	e1823003 	orr	r3, r2, r3
4800ecc0:	e51b0010 	ldr	r0, [fp, #-16]
4800ecc4:	e1a01003 	mov	r1, r3
4800ecc8:	ebfffc39 	bl	4800ddb4 <fdt_string>
4800eccc:	e1a02000 	mov	r2, r0
4800ecd0:	e51b3018 	ldr	r3, [fp, #-24]
4800ecd4:	e5832000 	str	r2, [r3]
4800ecd8:	e51b3008 	ldr	r3, [fp, #-8]
4800ecdc:	e283300c 	add	r3, r3, #12
4800ece0:	e1a00003 	mov	r0, r3
4800ece4:	e24bd004 	sub	sp, fp, #4
4800ece8:	e8bd8800 	pop	{fp, pc}

4800ecec <fdt_getprop>:
4800ecec:	e92d4800 	push	{fp, lr}
4800ecf0:	e28db004 	add	fp, sp, #4
4800ecf4:	e24dd018 	sub	sp, sp, #24
4800ecf8:	e50b0008 	str	r0, [fp, #-8]
4800ecfc:	e50b100c 	str	r1, [fp, #-12]
4800ed00:	e50b2010 	str	r2, [fp, #-16]
4800ed04:	e50b3014 	str	r3, [fp, #-20]
4800ed08:	e51b0010 	ldr	r0, [fp, #-16]
4800ed0c:	ebffeff8 	bl	4800acf4 <arm_strlen>
4800ed10:	e1a03000 	mov	r3, r0
4800ed14:	e51b2014 	ldr	r2, [fp, #-20]
4800ed18:	e58d2000 	str	r2, [sp]
4800ed1c:	e51b0008 	ldr	r0, [fp, #-8]
4800ed20:	e51b100c 	ldr	r1, [fp, #-12]
4800ed24:	e51b2010 	ldr	r2, [fp, #-16]
4800ed28:	ebffffa6 	bl	4800ebc8 <fdt_getprop_namelen>
4800ed2c:	e1a03000 	mov	r3, r0
4800ed30:	e1a00003 	mov	r0, r3
4800ed34:	e24bd004 	sub	sp, fp, #4
4800ed38:	e8bd8800 	pop	{fp, pc}

4800ed3c <fdt_get_phandle>:
4800ed3c:	e92d4800 	push	{fp, lr}
4800ed40:	e28db004 	add	fp, sp, #4
4800ed44:	e24dd010 	sub	sp, sp, #16
4800ed48:	e50b0010 	str	r0, [fp, #-16]
4800ed4c:	e50b1014 	str	r1, [fp, #-20]
4800ed50:	e24b300c 	sub	r3, fp, #12
4800ed54:	e51b0010 	ldr	r0, [fp, #-16]
4800ed58:	e51b1014 	ldr	r1, [fp, #-20]
4800ed5c:	e30627e0 	movw	r2, #26592	; 0x67e0
4800ed60:	e3442801 	movt	r2, #18433	; 0x4801
4800ed64:	ebffffe0 	bl	4800ecec <fdt_getprop>
4800ed68:	e50b0008 	str	r0, [fp, #-8]
4800ed6c:	e51b3008 	ldr	r3, [fp, #-8]
4800ed70:	e3530000 	cmp	r3, #0
4800ed74:	0a000002 	beq	4800ed84 <fdt_get_phandle+0x48>
4800ed78:	e51b300c 	ldr	r3, [fp, #-12]
4800ed7c:	e3530004 	cmp	r3, #4
4800ed80:	0a00000e 	beq	4800edc0 <fdt_get_phandle+0x84>
4800ed84:	e24b300c 	sub	r3, fp, #12
4800ed88:	e51b0010 	ldr	r0, [fp, #-16]
4800ed8c:	e51b1014 	ldr	r1, [fp, #-20]
4800ed90:	e30627e8 	movw	r2, #26600	; 0x67e8
4800ed94:	e3442801 	movt	r2, #18433	; 0x4801
4800ed98:	ebffffd3 	bl	4800ecec <fdt_getprop>
4800ed9c:	e50b0008 	str	r0, [fp, #-8]
4800eda0:	e51b3008 	ldr	r3, [fp, #-8]
4800eda4:	e3530000 	cmp	r3, #0
4800eda8:	0a000002 	beq	4800edb8 <fdt_get_phandle+0x7c>
4800edac:	e51b300c 	ldr	r3, [fp, #-12]
4800edb0:	e3530004 	cmp	r3, #4
4800edb4:	0a000001 	beq	4800edc0 <fdt_get_phandle+0x84>
4800edb8:	e3a03000 	mov	r3, #0
4800edbc:	ea000010 	b	4800ee04 <fdt_get_phandle+0xc8>
4800edc0:	e51b3008 	ldr	r3, [fp, #-8]
4800edc4:	e5933000 	ldr	r3, [r3]
4800edc8:	e1a02c03 	lsl	r2, r3, #24
4800edcc:	e51b3008 	ldr	r3, [fp, #-8]
4800edd0:	e5933000 	ldr	r3, [r3]
4800edd4:	e2033cff 	and	r3, r3, #65280	; 0xff00
4800edd8:	e1a03403 	lsl	r3, r3, #8
4800eddc:	e1822003 	orr	r2, r2, r3
4800ede0:	e51b3008 	ldr	r3, [fp, #-8]
4800ede4:	e5933000 	ldr	r3, [r3]
4800ede8:	e20338ff 	and	r3, r3, #16711680	; 0xff0000
4800edec:	e1a03423 	lsr	r3, r3, #8
4800edf0:	e1822003 	orr	r2, r2, r3
4800edf4:	e51b3008 	ldr	r3, [fp, #-8]
4800edf8:	e5933000 	ldr	r3, [r3]
4800edfc:	e1a03c23 	lsr	r3, r3, #24
4800ee00:	e1823003 	orr	r3, r2, r3
4800ee04:	e1a00003 	mov	r0, r3
4800ee08:	e24bd004 	sub	sp, fp, #4
4800ee0c:	e8bd8800 	pop	{fp, pc}

4800ee10 <fdt_get_alias_namelen>:
4800ee10:	e92d4800 	push	{fp, lr}
4800ee14:	e28db004 	add	fp, sp, #4
4800ee18:	e24dd020 	sub	sp, sp, #32
4800ee1c:	e50b0010 	str	r0, [fp, #-16]
4800ee20:	e50b1014 	str	r1, [fp, #-20]
4800ee24:	e50b2018 	str	r2, [fp, #-24]
4800ee28:	e51b0010 	ldr	r0, [fp, #-16]
4800ee2c:	e30617f8 	movw	r1, #26616	; 0x67f8
4800ee30:	e3441801 	movt	r1, #18433	; 0x4801
4800ee34:	ebfffe18 	bl	4800e69c <fdt_path_offset>
4800ee38:	e50b0008 	str	r0, [fp, #-8]
4800ee3c:	e51b3008 	ldr	r3, [fp, #-8]
4800ee40:	e3530000 	cmp	r3, #0
4800ee44:	aa000001 	bge	4800ee50 <fdt_get_alias_namelen+0x40>
4800ee48:	e3a03000 	mov	r3, #0
4800ee4c:	ea000007 	b	4800ee70 <fdt_get_alias_namelen+0x60>
4800ee50:	e3a03000 	mov	r3, #0
4800ee54:	e58d3000 	str	r3, [sp]
4800ee58:	e51b0010 	ldr	r0, [fp, #-16]
4800ee5c:	e51b1008 	ldr	r1, [fp, #-8]
4800ee60:	e51b2014 	ldr	r2, [fp, #-20]
4800ee64:	e51b3018 	ldr	r3, [fp, #-24]
4800ee68:	ebffff56 	bl	4800ebc8 <fdt_getprop_namelen>
4800ee6c:	e1a03000 	mov	r3, r0
4800ee70:	e1a00003 	mov	r0, r3
4800ee74:	e24bd004 	sub	sp, fp, #4
4800ee78:	e8bd8800 	pop	{fp, pc}

4800ee7c <fdt_get_alias>:
4800ee7c:	e92d4800 	push	{fp, lr}
4800ee80:	e28db004 	add	fp, sp, #4
4800ee84:	e24dd008 	sub	sp, sp, #8
4800ee88:	e50b0008 	str	r0, [fp, #-8]
4800ee8c:	e50b100c 	str	r1, [fp, #-12]
4800ee90:	e51b000c 	ldr	r0, [fp, #-12]
4800ee94:	ebffef96 	bl	4800acf4 <arm_strlen>
4800ee98:	e1a03000 	mov	r3, r0
4800ee9c:	e51b0008 	ldr	r0, [fp, #-8]
4800eea0:	e51b100c 	ldr	r1, [fp, #-12]
4800eea4:	e1a02003 	mov	r2, r3
4800eea8:	ebffffd8 	bl	4800ee10 <fdt_get_alias_namelen>
4800eeac:	e1a03000 	mov	r3, r0
4800eeb0:	e1a00003 	mov	r0, r3
4800eeb4:	e24bd004 	sub	sp, fp, #4
4800eeb8:	e8bd8800 	pop	{fp, pc}

4800eebc <fdt_get_path>:
4800eebc:	e92d4800 	push	{fp, lr}
4800eec0:	e28db004 	add	fp, sp, #4
4800eec4:	e24dd030 	sub	sp, sp, #48	; 0x30
4800eec8:	e50b0028 	str	r0, [fp, #-40]	; 0x28
4800eecc:	e50b102c 	str	r1, [fp, #-44]	; 0x2c
4800eed0:	e50b2030 	str	r2, [fp, #-48]	; 0x30
4800eed4:	e50b3034 	str	r3, [fp, #-52]	; 0x34
4800eed8:	e3a03000 	mov	r3, #0
4800eedc:	e50b3008 	str	r3, [fp, #-8]
4800eee0:	e3a03000 	mov	r3, #0
4800eee4:	e50b300c 	str	r3, [fp, #-12]
4800eee8:	e51b0028 	ldr	r0, [fp, #-40]	; 0x28
4800eeec:	ebfff8e9 	bl	4800d298 <fdt_check_header>
4800eef0:	e50b0014 	str	r0, [fp, #-20]
4800eef4:	e51b3014 	ldr	r3, [fp, #-20]
4800eef8:	e3530000 	cmp	r3, #0
4800eefc:	0a000001 	beq	4800ef08 <fdt_get_path+0x4c>
4800ef00:	e51b3014 	ldr	r3, [fp, #-20]
4800ef04:	ea00007a 	b	4800f0f4 <fdt_get_path+0x238>
4800ef08:	e51b3034 	ldr	r3, [fp, #-52]	; 0x34
4800ef0c:	e3530001 	cmp	r3, #1
4800ef10:	ca000001 	bgt	4800ef1c <fdt_get_path+0x60>
4800ef14:	e3e03002 	mvn	r3, #2
4800ef18:	ea000075 	b	4800f0f4 <fdt_get_path+0x238>
4800ef1c:	e3a03000 	mov	r3, #0
4800ef20:	e50b3010 	str	r3, [fp, #-16]
4800ef24:	e3a03000 	mov	r3, #0
4800ef28:	e50b301c 	str	r3, [fp, #-28]
4800ef2c:	ea00005b 	b	4800f0a0 <fdt_get_path+0x1e4>
4800ef30:	ea00000c 	b	4800ef68 <fdt_get_path+0xac>
4800ef34:	e51b300c 	ldr	r3, [fp, #-12]
4800ef38:	e2433001 	sub	r3, r3, #1
4800ef3c:	e50b300c 	str	r3, [fp, #-12]
4800ef40:	e51b300c 	ldr	r3, [fp, #-12]
4800ef44:	e2433001 	sub	r3, r3, #1
4800ef48:	e51b2030 	ldr	r2, [fp, #-48]	; 0x30
4800ef4c:	e0823003 	add	r3, r2, r3
4800ef50:	e5d33000 	ldrb	r3, [r3]
4800ef54:	e353002f 	cmp	r3, #47	; 0x2f
4800ef58:	1afffff5 	bne	4800ef34 <fdt_get_path+0x78>
4800ef5c:	e51b3008 	ldr	r3, [fp, #-8]
4800ef60:	e2433001 	sub	r3, r3, #1
4800ef64:	e50b3008 	str	r3, [fp, #-8]
4800ef68:	e51b301c 	ldr	r3, [fp, #-28]
4800ef6c:	e51b2008 	ldr	r2, [fp, #-8]
4800ef70:	e1520003 	cmp	r2, r3
4800ef74:	caffffee 	bgt	4800ef34 <fdt_get_path+0x78>
4800ef78:	e51b301c 	ldr	r3, [fp, #-28]
4800ef7c:	e51b2008 	ldr	r2, [fp, #-8]
4800ef80:	e1520003 	cmp	r2, r3
4800ef84:	ba000027 	blt	4800f028 <fdt_get_path+0x16c>
4800ef88:	e24b3020 	sub	r3, fp, #32
4800ef8c:	e51b0028 	ldr	r0, [fp, #-40]	; 0x28
4800ef90:	e51b1010 	ldr	r1, [fp, #-16]
4800ef94:	e1a02003 	mov	r2, r3
4800ef98:	ebfffe26 	bl	4800e838 <fdt_get_name>
4800ef9c:	e50b0018 	str	r0, [fp, #-24]
4800efa0:	e51b3018 	ldr	r3, [fp, #-24]
4800efa4:	e3530000 	cmp	r3, #0
4800efa8:	1a000001 	bne	4800efb4 <fdt_get_path+0xf8>
4800efac:	e51b3020 	ldr	r3, [fp, #-32]
4800efb0:	ea00004f 	b	4800f0f4 <fdt_get_path+0x238>
4800efb4:	e51b2020 	ldr	r2, [fp, #-32]
4800efb8:	e51b300c 	ldr	r3, [fp, #-12]
4800efbc:	e0823003 	add	r3, r2, r3
4800efc0:	e2832001 	add	r2, r3, #1
4800efc4:	e51b3034 	ldr	r3, [fp, #-52]	; 0x34
4800efc8:	e1520003 	cmp	r2, r3
4800efcc:	ca000015 	bgt	4800f028 <fdt_get_path+0x16c>
4800efd0:	e51b300c 	ldr	r3, [fp, #-12]
4800efd4:	e51b2030 	ldr	r2, [fp, #-48]	; 0x30
4800efd8:	e0822003 	add	r2, r2, r3
4800efdc:	e51b3020 	ldr	r3, [fp, #-32]
4800efe0:	e1a00002 	mov	r0, r2
4800efe4:	e51b1018 	ldr	r1, [fp, #-24]
4800efe8:	e1a02003 	mov	r2, r3
4800efec:	ebffee0a 	bl	4800a81c <arm_memcpy>
4800eff0:	e51b3020 	ldr	r3, [fp, #-32]
4800eff4:	e51b200c 	ldr	r2, [fp, #-12]
4800eff8:	e0823003 	add	r3, r2, r3
4800effc:	e50b300c 	str	r3, [fp, #-12]
4800f000:	e51b300c 	ldr	r3, [fp, #-12]
4800f004:	e2832001 	add	r2, r3, #1
4800f008:	e50b200c 	str	r2, [fp, #-12]
4800f00c:	e51b2030 	ldr	r2, [fp, #-48]	; 0x30
4800f010:	e0823003 	add	r3, r2, r3
4800f014:	e3a0202f 	mov	r2, #47	; 0x2f
4800f018:	e5c32000 	strb	r2, [r3]
4800f01c:	e51b3008 	ldr	r3, [fp, #-8]
4800f020:	e2833001 	add	r3, r3, #1
4800f024:	e50b3008 	str	r3, [fp, #-8]
4800f028:	e51b2010 	ldr	r2, [fp, #-16]
4800f02c:	e51b302c 	ldr	r3, [fp, #-44]	; 0x2c
4800f030:	e1520003 	cmp	r2, r3
4800f034:	1a000013 	bne	4800f088 <fdt_get_path+0x1cc>
4800f038:	e51b301c 	ldr	r3, [fp, #-28]
4800f03c:	e2832001 	add	r2, r3, #1
4800f040:	e51b3008 	ldr	r3, [fp, #-8]
4800f044:	e1520003 	cmp	r2, r3
4800f048:	da000001 	ble	4800f054 <fdt_get_path+0x198>
4800f04c:	e3e03002 	mvn	r3, #2
4800f050:	ea000027 	b	4800f0f4 <fdt_get_path+0x238>
4800f054:	e51b300c 	ldr	r3, [fp, #-12]
4800f058:	e3530001 	cmp	r3, #1
4800f05c:	da000002 	ble	4800f06c <fdt_get_path+0x1b0>
4800f060:	e51b300c 	ldr	r3, [fp, #-12]
4800f064:	e2433001 	sub	r3, r3, #1
4800f068:	e50b300c 	str	r3, [fp, #-12]
4800f06c:	e51b300c 	ldr	r3, [fp, #-12]
4800f070:	e51b2030 	ldr	r2, [fp, #-48]	; 0x30
4800f074:	e0823003 	add	r3, r2, r3
4800f078:	e3a02000 	mov	r2, #0
4800f07c:	e5c32000 	strb	r2, [r3]
4800f080:	e3a03000 	mov	r3, #0
4800f084:	ea00001a 	b	4800f0f4 <fdt_get_path+0x238>
4800f088:	e24b301c 	sub	r3, fp, #28
4800f08c:	e51b0028 	ldr	r0, [fp, #-40]	; 0x28
4800f090:	e51b1010 	ldr	r1, [fp, #-16]
4800f094:	e1a02003 	mov	r2, r3
4800f098:	ebfffa0d 	bl	4800d8d4 <fdt_next_node>
4800f09c:	e50b0010 	str	r0, [fp, #-16]
4800f0a0:	e51b3010 	ldr	r3, [fp, #-16]
4800f0a4:	e3530000 	cmp	r3, #0
4800f0a8:	ba000003 	blt	4800f0bc <fdt_get_path+0x200>
4800f0ac:	e51b2010 	ldr	r2, [fp, #-16]
4800f0b0:	e51b302c 	ldr	r3, [fp, #-44]	; 0x2c
4800f0b4:	e1520003 	cmp	r2, r3
4800f0b8:	daffff9c 	ble	4800ef30 <fdt_get_path+0x74>
4800f0bc:	e51b3010 	ldr	r3, [fp, #-16]
4800f0c0:	e3730001 	cmn	r3, #1
4800f0c4:	0a000002 	beq	4800f0d4 <fdt_get_path+0x218>
4800f0c8:	e51b3010 	ldr	r3, [fp, #-16]
4800f0cc:	e3530000 	cmp	r3, #0
4800f0d0:	ba000001 	blt	4800f0dc <fdt_get_path+0x220>
4800f0d4:	e3e03003 	mvn	r3, #3
4800f0d8:	ea000005 	b	4800f0f4 <fdt_get_path+0x238>
4800f0dc:	e51b3010 	ldr	r3, [fp, #-16]
4800f0e0:	e3730004 	cmn	r3, #4
4800f0e4:	1a000001 	bne	4800f0f0 <fdt_get_path+0x234>
4800f0e8:	e3e0300a 	mvn	r3, #10
4800f0ec:	ea000000 	b	4800f0f4 <fdt_get_path+0x238>
4800f0f0:	e51b3010 	ldr	r3, [fp, #-16]
4800f0f4:	e1a00003 	mov	r0, r3
4800f0f8:	e24bd004 	sub	sp, fp, #4
4800f0fc:	e8bd8800 	pop	{fp, pc}

4800f100 <fdt_supernode_atdepth_offset>:
4800f100:	e92d4800 	push	{fp, lr}
4800f104:	e28db004 	add	fp, sp, #4
4800f108:	e24dd020 	sub	sp, sp, #32
4800f10c:	e50b0018 	str	r0, [fp, #-24]
4800f110:	e50b101c 	str	r1, [fp, #-28]
4800f114:	e50b2020 	str	r2, [fp, #-32]
4800f118:	e50b3024 	str	r3, [fp, #-36]	; 0x24
4800f11c:	e3e0300c 	mvn	r3, #12
4800f120:	e50b300c 	str	r3, [fp, #-12]
4800f124:	e51b0018 	ldr	r0, [fp, #-24]
4800f128:	ebfff85a 	bl	4800d298 <fdt_check_header>
4800f12c:	e50b0010 	str	r0, [fp, #-16]
4800f130:	e51b3010 	ldr	r3, [fp, #-16]
4800f134:	e3530000 	cmp	r3, #0
4800f138:	0a000001 	beq	4800f144 <fdt_supernode_atdepth_offset+0x44>
4800f13c:	e51b3010 	ldr	r3, [fp, #-16]
4800f140:	ea00003c 	b	4800f238 <fdt_supernode_atdepth_offset+0x138>
4800f144:	e51b3020 	ldr	r3, [fp, #-32]
4800f148:	e3530000 	cmp	r3, #0
4800f14c:	aa000001 	bge	4800f158 <fdt_supernode_atdepth_offset+0x58>
4800f150:	e3e03000 	mvn	r3, #0
4800f154:	ea000037 	b	4800f238 <fdt_supernode_atdepth_offset+0x138>
4800f158:	e3a03000 	mov	r3, #0
4800f15c:	e50b3008 	str	r3, [fp, #-8]
4800f160:	e3a03000 	mov	r3, #0
4800f164:	e50b3014 	str	r3, [fp, #-20]
4800f168:	ea00001d 	b	4800f1e4 <fdt_supernode_atdepth_offset+0xe4>
4800f16c:	e51b2014 	ldr	r2, [fp, #-20]
4800f170:	e51b3020 	ldr	r3, [fp, #-32]
4800f174:	e1520003 	cmp	r2, r3
4800f178:	1a000001 	bne	4800f184 <fdt_supernode_atdepth_offset+0x84>
4800f17c:	e51b3008 	ldr	r3, [fp, #-8]
4800f180:	e50b300c 	str	r3, [fp, #-12]
4800f184:	e51b2008 	ldr	r2, [fp, #-8]
4800f188:	e51b301c 	ldr	r3, [fp, #-28]
4800f18c:	e1520003 	cmp	r2, r3
4800f190:	1a00000d 	bne	4800f1cc <fdt_supernode_atdepth_offset+0xcc>
4800f194:	e51b3024 	ldr	r3, [fp, #-36]	; 0x24
4800f198:	e3530000 	cmp	r3, #0
4800f19c:	0a000002 	beq	4800f1ac <fdt_supernode_atdepth_offset+0xac>
4800f1a0:	e51b2014 	ldr	r2, [fp, #-20]
4800f1a4:	e51b3024 	ldr	r3, [fp, #-36]	; 0x24
4800f1a8:	e5832000 	str	r2, [r3]
4800f1ac:	e51b3014 	ldr	r3, [fp, #-20]
4800f1b0:	e51b2020 	ldr	r2, [fp, #-32]
4800f1b4:	e1520003 	cmp	r2, r3
4800f1b8:	da000001 	ble	4800f1c4 <fdt_supernode_atdepth_offset+0xc4>
4800f1bc:	e3e03000 	mvn	r3, #0
4800f1c0:	ea00001c 	b	4800f238 <fdt_supernode_atdepth_offset+0x138>
4800f1c4:	e51b300c 	ldr	r3, [fp, #-12]
4800f1c8:	ea00001a 	b	4800f238 <fdt_supernode_atdepth_offset+0x138>
4800f1cc:	e24b3014 	sub	r3, fp, #20
4800f1d0:	e51b0018 	ldr	r0, [fp, #-24]
4800f1d4:	e51b1008 	ldr	r1, [fp, #-8]
4800f1d8:	e1a02003 	mov	r2, r3
4800f1dc:	ebfff9bc 	bl	4800d8d4 <fdt_next_node>
4800f1e0:	e50b0008 	str	r0, [fp, #-8]
4800f1e4:	e51b3008 	ldr	r3, [fp, #-8]
4800f1e8:	e3530000 	cmp	r3, #0
4800f1ec:	ba000003 	blt	4800f200 <fdt_supernode_atdepth_offset+0x100>
4800f1f0:	e51b2008 	ldr	r2, [fp, #-8]
4800f1f4:	e51b301c 	ldr	r3, [fp, #-28]
4800f1f8:	e1520003 	cmp	r2, r3
4800f1fc:	daffffda 	ble	4800f16c <fdt_supernode_atdepth_offset+0x6c>
4800f200:	e51b3008 	ldr	r3, [fp, #-8]
4800f204:	e3730001 	cmn	r3, #1
4800f208:	0a000002 	beq	4800f218 <fdt_supernode_atdepth_offset+0x118>
4800f20c:	e51b3008 	ldr	r3, [fp, #-8]
4800f210:	e3530000 	cmp	r3, #0
4800f214:	ba000001 	blt	4800f220 <fdt_supernode_atdepth_offset+0x120>
4800f218:	e3e03003 	mvn	r3, #3
4800f21c:	ea000005 	b	4800f238 <fdt_supernode_atdepth_offset+0x138>
4800f220:	e51b3008 	ldr	r3, [fp, #-8]
4800f224:	e3730004 	cmn	r3, #4
4800f228:	1a000001 	bne	4800f234 <fdt_supernode_atdepth_offset+0x134>
4800f22c:	e3e0300a 	mvn	r3, #10
4800f230:	ea000000 	b	4800f238 <fdt_supernode_atdepth_offset+0x138>
4800f234:	e51b3008 	ldr	r3, [fp, #-8]
4800f238:	e1a00003 	mov	r0, r3
4800f23c:	e24bd004 	sub	sp, fp, #4
4800f240:	e8bd8800 	pop	{fp, pc}

4800f244 <fdt_node_depth>:
4800f244:	e92d4800 	push	{fp, lr}
4800f248:	e28db004 	add	fp, sp, #4
4800f24c:	e24dd010 	sub	sp, sp, #16
4800f250:	e50b0010 	str	r0, [fp, #-16]
4800f254:	e50b1014 	str	r1, [fp, #-20]
4800f258:	e24b300c 	sub	r3, fp, #12
4800f25c:	e51b0010 	ldr	r0, [fp, #-16]
4800f260:	e51b1014 	ldr	r1, [fp, #-20]
4800f264:	e3a02000 	mov	r2, #0
4800f268:	ebffffa4 	bl	4800f100 <fdt_supernode_atdepth_offset>
4800f26c:	e50b0008 	str	r0, [fp, #-8]
4800f270:	e51b3008 	ldr	r3, [fp, #-8]
4800f274:	e3530000 	cmp	r3, #0
4800f278:	0a000006 	beq	4800f298 <fdt_node_depth+0x54>
4800f27c:	e51b3008 	ldr	r3, [fp, #-8]
4800f280:	e3530000 	cmp	r3, #0
4800f284:	aa000001 	bge	4800f290 <fdt_node_depth+0x4c>
4800f288:	e51b3008 	ldr	r3, [fp, #-8]
4800f28c:	ea000000 	b	4800f294 <fdt_node_depth+0x50>
4800f290:	e3e0300c 	mvn	r3, #12
4800f294:	ea000000 	b	4800f29c <fdt_node_depth+0x58>
4800f298:	e51b300c 	ldr	r3, [fp, #-12]
4800f29c:	e1a00003 	mov	r0, r3
4800f2a0:	e24bd004 	sub	sp, fp, #4
4800f2a4:	e8bd8800 	pop	{fp, pc}

4800f2a8 <fdt_parent_offset>:
4800f2a8:	e92d4800 	push	{fp, lr}
4800f2ac:	e28db004 	add	fp, sp, #4
4800f2b0:	e24dd010 	sub	sp, sp, #16
4800f2b4:	e50b0010 	str	r0, [fp, #-16]
4800f2b8:	e50b1014 	str	r1, [fp, #-20]
4800f2bc:	e51b0010 	ldr	r0, [fp, #-16]
4800f2c0:	e51b1014 	ldr	r1, [fp, #-20]
4800f2c4:	ebffffde 	bl	4800f244 <fdt_node_depth>
4800f2c8:	e50b0008 	str	r0, [fp, #-8]
4800f2cc:	e51b3008 	ldr	r3, [fp, #-8]
4800f2d0:	e3530000 	cmp	r3, #0
4800f2d4:	aa000001 	bge	4800f2e0 <fdt_parent_offset+0x38>
4800f2d8:	e51b3008 	ldr	r3, [fp, #-8]
4800f2dc:	ea000007 	b	4800f300 <fdt_parent_offset+0x58>
4800f2e0:	e51b3008 	ldr	r3, [fp, #-8]
4800f2e4:	e2433001 	sub	r3, r3, #1
4800f2e8:	e51b0010 	ldr	r0, [fp, #-16]
4800f2ec:	e51b1014 	ldr	r1, [fp, #-20]
4800f2f0:	e1a02003 	mov	r2, r3
4800f2f4:	e3a03000 	mov	r3, #0
4800f2f8:	ebffff80 	bl	4800f100 <fdt_supernode_atdepth_offset>
4800f2fc:	e1a03000 	mov	r3, r0
4800f300:	e1a00003 	mov	r0, r3
4800f304:	e24bd004 	sub	sp, fp, #4
4800f308:	e8bd8800 	pop	{fp, pc}

4800f30c <fdt_node_offset_by_prop_value>:
4800f30c:	e92d4800 	push	{fp, lr}
4800f310:	e28db004 	add	fp, sp, #4
4800f314:	e24dd020 	sub	sp, sp, #32
4800f318:	e50b0018 	str	r0, [fp, #-24]
4800f31c:	e50b101c 	str	r1, [fp, #-28]
4800f320:	e50b2020 	str	r2, [fp, #-32]
4800f324:	e50b3024 	str	r3, [fp, #-36]	; 0x24
4800f328:	e51b0018 	ldr	r0, [fp, #-24]
4800f32c:	ebfff7d9 	bl	4800d298 <fdt_check_header>
4800f330:	e50b000c 	str	r0, [fp, #-12]
4800f334:	e51b300c 	ldr	r3, [fp, #-12]
4800f338:	e3530000 	cmp	r3, #0
4800f33c:	0a000001 	beq	4800f348 <fdt_node_offset_by_prop_value+0x3c>
4800f340:	e51b300c 	ldr	r3, [fp, #-12]
4800f344:	ea000025 	b	4800f3e0 <fdt_node_offset_by_prop_value+0xd4>
4800f348:	e51b0018 	ldr	r0, [fp, #-24]
4800f34c:	e51b101c 	ldr	r1, [fp, #-28]
4800f350:	e3a02000 	mov	r2, #0
4800f354:	ebfff95e 	bl	4800d8d4 <fdt_next_node>
4800f358:	e50b0008 	str	r0, [fp, #-8]
4800f35c:	ea00001b 	b	4800f3d0 <fdt_node_offset_by_prop_value+0xc4>
4800f360:	e24b3014 	sub	r3, fp, #20
4800f364:	e51b0018 	ldr	r0, [fp, #-24]
4800f368:	e51b1008 	ldr	r1, [fp, #-8]
4800f36c:	e51b2020 	ldr	r2, [fp, #-32]
4800f370:	ebfffe5d 	bl	4800ecec <fdt_getprop>
4800f374:	e50b0010 	str	r0, [fp, #-16]
4800f378:	e51b3010 	ldr	r3, [fp, #-16]
4800f37c:	e3530000 	cmp	r3, #0
4800f380:	0a00000d 	beq	4800f3bc <fdt_node_offset_by_prop_value+0xb0>
4800f384:	e51b2014 	ldr	r2, [fp, #-20]
4800f388:	e59b3004 	ldr	r3, [fp, #4]
4800f38c:	e1520003 	cmp	r2, r3
4800f390:	1a000009 	bne	4800f3bc <fdt_node_offset_by_prop_value+0xb0>
4800f394:	e51b3014 	ldr	r3, [fp, #-20]
4800f398:	e51b0010 	ldr	r0, [fp, #-16]
4800f39c:	e51b1024 	ldr	r1, [fp, #-36]	; 0x24
4800f3a0:	e1a02003 	mov	r2, r3
4800f3a4:	ebffedeb 	bl	4800ab58 <arm_memcmp>
4800f3a8:	e1a03000 	mov	r3, r0
4800f3ac:	e3530000 	cmp	r3, #0
4800f3b0:	1a000001 	bne	4800f3bc <fdt_node_offset_by_prop_value+0xb0>
4800f3b4:	e51b3008 	ldr	r3, [fp, #-8]
4800f3b8:	ea000008 	b	4800f3e0 <fdt_node_offset_by_prop_value+0xd4>
4800f3bc:	e51b0018 	ldr	r0, [fp, #-24]
4800f3c0:	e51b1008 	ldr	r1, [fp, #-8]
4800f3c4:	e3a02000 	mov	r2, #0
4800f3c8:	ebfff941 	bl	4800d8d4 <fdt_next_node>
4800f3cc:	e50b0008 	str	r0, [fp, #-8]
4800f3d0:	e51b3008 	ldr	r3, [fp, #-8]
4800f3d4:	e3530000 	cmp	r3, #0
4800f3d8:	aaffffe0 	bge	4800f360 <fdt_node_offset_by_prop_value+0x54>
4800f3dc:	e51b3008 	ldr	r3, [fp, #-8]
4800f3e0:	e1a00003 	mov	r0, r3
4800f3e4:	e24bd004 	sub	sp, fp, #4
4800f3e8:	e8bd8800 	pop	{fp, pc}

4800f3ec <fdt_node_offset_by_phandle>:
4800f3ec:	e92d4800 	push	{fp, lr}
4800f3f0:	e28db004 	add	fp, sp, #4
4800f3f4:	e24dd010 	sub	sp, sp, #16
4800f3f8:	e50b0010 	str	r0, [fp, #-16]
4800f3fc:	e50b1014 	str	r1, [fp, #-20]
4800f400:	e51b3014 	ldr	r3, [fp, #-20]
4800f404:	e3530000 	cmp	r3, #0
4800f408:	0a000002 	beq	4800f418 <fdt_node_offset_by_phandle+0x2c>
4800f40c:	e51b3014 	ldr	r3, [fp, #-20]
4800f410:	e3730001 	cmn	r3, #1
4800f414:	1a000001 	bne	4800f420 <fdt_node_offset_by_phandle+0x34>
4800f418:	e3e03005 	mvn	r3, #5
4800f41c:	ea00001f 	b	4800f4a0 <fdt_node_offset_by_phandle+0xb4>
4800f420:	e51b0010 	ldr	r0, [fp, #-16]
4800f424:	ebfff79b 	bl	4800d298 <fdt_check_header>
4800f428:	e50b000c 	str	r0, [fp, #-12]
4800f42c:	e51b300c 	ldr	r3, [fp, #-12]
4800f430:	e3530000 	cmp	r3, #0
4800f434:	0a000001 	beq	4800f440 <fdt_node_offset_by_phandle+0x54>
4800f438:	e51b300c 	ldr	r3, [fp, #-12]
4800f43c:	ea000017 	b	4800f4a0 <fdt_node_offset_by_phandle+0xb4>
4800f440:	e51b0010 	ldr	r0, [fp, #-16]
4800f444:	e3e01000 	mvn	r1, #0
4800f448:	e3a02000 	mov	r2, #0
4800f44c:	ebfff920 	bl	4800d8d4 <fdt_next_node>
4800f450:	e50b0008 	str	r0, [fp, #-8]
4800f454:	ea00000d 	b	4800f490 <fdt_node_offset_by_phandle+0xa4>
4800f458:	e51b0010 	ldr	r0, [fp, #-16]
4800f45c:	e51b1008 	ldr	r1, [fp, #-8]
4800f460:	ebfffe35 	bl	4800ed3c <fdt_get_phandle>
4800f464:	e1a02000 	mov	r2, r0
4800f468:	e51b3014 	ldr	r3, [fp, #-20]
4800f46c:	e1520003 	cmp	r2, r3
4800f470:	1a000001 	bne	4800f47c <fdt_node_offset_by_phandle+0x90>
4800f474:	e51b3008 	ldr	r3, [fp, #-8]
4800f478:	ea000008 	b	4800f4a0 <fdt_node_offset_by_phandle+0xb4>
4800f47c:	e51b0010 	ldr	r0, [fp, #-16]
4800f480:	e51b1008 	ldr	r1, [fp, #-8]
4800f484:	e3a02000 	mov	r2, #0
4800f488:	ebfff911 	bl	4800d8d4 <fdt_next_node>
4800f48c:	e50b0008 	str	r0, [fp, #-8]
4800f490:	e51b3008 	ldr	r3, [fp, #-8]
4800f494:	e3530000 	cmp	r3, #0
4800f498:	aaffffee 	bge	4800f458 <fdt_node_offset_by_phandle+0x6c>
4800f49c:	e51b3008 	ldr	r3, [fp, #-8]
4800f4a0:	e1a00003 	mov	r0, r3
4800f4a4:	e24bd004 	sub	sp, fp, #4
4800f4a8:	e8bd8800 	pop	{fp, pc}

4800f4ac <_fdt_stringlist_contains>:
4800f4ac:	e92d4800 	push	{fp, lr}
4800f4b0:	e28db004 	add	fp, sp, #4
4800f4b4:	e24dd018 	sub	sp, sp, #24
4800f4b8:	e50b0010 	str	r0, [fp, #-16]
4800f4bc:	e50b1014 	str	r1, [fp, #-20]
4800f4c0:	e50b2018 	str	r2, [fp, #-24]
4800f4c4:	e51b0018 	ldr	r0, [fp, #-24]
4800f4c8:	ebffee09 	bl	4800acf4 <arm_strlen>
4800f4cc:	e1a03000 	mov	r3, r0
4800f4d0:	e50b3008 	str	r3, [fp, #-8]
4800f4d4:	ea00001e 	b	4800f554 <_fdt_stringlist_contains+0xa8>
4800f4d8:	e51b3008 	ldr	r3, [fp, #-8]
4800f4dc:	e2833001 	add	r3, r3, #1
4800f4e0:	e51b0018 	ldr	r0, [fp, #-24]
4800f4e4:	e51b1010 	ldr	r1, [fp, #-16]
4800f4e8:	e1a02003 	mov	r2, r3
4800f4ec:	ebffed99 	bl	4800ab58 <arm_memcmp>
4800f4f0:	e1a03000 	mov	r3, r0
4800f4f4:	e3530000 	cmp	r3, #0
4800f4f8:	1a000001 	bne	4800f504 <_fdt_stringlist_contains+0x58>
4800f4fc:	e3a03001 	mov	r3, #1
4800f500:	ea000018 	b	4800f568 <_fdt_stringlist_contains+0xbc>
4800f504:	e51b0010 	ldr	r0, [fp, #-16]
4800f508:	e3a01000 	mov	r1, #0
4800f50c:	e51b2014 	ldr	r2, [fp, #-20]
4800f510:	ebffedbf 	bl	4800ac14 <arm_memchr>
4800f514:	e50b000c 	str	r0, [fp, #-12]
4800f518:	e51b300c 	ldr	r3, [fp, #-12]
4800f51c:	e3530000 	cmp	r3, #0
4800f520:	1a000001 	bne	4800f52c <_fdt_stringlist_contains+0x80>
4800f524:	e3a03000 	mov	r3, #0
4800f528:	ea00000e 	b	4800f568 <_fdt_stringlist_contains+0xbc>
4800f52c:	e51b200c 	ldr	r2, [fp, #-12]
4800f530:	e51b3010 	ldr	r3, [fp, #-16]
4800f534:	e0633002 	rsb	r3, r3, r2
4800f538:	e1e03003 	mvn	r3, r3
4800f53c:	e51b2014 	ldr	r2, [fp, #-20]
4800f540:	e0823003 	add	r3, r2, r3
4800f544:	e50b3014 	str	r3, [fp, #-20]
4800f548:	e51b300c 	ldr	r3, [fp, #-12]
4800f54c:	e2833001 	add	r3, r3, #1
4800f550:	e50b3010 	str	r3, [fp, #-16]
4800f554:	e51b2014 	ldr	r2, [fp, #-20]
4800f558:	e51b3008 	ldr	r3, [fp, #-8]
4800f55c:	e1520003 	cmp	r2, r3
4800f560:	aaffffdc 	bge	4800f4d8 <_fdt_stringlist_contains+0x2c>
4800f564:	e3a03000 	mov	r3, #0
4800f568:	e1a00003 	mov	r0, r3
4800f56c:	e24bd004 	sub	sp, fp, #4
4800f570:	e8bd8800 	pop	{fp, pc}

4800f574 <fdt_node_check_compatible>:
4800f574:	e92d4800 	push	{fp, lr}
4800f578:	e28db004 	add	fp, sp, #4
4800f57c:	e24dd018 	sub	sp, sp, #24
4800f580:	e50b0010 	str	r0, [fp, #-16]
4800f584:	e50b1014 	str	r1, [fp, #-20]
4800f588:	e50b2018 	str	r2, [fp, #-24]
4800f58c:	e24b300c 	sub	r3, fp, #12
4800f590:	e51b0010 	ldr	r0, [fp, #-16]
4800f594:	e51b1014 	ldr	r1, [fp, #-20]
4800f598:	e3062804 	movw	r2, #26628	; 0x6804
4800f59c:	e3442801 	movt	r2, #18433	; 0x4801
4800f5a0:	ebfffdd1 	bl	4800ecec <fdt_getprop>
4800f5a4:	e50b0008 	str	r0, [fp, #-8]
4800f5a8:	e51b3008 	ldr	r3, [fp, #-8]
4800f5ac:	e3530000 	cmp	r3, #0
4800f5b0:	1a000001 	bne	4800f5bc <fdt_node_check_compatible+0x48>
4800f5b4:	e51b300c 	ldr	r3, [fp, #-12]
4800f5b8:	ea00000a 	b	4800f5e8 <fdt_node_check_compatible+0x74>
4800f5bc:	e51b300c 	ldr	r3, [fp, #-12]
4800f5c0:	e51b0008 	ldr	r0, [fp, #-8]
4800f5c4:	e1a01003 	mov	r1, r3
4800f5c8:	e51b2018 	ldr	r2, [fp, #-24]
4800f5cc:	ebffffb6 	bl	4800f4ac <_fdt_stringlist_contains>
4800f5d0:	e1a03000 	mov	r3, r0
4800f5d4:	e3530000 	cmp	r3, #0
4800f5d8:	0a000001 	beq	4800f5e4 <fdt_node_check_compatible+0x70>
4800f5dc:	e3a03000 	mov	r3, #0
4800f5e0:	ea000000 	b	4800f5e8 <fdt_node_check_compatible+0x74>
4800f5e4:	e3a03001 	mov	r3, #1
4800f5e8:	e1a00003 	mov	r0, r3
4800f5ec:	e24bd004 	sub	sp, fp, #4
4800f5f0:	e8bd8800 	pop	{fp, pc}

4800f5f4 <fdt_node_offset_by_compatible>:
4800f5f4:	e92d4800 	push	{fp, lr}
4800f5f8:	e28db004 	add	fp, sp, #4
4800f5fc:	e24dd020 	sub	sp, sp, #32
4800f600:	e50b0018 	str	r0, [fp, #-24]
4800f604:	e50b101c 	str	r1, [fp, #-28]
4800f608:	e50b2020 	str	r2, [fp, #-32]
4800f60c:	e51b0018 	ldr	r0, [fp, #-24]
4800f610:	ebfff720 	bl	4800d298 <fdt_check_header>
4800f614:	e50b000c 	str	r0, [fp, #-12]
4800f618:	e51b300c 	ldr	r3, [fp, #-12]
4800f61c:	e3530000 	cmp	r3, #0
4800f620:	0a000001 	beq	4800f62c <fdt_node_offset_by_compatible+0x38>
4800f624:	e51b300c 	ldr	r3, [fp, #-12]
4800f628:	ea000020 	b	4800f6b0 <fdt_node_offset_by_compatible+0xbc>
4800f62c:	e51b0018 	ldr	r0, [fp, #-24]
4800f630:	e51b101c 	ldr	r1, [fp, #-28]
4800f634:	e3a02000 	mov	r2, #0
4800f638:	ebfff8a5 	bl	4800d8d4 <fdt_next_node>
4800f63c:	e50b0008 	str	r0, [fp, #-8]
4800f640:	ea000016 	b	4800f6a0 <fdt_node_offset_by_compatible+0xac>
4800f644:	e51b0018 	ldr	r0, [fp, #-24]
4800f648:	e51b1008 	ldr	r1, [fp, #-8]
4800f64c:	e51b2020 	ldr	r2, [fp, #-32]
4800f650:	ebffffc7 	bl	4800f574 <fdt_node_check_compatible>
4800f654:	e50b0010 	str	r0, [fp, #-16]
4800f658:	e51b3010 	ldr	r3, [fp, #-16]
4800f65c:	e3530000 	cmp	r3, #0
4800f660:	aa000004 	bge	4800f678 <fdt_node_offset_by_compatible+0x84>
4800f664:	e51b3010 	ldr	r3, [fp, #-16]
4800f668:	e3730001 	cmn	r3, #1
4800f66c:	0a000001 	beq	4800f678 <fdt_node_offset_by_compatible+0x84>
4800f670:	e51b3010 	ldr	r3, [fp, #-16]
4800f674:	ea00000d 	b	4800f6b0 <fdt_node_offset_by_compatible+0xbc>
4800f678:	e51b3010 	ldr	r3, [fp, #-16]
4800f67c:	e3530000 	cmp	r3, #0
4800f680:	1a000001 	bne	4800f68c <fdt_node_offset_by_compatible+0x98>
4800f684:	e51b3008 	ldr	r3, [fp, #-8]
4800f688:	ea000008 	b	4800f6b0 <fdt_node_offset_by_compatible+0xbc>
4800f68c:	e51b0018 	ldr	r0, [fp, #-24]
4800f690:	e51b1008 	ldr	r1, [fp, #-8]
4800f694:	e3a02000 	mov	r2, #0
4800f698:	ebfff88d 	bl	4800d8d4 <fdt_next_node>
4800f69c:	e50b0008 	str	r0, [fp, #-8]
4800f6a0:	e51b3008 	ldr	r3, [fp, #-8]
4800f6a4:	e3530000 	cmp	r3, #0
4800f6a8:	aaffffe5 	bge	4800f644 <fdt_node_offset_by_compatible+0x50>
4800f6ac:	e51b3008 	ldr	r3, [fp, #-8]
4800f6b0:	e1a00003 	mov	r0, r3
4800f6b4:	e24bd004 	sub	sp, fp, #4
4800f6b8:	e8bd8800 	pop	{fp, pc}

4800f6bc <fdt_set_magic>:
4800f6bc:	e52db004 	push	{fp}		; (str fp, [sp, #-4]!)
4800f6c0:	e28db000 	add	fp, sp, #0
4800f6c4:	e24dd014 	sub	sp, sp, #20
4800f6c8:	e50b0010 	str	r0, [fp, #-16]
4800f6cc:	e50b1014 	str	r1, [fp, #-20]
4800f6d0:	e51b3010 	ldr	r3, [fp, #-16]
4800f6d4:	e50b3008 	str	r3, [fp, #-8]
4800f6d8:	e51b3014 	ldr	r3, [fp, #-20]
4800f6dc:	e1a02c03 	lsl	r2, r3, #24
4800f6e0:	e51b3014 	ldr	r3, [fp, #-20]
4800f6e4:	e2033cff 	and	r3, r3, #65280	; 0xff00
4800f6e8:	e1a03403 	lsl	r3, r3, #8
4800f6ec:	e1822003 	orr	r2, r2, r3
4800f6f0:	e51b3014 	ldr	r3, [fp, #-20]
4800f6f4:	e20338ff 	and	r3, r3, #16711680	; 0xff0000
4800f6f8:	e1a03423 	lsr	r3, r3, #8
4800f6fc:	e1822003 	orr	r2, r2, r3
4800f700:	e51b3014 	ldr	r3, [fp, #-20]
4800f704:	e1a03c23 	lsr	r3, r3, #24
4800f708:	e1822003 	orr	r2, r2, r3
4800f70c:	e51b3008 	ldr	r3, [fp, #-8]
4800f710:	e5832000 	str	r2, [r3]
4800f714:	e24bd000 	sub	sp, fp, #0
4800f718:	e49db004 	pop	{fp}		; (ldr fp, [sp], #4)
4800f71c:	e12fff1e 	bx	lr

4800f720 <fdt_set_totalsize>:
4800f720:	e52db004 	push	{fp}		; (str fp, [sp, #-4]!)
4800f724:	e28db000 	add	fp, sp, #0
4800f728:	e24dd014 	sub	sp, sp, #20
4800f72c:	e50b0010 	str	r0, [fp, #-16]
4800f730:	e50b1014 	str	r1, [fp, #-20]
4800f734:	e51b3010 	ldr	r3, [fp, #-16]
4800f738:	e50b3008 	str	r3, [fp, #-8]
4800f73c:	e51b3014 	ldr	r3, [fp, #-20]
4800f740:	e1a02c03 	lsl	r2, r3, #24
4800f744:	e51b3014 	ldr	r3, [fp, #-20]
4800f748:	e2033cff 	and	r3, r3, #65280	; 0xff00
4800f74c:	e1a03403 	lsl	r3, r3, #8
4800f750:	e1822003 	orr	r2, r2, r3
4800f754:	e51b3014 	ldr	r3, [fp, #-20]
4800f758:	e20338ff 	and	r3, r3, #16711680	; 0xff0000
4800f75c:	e1a03423 	lsr	r3, r3, #8
4800f760:	e1822003 	orr	r2, r2, r3
4800f764:	e51b3014 	ldr	r3, [fp, #-20]
4800f768:	e1a03c23 	lsr	r3, r3, #24
4800f76c:	e1822003 	orr	r2, r2, r3
4800f770:	e51b3008 	ldr	r3, [fp, #-8]
4800f774:	e5832004 	str	r2, [r3, #4]
4800f778:	e24bd000 	sub	sp, fp, #0
4800f77c:	e49db004 	pop	{fp}		; (ldr fp, [sp], #4)
4800f780:	e12fff1e 	bx	lr

4800f784 <fdt_set_off_dt_struct>:
4800f784:	e52db004 	push	{fp}		; (str fp, [sp, #-4]!)
4800f788:	e28db000 	add	fp, sp, #0
4800f78c:	e24dd014 	sub	sp, sp, #20
4800f790:	e50b0010 	str	r0, [fp, #-16]
4800f794:	e50b1014 	str	r1, [fp, #-20]
4800f798:	e51b3010 	ldr	r3, [fp, #-16]
4800f79c:	e50b3008 	str	r3, [fp, #-8]
4800f7a0:	e51b3014 	ldr	r3, [fp, #-20]
4800f7a4:	e1a02c03 	lsl	r2, r3, #24
4800f7a8:	e51b3014 	ldr	r3, [fp, #-20]
4800f7ac:	e2033cff 	and	r3, r3, #65280	; 0xff00
4800f7b0:	e1a03403 	lsl	r3, r3, #8
4800f7b4:	e1822003 	orr	r2, r2, r3
4800f7b8:	e51b3014 	ldr	r3, [fp, #-20]
4800f7bc:	e20338ff 	and	r3, r3, #16711680	; 0xff0000
4800f7c0:	e1a03423 	lsr	r3, r3, #8
4800f7c4:	e1822003 	orr	r2, r2, r3
4800f7c8:	e51b3014 	ldr	r3, [fp, #-20]
4800f7cc:	e1a03c23 	lsr	r3, r3, #24
4800f7d0:	e1822003 	orr	r2, r2, r3
4800f7d4:	e51b3008 	ldr	r3, [fp, #-8]
4800f7d8:	e5832008 	str	r2, [r3, #8]
4800f7dc:	e24bd000 	sub	sp, fp, #0
4800f7e0:	e49db004 	pop	{fp}		; (ldr fp, [sp], #4)
4800f7e4:	e12fff1e 	bx	lr

4800f7e8 <fdt_set_off_dt_strings>:
4800f7e8:	e52db004 	push	{fp}		; (str fp, [sp, #-4]!)
4800f7ec:	e28db000 	add	fp, sp, #0
4800f7f0:	e24dd014 	sub	sp, sp, #20
4800f7f4:	e50b0010 	str	r0, [fp, #-16]
4800f7f8:	e50b1014 	str	r1, [fp, #-20]
4800f7fc:	e51b3010 	ldr	r3, [fp, #-16]
4800f800:	e50b3008 	str	r3, [fp, #-8]
4800f804:	e51b3014 	ldr	r3, [fp, #-20]
4800f808:	e1a02c03 	lsl	r2, r3, #24
4800f80c:	e51b3014 	ldr	r3, [fp, #-20]
4800f810:	e2033cff 	and	r3, r3, #65280	; 0xff00
4800f814:	e1a03403 	lsl	r3, r3, #8
4800f818:	e1822003 	orr	r2, r2, r3
4800f81c:	e51b3014 	ldr	r3, [fp, #-20]
4800f820:	e20338ff 	and	r3, r3, #16711680	; 0xff0000
4800f824:	e1a03423 	lsr	r3, r3, #8
4800f828:	e1822003 	orr	r2, r2, r3
4800f82c:	e51b3014 	ldr	r3, [fp, #-20]
4800f830:	e1a03c23 	lsr	r3, r3, #24
4800f834:	e1822003 	orr	r2, r2, r3
4800f838:	e51b3008 	ldr	r3, [fp, #-8]
4800f83c:	e583200c 	str	r2, [r3, #12]
4800f840:	e24bd000 	sub	sp, fp, #0
4800f844:	e49db004 	pop	{fp}		; (ldr fp, [sp], #4)
4800f848:	e12fff1e 	bx	lr

4800f84c <fdt_set_off_mem_rsvmap>:
4800f84c:	e52db004 	push	{fp}		; (str fp, [sp, #-4]!)
4800f850:	e28db000 	add	fp, sp, #0
4800f854:	e24dd014 	sub	sp, sp, #20
4800f858:	e50b0010 	str	r0, [fp, #-16]
4800f85c:	e50b1014 	str	r1, [fp, #-20]
4800f860:	e51b3010 	ldr	r3, [fp, #-16]
4800f864:	e50b3008 	str	r3, [fp, #-8]
4800f868:	e51b3014 	ldr	r3, [fp, #-20]
4800f86c:	e1a02c03 	lsl	r2, r3, #24
4800f870:	e51b3014 	ldr	r3, [fp, #-20]
4800f874:	e2033cff 	and	r3, r3, #65280	; 0xff00
4800f878:	e1a03403 	lsl	r3, r3, #8
4800f87c:	e1822003 	orr	r2, r2, r3
4800f880:	e51b3014 	ldr	r3, [fp, #-20]
4800f884:	e20338ff 	and	r3, r3, #16711680	; 0xff0000
4800f888:	e1a03423 	lsr	r3, r3, #8
4800f88c:	e1822003 	orr	r2, r2, r3
4800f890:	e51b3014 	ldr	r3, [fp, #-20]
4800f894:	e1a03c23 	lsr	r3, r3, #24
4800f898:	e1822003 	orr	r2, r2, r3
4800f89c:	e51b3008 	ldr	r3, [fp, #-8]
4800f8a0:	e5832010 	str	r2, [r3, #16]
4800f8a4:	e24bd000 	sub	sp, fp, #0
4800f8a8:	e49db004 	pop	{fp}		; (ldr fp, [sp], #4)
4800f8ac:	e12fff1e 	bx	lr

4800f8b0 <fdt_set_version>:
4800f8b0:	e52db004 	push	{fp}		; (str fp, [sp, #-4]!)
4800f8b4:	e28db000 	add	fp, sp, #0
4800f8b8:	e24dd014 	sub	sp, sp, #20
4800f8bc:	e50b0010 	str	r0, [fp, #-16]
4800f8c0:	e50b1014 	str	r1, [fp, #-20]
4800f8c4:	e51b3010 	ldr	r3, [fp, #-16]
4800f8c8:	e50b3008 	str	r3, [fp, #-8]
4800f8cc:	e51b3014 	ldr	r3, [fp, #-20]
4800f8d0:	e1a02c03 	lsl	r2, r3, #24
4800f8d4:	e51b3014 	ldr	r3, [fp, #-20]
4800f8d8:	e2033cff 	and	r3, r3, #65280	; 0xff00
4800f8dc:	e1a03403 	lsl	r3, r3, #8
4800f8e0:	e1822003 	orr	r2, r2, r3
4800f8e4:	e51b3014 	ldr	r3, [fp, #-20]
4800f8e8:	e20338ff 	and	r3, r3, #16711680	; 0xff0000
4800f8ec:	e1a03423 	lsr	r3, r3, #8
4800f8f0:	e1822003 	orr	r2, r2, r3
4800f8f4:	e51b3014 	ldr	r3, [fp, #-20]
4800f8f8:	e1a03c23 	lsr	r3, r3, #24
4800f8fc:	e1822003 	orr	r2, r2, r3
4800f900:	e51b3008 	ldr	r3, [fp, #-8]
4800f904:	e5832014 	str	r2, [r3, #20]
4800f908:	e24bd000 	sub	sp, fp, #0
4800f90c:	e49db004 	pop	{fp}		; (ldr fp, [sp], #4)
4800f910:	e12fff1e 	bx	lr

4800f914 <fdt_set_last_comp_version>:
4800f914:	e52db004 	push	{fp}		; (str fp, [sp, #-4]!)
4800f918:	e28db000 	add	fp, sp, #0
4800f91c:	e24dd014 	sub	sp, sp, #20
4800f920:	e50b0010 	str	r0, [fp, #-16]
4800f924:	e50b1014 	str	r1, [fp, #-20]
4800f928:	e51b3010 	ldr	r3, [fp, #-16]
4800f92c:	e50b3008 	str	r3, [fp, #-8]
4800f930:	e51b3014 	ldr	r3, [fp, #-20]
4800f934:	e1a02c03 	lsl	r2, r3, #24
4800f938:	e51b3014 	ldr	r3, [fp, #-20]
4800f93c:	e2033cff 	and	r3, r3, #65280	; 0xff00
4800f940:	e1a03403 	lsl	r3, r3, #8
4800f944:	e1822003 	orr	r2, r2, r3
4800f948:	e51b3014 	ldr	r3, [fp, #-20]
4800f94c:	e20338ff 	and	r3, r3, #16711680	; 0xff0000
4800f950:	e1a03423 	lsr	r3, r3, #8
4800f954:	e1822003 	orr	r2, r2, r3
4800f958:	e51b3014 	ldr	r3, [fp, #-20]
4800f95c:	e1a03c23 	lsr	r3, r3, #24
4800f960:	e1822003 	orr	r2, r2, r3
4800f964:	e51b3008 	ldr	r3, [fp, #-8]
4800f968:	e5832018 	str	r2, [r3, #24]
4800f96c:	e24bd000 	sub	sp, fp, #0
4800f970:	e49db004 	pop	{fp}		; (ldr fp, [sp], #4)
4800f974:	e12fff1e 	bx	lr

4800f978 <fdt_set_boot_cpuid_phys>:
4800f978:	e52db004 	push	{fp}		; (str fp, [sp, #-4]!)
4800f97c:	e28db000 	add	fp, sp, #0
4800f980:	e24dd014 	sub	sp, sp, #20
4800f984:	e50b0010 	str	r0, [fp, #-16]
4800f988:	e50b1014 	str	r1, [fp, #-20]
4800f98c:	e51b3010 	ldr	r3, [fp, #-16]
4800f990:	e50b3008 	str	r3, [fp, #-8]
4800f994:	e51b3014 	ldr	r3, [fp, #-20]
4800f998:	e1a02c03 	lsl	r2, r3, #24
4800f99c:	e51b3014 	ldr	r3, [fp, #-20]
4800f9a0:	e2033cff 	and	r3, r3, #65280	; 0xff00
4800f9a4:	e1a03403 	lsl	r3, r3, #8
4800f9a8:	e1822003 	orr	r2, r2, r3
4800f9ac:	e51b3014 	ldr	r3, [fp, #-20]
4800f9b0:	e20338ff 	and	r3, r3, #16711680	; 0xff0000
4800f9b4:	e1a03423 	lsr	r3, r3, #8
4800f9b8:	e1822003 	orr	r2, r2, r3
4800f9bc:	e51b3014 	ldr	r3, [fp, #-20]
4800f9c0:	e1a03c23 	lsr	r3, r3, #24
4800f9c4:	e1822003 	orr	r2, r2, r3
4800f9c8:	e51b3008 	ldr	r3, [fp, #-8]
4800f9cc:	e583201c 	str	r2, [r3, #28]
4800f9d0:	e24bd000 	sub	sp, fp, #0
4800f9d4:	e49db004 	pop	{fp}		; (ldr fp, [sp], #4)
4800f9d8:	e12fff1e 	bx	lr

4800f9dc <fdt_set_size_dt_strings>:
4800f9dc:	e52db004 	push	{fp}		; (str fp, [sp, #-4]!)
4800f9e0:	e28db000 	add	fp, sp, #0
4800f9e4:	e24dd014 	sub	sp, sp, #20
4800f9e8:	e50b0010 	str	r0, [fp, #-16]
4800f9ec:	e50b1014 	str	r1, [fp, #-20]
4800f9f0:	e51b3010 	ldr	r3, [fp, #-16]
4800f9f4:	e50b3008 	str	r3, [fp, #-8]
4800f9f8:	e51b3014 	ldr	r3, [fp, #-20]
4800f9fc:	e1a02c03 	lsl	r2, r3, #24
4800fa00:	e51b3014 	ldr	r3, [fp, #-20]
4800fa04:	e2033cff 	and	r3, r3, #65280	; 0xff00
4800fa08:	e1a03403 	lsl	r3, r3, #8
4800fa0c:	e1822003 	orr	r2, r2, r3
4800fa10:	e51b3014 	ldr	r3, [fp, #-20]
4800fa14:	e20338ff 	and	r3, r3, #16711680	; 0xff0000
4800fa18:	e1a03423 	lsr	r3, r3, #8
4800fa1c:	e1822003 	orr	r2, r2, r3
4800fa20:	e51b3014 	ldr	r3, [fp, #-20]
4800fa24:	e1a03c23 	lsr	r3, r3, #24
4800fa28:	e1822003 	orr	r2, r2, r3
4800fa2c:	e51b3008 	ldr	r3, [fp, #-8]
4800fa30:	e5832020 	str	r2, [r3, #32]
4800fa34:	e24bd000 	sub	sp, fp, #0
4800fa38:	e49db004 	pop	{fp}		; (ldr fp, [sp], #4)
4800fa3c:	e12fff1e 	bx	lr

4800fa40 <fdt_set_size_dt_struct>:
4800fa40:	e52db004 	push	{fp}		; (str fp, [sp, #-4]!)
4800fa44:	e28db000 	add	fp, sp, #0
4800fa48:	e24dd014 	sub	sp, sp, #20
4800fa4c:	e50b0010 	str	r0, [fp, #-16]
4800fa50:	e50b1014 	str	r1, [fp, #-20]
4800fa54:	e51b3010 	ldr	r3, [fp, #-16]
4800fa58:	e50b3008 	str	r3, [fp, #-8]
4800fa5c:	e51b3014 	ldr	r3, [fp, #-20]
4800fa60:	e1a02c03 	lsl	r2, r3, #24
4800fa64:	e51b3014 	ldr	r3, [fp, #-20]
4800fa68:	e2033cff 	and	r3, r3, #65280	; 0xff00
4800fa6c:	e1a03403 	lsl	r3, r3, #8
4800fa70:	e1822003 	orr	r2, r2, r3
4800fa74:	e51b3014 	ldr	r3, [fp, #-20]
4800fa78:	e20338ff 	and	r3, r3, #16711680	; 0xff0000
4800fa7c:	e1a03423 	lsr	r3, r3, #8
4800fa80:	e1822003 	orr	r2, r2, r3
4800fa84:	e51b3014 	ldr	r3, [fp, #-20]
4800fa88:	e1a03c23 	lsr	r3, r3, #24
4800fa8c:	e1822003 	orr	r2, r2, r3
4800fa90:	e51b3008 	ldr	r3, [fp, #-8]
4800fa94:	e5832024 	str	r2, [r3, #36]	; 0x24
4800fa98:	e24bd000 	sub	sp, fp, #0
4800fa9c:	e49db004 	pop	{fp}		; (ldr fp, [sp], #4)
4800faa0:	e12fff1e 	bx	lr

4800faa4 <fdt_get_property_w>:
4800faa4:	e92d4800 	push	{fp, lr}
4800faa8:	e28db004 	add	fp, sp, #4
4800faac:	e24dd010 	sub	sp, sp, #16
4800fab0:	e50b0008 	str	r0, [fp, #-8]
4800fab4:	e50b100c 	str	r1, [fp, #-12]
4800fab8:	e50b2010 	str	r2, [fp, #-16]
4800fabc:	e50b3014 	str	r3, [fp, #-20]
4800fac0:	e51b0008 	ldr	r0, [fp, #-8]
4800fac4:	e51b100c 	ldr	r1, [fp, #-12]
4800fac8:	e51b2010 	ldr	r2, [fp, #-16]
4800facc:	e51b3014 	ldr	r3, [fp, #-20]
4800fad0:	ebfffc28 	bl	4800eb78 <fdt_get_property>
4800fad4:	e1a03000 	mov	r3, r0
4800fad8:	e1a00003 	mov	r0, r3
4800fadc:	e24bd004 	sub	sp, fp, #4
4800fae0:	e8bd8800 	pop	{fp, pc}

4800fae4 <_fdt_offset_ptr>:
4800fae4:	e52db004 	push	{fp}		; (str fp, [sp, #-4]!)
4800fae8:	e28db000 	add	fp, sp, #0
4800faec:	e24dd00c 	sub	sp, sp, #12
4800faf0:	e50b0008 	str	r0, [fp, #-8]
4800faf4:	e50b100c 	str	r1, [fp, #-12]
4800faf8:	e51b3008 	ldr	r3, [fp, #-8]
4800fafc:	e5933008 	ldr	r3, [r3, #8]
4800fb00:	e1a02c03 	lsl	r2, r3, #24
4800fb04:	e51b3008 	ldr	r3, [fp, #-8]
4800fb08:	e5933008 	ldr	r3, [r3, #8]
4800fb0c:	e2033cff 	and	r3, r3, #65280	; 0xff00
4800fb10:	e1a03403 	lsl	r3, r3, #8
4800fb14:	e1822003 	orr	r2, r2, r3
4800fb18:	e51b3008 	ldr	r3, [fp, #-8]
4800fb1c:	e5933008 	ldr	r3, [r3, #8]
4800fb20:	e20338ff 	and	r3, r3, #16711680	; 0xff0000
4800fb24:	e1a03423 	lsr	r3, r3, #8
4800fb28:	e1822003 	orr	r2, r2, r3
4800fb2c:	e51b3008 	ldr	r3, [fp, #-8]
4800fb30:	e5933008 	ldr	r3, [r3, #8]
4800fb34:	e1a03c23 	lsr	r3, r3, #24
4800fb38:	e1822003 	orr	r2, r2, r3
4800fb3c:	e51b300c 	ldr	r3, [fp, #-12]
4800fb40:	e0823003 	add	r3, r2, r3
4800fb44:	e51b2008 	ldr	r2, [fp, #-8]
4800fb48:	e0823003 	add	r3, r2, r3
4800fb4c:	e1a00003 	mov	r0, r3
4800fb50:	e24bd000 	sub	sp, fp, #0
4800fb54:	e49db004 	pop	{fp}		; (ldr fp, [sp], #4)
4800fb58:	e12fff1e 	bx	lr

4800fb5c <_fdt_offset_ptr_w>:
4800fb5c:	e92d4800 	push	{fp, lr}
4800fb60:	e28db004 	add	fp, sp, #4
4800fb64:	e24dd008 	sub	sp, sp, #8
4800fb68:	e50b0008 	str	r0, [fp, #-8]
4800fb6c:	e50b100c 	str	r1, [fp, #-12]
4800fb70:	e51b0008 	ldr	r0, [fp, #-8]
4800fb74:	e51b100c 	ldr	r1, [fp, #-12]
4800fb78:	ebffffd9 	bl	4800fae4 <_fdt_offset_ptr>
4800fb7c:	e1a03000 	mov	r3, r0
4800fb80:	e1a00003 	mov	r0, r3
4800fb84:	e24bd004 	sub	sp, fp, #4
4800fb88:	e8bd8800 	pop	{fp, pc}

4800fb8c <_fdt_mem_rsv>:
4800fb8c:	e52db004 	push	{fp}		; (str fp, [sp, #-4]!)
4800fb90:	e28db000 	add	fp, sp, #0
4800fb94:	e24dd014 	sub	sp, sp, #20
4800fb98:	e50b0010 	str	r0, [fp, #-16]
4800fb9c:	e50b1014 	str	r1, [fp, #-20]
4800fba0:	e51b3010 	ldr	r3, [fp, #-16]
4800fba4:	e5933010 	ldr	r3, [r3, #16]
4800fba8:	e1a02c03 	lsl	r2, r3, #24
4800fbac:	e51b3010 	ldr	r3, [fp, #-16]
4800fbb0:	e5933010 	ldr	r3, [r3, #16]
4800fbb4:	e2033cff 	and	r3, r3, #65280	; 0xff00
4800fbb8:	e1a03403 	lsl	r3, r3, #8
4800fbbc:	e1822003 	orr	r2, r2, r3
4800fbc0:	e51b3010 	ldr	r3, [fp, #-16]
4800fbc4:	e5933010 	ldr	r3, [r3, #16]
4800fbc8:	e20338ff 	and	r3, r3, #16711680	; 0xff0000
4800fbcc:	e1a03423 	lsr	r3, r3, #8
4800fbd0:	e1822003 	orr	r2, r2, r3
4800fbd4:	e51b3010 	ldr	r3, [fp, #-16]
4800fbd8:	e5933010 	ldr	r3, [r3, #16]
4800fbdc:	e1a03c23 	lsr	r3, r3, #24
4800fbe0:	e1823003 	orr	r3, r2, r3
4800fbe4:	e51b2010 	ldr	r2, [fp, #-16]
4800fbe8:	e0823003 	add	r3, r2, r3
4800fbec:	e50b3008 	str	r3, [fp, #-8]
4800fbf0:	e51b3014 	ldr	r3, [fp, #-20]
4800fbf4:	e1a03203 	lsl	r3, r3, #4
4800fbf8:	e51b2008 	ldr	r2, [fp, #-8]
4800fbfc:	e0823003 	add	r3, r2, r3
4800fc00:	e1a00003 	mov	r0, r3
4800fc04:	e24bd000 	sub	sp, fp, #0
4800fc08:	e49db004 	pop	{fp}		; (ldr fp, [sp], #4)
4800fc0c:	e12fff1e 	bx	lr

4800fc10 <_fdt_mem_rsv_w>:
4800fc10:	e92d4800 	push	{fp, lr}
4800fc14:	e28db004 	add	fp, sp, #4
4800fc18:	e24dd008 	sub	sp, sp, #8
4800fc1c:	e50b0008 	str	r0, [fp, #-8]
4800fc20:	e50b100c 	str	r1, [fp, #-12]
4800fc24:	e51b0008 	ldr	r0, [fp, #-8]
4800fc28:	e51b100c 	ldr	r1, [fp, #-12]
4800fc2c:	ebffffd6 	bl	4800fb8c <_fdt_mem_rsv>
4800fc30:	e1a03000 	mov	r3, r0
4800fc34:	e1a00003 	mov	r0, r3
4800fc38:	e24bd004 	sub	sp, fp, #4
4800fc3c:	e8bd8800 	pop	{fp, pc}

4800fc40 <_fdt_blocks_misordered>:
4800fc40:	e52db004 	push	{fp}		; (str fp, [sp, #-4]!)
4800fc44:	e28db000 	add	fp, sp, #0
4800fc48:	e24dd014 	sub	sp, sp, #20
4800fc4c:	e50b0008 	str	r0, [fp, #-8]
4800fc50:	e50b100c 	str	r1, [fp, #-12]
4800fc54:	e50b2010 	str	r2, [fp, #-16]
4800fc58:	e51b3008 	ldr	r3, [fp, #-8]
4800fc5c:	e5933010 	ldr	r3, [r3, #16]
4800fc60:	e1a02c03 	lsl	r2, r3, #24
4800fc64:	e51b3008 	ldr	r3, [fp, #-8]
4800fc68:	e5933010 	ldr	r3, [r3, #16]
4800fc6c:	e2033cff 	and	r3, r3, #65280	; 0xff00
4800fc70:	e1a03403 	lsl	r3, r3, #8
4800fc74:	e1822003 	orr	r2, r2, r3
4800fc78:	e51b3008 	ldr	r3, [fp, #-8]
4800fc7c:	e5933010 	ldr	r3, [r3, #16]
4800fc80:	e20338ff 	and	r3, r3, #16711680	; 0xff0000
4800fc84:	e1a03423 	lsr	r3, r3, #8
4800fc88:	e1822003 	orr	r2, r2, r3
4800fc8c:	e51b3008 	ldr	r3, [fp, #-8]
4800fc90:	e5933010 	ldr	r3, [r3, #16]
4800fc94:	e1a03c23 	lsr	r3, r3, #24
4800fc98:	e1823003 	orr	r3, r2, r3
4800fc9c:	e3530027 	cmp	r3, #39	; 0x27
4800fca0:	9a000081 	bls	4800feac <_fdt_blocks_misordered+0x26c>
4800fca4:	e51b3008 	ldr	r3, [fp, #-8]
4800fca8:	e5933008 	ldr	r3, [r3, #8]
4800fcac:	e1a02c03 	lsl	r2, r3, #24
4800fcb0:	e51b3008 	ldr	r3, [fp, #-8]
4800fcb4:	e5933008 	ldr	r3, [r3, #8]
4800fcb8:	e2033cff 	and	r3, r3, #65280	; 0xff00
4800fcbc:	e1a03403 	lsl	r3, r3, #8
4800fcc0:	e1822003 	orr	r2, r2, r3
4800fcc4:	e51b3008 	ldr	r3, [fp, #-8]
4800fcc8:	e5933008 	ldr	r3, [r3, #8]
4800fccc:	e20338ff 	and	r3, r3, #16711680	; 0xff0000
4800fcd0:	e1a03423 	lsr	r3, r3, #8
4800fcd4:	e1822003 	orr	r2, r2, r3
4800fcd8:	e51b3008 	ldr	r3, [fp, #-8]
4800fcdc:	e5933008 	ldr	r3, [r3, #8]
4800fce0:	e1a03c23 	lsr	r3, r3, #24
4800fce4:	e1822003 	orr	r2, r2, r3
4800fce8:	e51b3008 	ldr	r3, [fp, #-8]
4800fcec:	e5933010 	ldr	r3, [r3, #16]
4800fcf0:	e1a01c03 	lsl	r1, r3, #24
4800fcf4:	e51b3008 	ldr	r3, [fp, #-8]
4800fcf8:	e5933010 	ldr	r3, [r3, #16]
4800fcfc:	e2033cff 	and	r3, r3, #65280	; 0xff00
4800fd00:	e1a03403 	lsl	r3, r3, #8
4800fd04:	e1811003 	orr	r1, r1, r3
4800fd08:	e51b3008 	ldr	r3, [fp, #-8]
4800fd0c:	e5933010 	ldr	r3, [r3, #16]
4800fd10:	e20338ff 	and	r3, r3, #16711680	; 0xff0000
4800fd14:	e1a03423 	lsr	r3, r3, #8
4800fd18:	e1811003 	orr	r1, r1, r3
4800fd1c:	e51b3008 	ldr	r3, [fp, #-8]
4800fd20:	e5933010 	ldr	r3, [r3, #16]
4800fd24:	e1a03c23 	lsr	r3, r3, #24
4800fd28:	e1811003 	orr	r1, r1, r3
4800fd2c:	e51b300c 	ldr	r3, [fp, #-12]
4800fd30:	e0813003 	add	r3, r1, r3
4800fd34:	e1520003 	cmp	r2, r3
4800fd38:	3a00005b 	bcc	4800feac <_fdt_blocks_misordered+0x26c>
4800fd3c:	e51b3008 	ldr	r3, [fp, #-8]
4800fd40:	e593300c 	ldr	r3, [r3, #12]
4800fd44:	e1a02c03 	lsl	r2, r3, #24
4800fd48:	e51b3008 	ldr	r3, [fp, #-8]
4800fd4c:	e593300c 	ldr	r3, [r3, #12]
4800fd50:	e2033cff 	and	r3, r3, #65280	; 0xff00
4800fd54:	e1a03403 	lsl	r3, r3, #8
4800fd58:	e1822003 	orr	r2, r2, r3
4800fd5c:	e51b3008 	ldr	r3, [fp, #-8]
4800fd60:	e593300c 	ldr	r3, [r3, #12]
4800fd64:	e20338ff 	and	r3, r3, #16711680	; 0xff0000
4800fd68:	e1a03423 	lsr	r3, r3, #8
4800fd6c:	e1822003 	orr	r2, r2, r3
4800fd70:	e51b3008 	ldr	r3, [fp, #-8]
4800fd74:	e593300c 	ldr	r3, [r3, #12]
4800fd78:	e1a03c23 	lsr	r3, r3, #24
4800fd7c:	e1822003 	orr	r2, r2, r3
4800fd80:	e51b3008 	ldr	r3, [fp, #-8]
4800fd84:	e5933008 	ldr	r3, [r3, #8]
4800fd88:	e1a01c03 	lsl	r1, r3, #24
4800fd8c:	e51b3008 	ldr	r3, [fp, #-8]
4800fd90:	e5933008 	ldr	r3, [r3, #8]
4800fd94:	e2033cff 	and	r3, r3, #65280	; 0xff00
4800fd98:	e1a03403 	lsl	r3, r3, #8
4800fd9c:	e1811003 	orr	r1, r1, r3
4800fda0:	e51b3008 	ldr	r3, [fp, #-8]
4800fda4:	e5933008 	ldr	r3, [r3, #8]
4800fda8:	e20338ff 	and	r3, r3, #16711680	; 0xff0000
4800fdac:	e1a03423 	lsr	r3, r3, #8
4800fdb0:	e1811003 	orr	r1, r1, r3
4800fdb4:	e51b3008 	ldr	r3, [fp, #-8]
4800fdb8:	e5933008 	ldr	r3, [r3, #8]
4800fdbc:	e1a03c23 	lsr	r3, r3, #24
4800fdc0:	e1811003 	orr	r1, r1, r3
4800fdc4:	e51b3010 	ldr	r3, [fp, #-16]
4800fdc8:	e0813003 	add	r3, r1, r3
4800fdcc:	e1520003 	cmp	r2, r3
4800fdd0:	3a000035 	bcc	4800feac <_fdt_blocks_misordered+0x26c>
4800fdd4:	e51b3008 	ldr	r3, [fp, #-8]
4800fdd8:	e5933004 	ldr	r3, [r3, #4]
4800fddc:	e1a02c03 	lsl	r2, r3, #24
4800fde0:	e51b3008 	ldr	r3, [fp, #-8]
4800fde4:	e5933004 	ldr	r3, [r3, #4]
4800fde8:	e2033cff 	and	r3, r3, #65280	; 0xff00
4800fdec:	e1a03403 	lsl	r3, r3, #8
4800fdf0:	e1822003 	orr	r2, r2, r3
4800fdf4:	e51b3008 	ldr	r3, [fp, #-8]
4800fdf8:	e5933004 	ldr	r3, [r3, #4]
4800fdfc:	e20338ff 	and	r3, r3, #16711680	; 0xff0000
4800fe00:	e1a03423 	lsr	r3, r3, #8
4800fe04:	e1822003 	orr	r2, r2, r3
4800fe08:	e51b3008 	ldr	r3, [fp, #-8]
4800fe0c:	e5933004 	ldr	r3, [r3, #4]
4800fe10:	e1a03c23 	lsr	r3, r3, #24
4800fe14:	e1822003 	orr	r2, r2, r3
4800fe18:	e51b3008 	ldr	r3, [fp, #-8]
4800fe1c:	e593300c 	ldr	r3, [r3, #12]
4800fe20:	e1a01c03 	lsl	r1, r3, #24
4800fe24:	e51b3008 	ldr	r3, [fp, #-8]
4800fe28:	e593300c 	ldr	r3, [r3, #12]
4800fe2c:	e2033cff 	and	r3, r3, #65280	; 0xff00
4800fe30:	e1a03403 	lsl	r3, r3, #8
4800fe34:	e1811003 	orr	r1, r1, r3
4800fe38:	e51b3008 	ldr	r3, [fp, #-8]
4800fe3c:	e593300c 	ldr	r3, [r3, #12]
4800fe40:	e20338ff 	and	r3, r3, #16711680	; 0xff0000
4800fe44:	e1a03423 	lsr	r3, r3, #8
4800fe48:	e1811003 	orr	r1, r1, r3
4800fe4c:	e51b3008 	ldr	r3, [fp, #-8]
4800fe50:	e593300c 	ldr	r3, [r3, #12]
4800fe54:	e1a03c23 	lsr	r3, r3, #24
4800fe58:	e1811003 	orr	r1, r1, r3
4800fe5c:	e51b3008 	ldr	r3, [fp, #-8]
4800fe60:	e5933020 	ldr	r3, [r3, #32]
4800fe64:	e1a00c03 	lsl	r0, r3, #24
4800fe68:	e51b3008 	ldr	r3, [fp, #-8]
4800fe6c:	e5933020 	ldr	r3, [r3, #32]
4800fe70:	e2033cff 	and	r3, r3, #65280	; 0xff00
4800fe74:	e1a03403 	lsl	r3, r3, #8
4800fe78:	e1800003 	orr	r0, r0, r3
4800fe7c:	e51b3008 	ldr	r3, [fp, #-8]
4800fe80:	e5933020 	ldr	r3, [r3, #32]
4800fe84:	e20338ff 	and	r3, r3, #16711680	; 0xff0000
4800fe88:	e1a03423 	lsr	r3, r3, #8
4800fe8c:	e1800003 	orr	r0, r0, r3
4800fe90:	e51b3008 	ldr	r3, [fp, #-8]
4800fe94:	e5933020 	ldr	r3, [r3, #32]
4800fe98:	e1a03c23 	lsr	r3, r3, #24
4800fe9c:	e1803003 	orr	r3, r0, r3
4800fea0:	e0813003 	add	r3, r1, r3
4800fea4:	e1520003 	cmp	r2, r3
4800fea8:	2a000001 	bcs	4800feb4 <_fdt_blocks_misordered+0x274>
4800feac:	e3a03001 	mov	r3, #1
4800feb0:	ea000000 	b	4800feb8 <_fdt_blocks_misordered+0x278>
4800feb4:	e3a03000 	mov	r3, #0
4800feb8:	e1a00003 	mov	r0, r3
4800febc:	e24bd000 	sub	sp, fp, #0
4800fec0:	e49db004 	pop	{fp}		; (ldr fp, [sp], #4)
4800fec4:	e12fff1e 	bx	lr

4800fec8 <_fdt_rw_check_header>:
4800fec8:	e92d4800 	push	{fp, lr}
4800fecc:	e28db004 	add	fp, sp, #4
4800fed0:	e24dd010 	sub	sp, sp, #16
4800fed4:	e50b0010 	str	r0, [fp, #-16]
4800fed8:	e51b0010 	ldr	r0, [fp, #-16]
4800fedc:	ebfff4ed 	bl	4800d298 <fdt_check_header>
4800fee0:	e50b0008 	str	r0, [fp, #-8]
4800fee4:	e51b3008 	ldr	r3, [fp, #-8]
4800fee8:	e3530000 	cmp	r3, #0
4800feec:	0a000001 	beq	4800fef8 <_fdt_rw_check_header+0x30>
4800fef0:	e51b3008 	ldr	r3, [fp, #-8]
4800fef4:	ea000045 	b	48010010 <_fdt_rw_check_header+0x148>
4800fef8:	e51b3010 	ldr	r3, [fp, #-16]
4800fefc:	e5933014 	ldr	r3, [r3, #20]
4800ff00:	e1a02c03 	lsl	r2, r3, #24
4800ff04:	e51b3010 	ldr	r3, [fp, #-16]
4800ff08:	e5933014 	ldr	r3, [r3, #20]
4800ff0c:	e2033cff 	and	r3, r3, #65280	; 0xff00
4800ff10:	e1a03403 	lsl	r3, r3, #8
4800ff14:	e1822003 	orr	r2, r2, r3
4800ff18:	e51b3010 	ldr	r3, [fp, #-16]
4800ff1c:	e5933014 	ldr	r3, [r3, #20]
4800ff20:	e20338ff 	and	r3, r3, #16711680	; 0xff0000
4800ff24:	e1a03423 	lsr	r3, r3, #8
4800ff28:	e1822003 	orr	r2, r2, r3
4800ff2c:	e51b3010 	ldr	r3, [fp, #-16]
4800ff30:	e5933014 	ldr	r3, [r3, #20]
4800ff34:	e1a03c23 	lsr	r3, r3, #24
4800ff38:	e1823003 	orr	r3, r2, r3
4800ff3c:	e3530010 	cmp	r3, #16
4800ff40:	8a000001 	bhi	4800ff4c <_fdt_rw_check_header+0x84>
4800ff44:	e3e03009 	mvn	r3, #9
4800ff48:	ea000030 	b	48010010 <_fdt_rw_check_header+0x148>
4800ff4c:	e51b3010 	ldr	r3, [fp, #-16]
4800ff50:	e5933024 	ldr	r3, [r3, #36]	; 0x24
4800ff54:	e1a02c03 	lsl	r2, r3, #24
4800ff58:	e51b3010 	ldr	r3, [fp, #-16]
4800ff5c:	e5933024 	ldr	r3, [r3, #36]	; 0x24
4800ff60:	e2033cff 	and	r3, r3, #65280	; 0xff00
4800ff64:	e1a03403 	lsl	r3, r3, #8
4800ff68:	e1822003 	orr	r2, r2, r3
4800ff6c:	e51b3010 	ldr	r3, [fp, #-16]
4800ff70:	e5933024 	ldr	r3, [r3, #36]	; 0x24
4800ff74:	e20338ff 	and	r3, r3, #16711680	; 0xff0000
4800ff78:	e1a03423 	lsr	r3, r3, #8
4800ff7c:	e1822003 	orr	r2, r2, r3
4800ff80:	e51b3010 	ldr	r3, [fp, #-16]
4800ff84:	e5933024 	ldr	r3, [r3, #36]	; 0x24
4800ff88:	e1a03c23 	lsr	r3, r3, #24
4800ff8c:	e1823003 	orr	r3, r2, r3
4800ff90:	e51b0010 	ldr	r0, [fp, #-16]
4800ff94:	e3a01010 	mov	r1, #16
4800ff98:	e1a02003 	mov	r2, r3
4800ff9c:	ebffff27 	bl	4800fc40 <_fdt_blocks_misordered>
4800ffa0:	e1a03000 	mov	r3, r0
4800ffa4:	e3530000 	cmp	r3, #0
4800ffa8:	0a000001 	beq	4800ffb4 <_fdt_rw_check_header+0xec>
4800ffac:	e3e0300b 	mvn	r3, #11
4800ffb0:	ea000016 	b	48010010 <_fdt_rw_check_header+0x148>
4800ffb4:	e51b3010 	ldr	r3, [fp, #-16]
4800ffb8:	e5933014 	ldr	r3, [r3, #20]
4800ffbc:	e1a02c03 	lsl	r2, r3, #24
4800ffc0:	e51b3010 	ldr	r3, [fp, #-16]
4800ffc4:	e5933014 	ldr	r3, [r3, #20]
4800ffc8:	e2033cff 	and	r3, r3, #65280	; 0xff00
4800ffcc:	e1a03403 	lsl	r3, r3, #8
4800ffd0:	e1822003 	orr	r2, r2, r3
4800ffd4:	e51b3010 	ldr	r3, [fp, #-16]
4800ffd8:	e5933014 	ldr	r3, [r3, #20]
4800ffdc:	e20338ff 	and	r3, r3, #16711680	; 0xff0000
4800ffe0:	e1a03423 	lsr	r3, r3, #8
4800ffe4:	e1822003 	orr	r2, r2, r3
4800ffe8:	e51b3010 	ldr	r3, [fp, #-16]
4800ffec:	e5933014 	ldr	r3, [r3, #20]
4800fff0:	e1a03c23 	lsr	r3, r3, #24
4800fff4:	e1823003 	orr	r3, r2, r3
4800fff8:	e3530011 	cmp	r3, #17
4800fffc:	9a000002 	bls	4801000c <_fdt_rw_check_header+0x144>
48010000:	e51b0010 	ldr	r0, [fp, #-16]
48010004:	e3a01011 	mov	r1, #17
48010008:	ebfffe28 	bl	4800f8b0 <fdt_set_version>
4801000c:	e3a03000 	mov	r3, #0
48010010:	e1a00003 	mov	r0, r3
48010014:	e24bd004 	sub	sp, fp, #4
48010018:	e8bd8800 	pop	{fp, pc}

4801001c <_fdt_data_size>:
4801001c:	e52db004 	push	{fp}		; (str fp, [sp, #-4]!)
48010020:	e28db000 	add	fp, sp, #0
48010024:	e24dd00c 	sub	sp, sp, #12
48010028:	e50b0008 	str	r0, [fp, #-8]
4801002c:	e51b3008 	ldr	r3, [fp, #-8]
48010030:	e593300c 	ldr	r3, [r3, #12]
48010034:	e1a02c03 	lsl	r2, r3, #24
48010038:	e51b3008 	ldr	r3, [fp, #-8]
4801003c:	e593300c 	ldr	r3, [r3, #12]
48010040:	e2033cff 	and	r3, r3, #65280	; 0xff00
48010044:	e1a03403 	lsl	r3, r3, #8
48010048:	e1822003 	orr	r2, r2, r3
4801004c:	e51b3008 	ldr	r3, [fp, #-8]
48010050:	e593300c 	ldr	r3, [r3, #12]
48010054:	e20338ff 	and	r3, r3, #16711680	; 0xff0000
48010058:	e1a03423 	lsr	r3, r3, #8
4801005c:	e1822003 	orr	r2, r2, r3
48010060:	e51b3008 	ldr	r3, [fp, #-8]
48010064:	e593300c 	ldr	r3, [r3, #12]
48010068:	e1a03c23 	lsr	r3, r3, #24
4801006c:	e1822003 	orr	r2, r2, r3
48010070:	e51b3008 	ldr	r3, [fp, #-8]
48010074:	e5933020 	ldr	r3, [r3, #32]
48010078:	e1a01c03 	lsl	r1, r3, #24
4801007c:	e51b3008 	ldr	r3, [fp, #-8]
48010080:	e5933020 	ldr	r3, [r3, #32]
48010084:	e2033cff 	and	r3, r3, #65280	; 0xff00
48010088:	e1a03403 	lsl	r3, r3, #8
4801008c:	e1811003 	orr	r1, r1, r3
48010090:	e51b3008 	ldr	r3, [fp, #-8]
48010094:	e5933020 	ldr	r3, [r3, #32]
48010098:	e20338ff 	and	r3, r3, #16711680	; 0xff0000
4801009c:	e1a03423 	lsr	r3, r3, #8
480100a0:	e1811003 	orr	r1, r1, r3
480100a4:	e51b3008 	ldr	r3, [fp, #-8]
480100a8:	e5933020 	ldr	r3, [r3, #32]
480100ac:	e1a03c23 	lsr	r3, r3, #24
480100b0:	e1813003 	orr	r3, r1, r3
480100b4:	e0823003 	add	r3, r2, r3
480100b8:	e1a00003 	mov	r0, r3
480100bc:	e24bd000 	sub	sp, fp, #0
480100c0:	e49db004 	pop	{fp}		; (ldr fp, [sp], #4)
480100c4:	e12fff1e 	bx	lr

480100c8 <_fdt_splice>:
480100c8:	e92d4800 	push	{fp, lr}
480100cc:	e28db004 	add	fp, sp, #4
480100d0:	e24dd018 	sub	sp, sp, #24
480100d4:	e50b0010 	str	r0, [fp, #-16]
480100d8:	e50b1014 	str	r1, [fp, #-20]
480100dc:	e50b2018 	str	r2, [fp, #-24]
480100e0:	e50b301c 	str	r3, [fp, #-28]
480100e4:	e51b3014 	ldr	r3, [fp, #-20]
480100e8:	e50b3008 	str	r3, [fp, #-8]
480100ec:	e51b0010 	ldr	r0, [fp, #-16]
480100f0:	ebffffc9 	bl	4801001c <_fdt_data_size>
480100f4:	e1a03000 	mov	r3, r0
480100f8:	e51b2010 	ldr	r2, [fp, #-16]
480100fc:	e0823003 	add	r3, r2, r3
48010100:	e50b300c 	str	r3, [fp, #-12]
48010104:	e51b3018 	ldr	r3, [fp, #-24]
48010108:	e51b2008 	ldr	r2, [fp, #-8]
4801010c:	e0822003 	add	r2, r2, r3
48010110:	e51b3008 	ldr	r3, [fp, #-8]
48010114:	e1520003 	cmp	r2, r3
48010118:	3a000005 	bcc	48010134 <_fdt_splice+0x6c>
4801011c:	e51b3018 	ldr	r3, [fp, #-24]
48010120:	e51b2008 	ldr	r2, [fp, #-8]
48010124:	e0822003 	add	r2, r2, r3
48010128:	e51b300c 	ldr	r3, [fp, #-12]
4801012c:	e1520003 	cmp	r2, r3
48010130:	9a000001 	bls	4801013c <_fdt_splice+0x74>
48010134:	e3e03003 	mvn	r3, #3
48010138:	ea00002b 	b	480101ec <_fdt_splice+0x124>
4801013c:	e51b201c 	ldr	r2, [fp, #-28]
48010140:	e51b3018 	ldr	r3, [fp, #-24]
48010144:	e0633002 	rsb	r3, r3, r2
48010148:	e51b200c 	ldr	r2, [fp, #-12]
4801014c:	e0822003 	add	r2, r2, r3
48010150:	e51b3010 	ldr	r3, [fp, #-16]
48010154:	e5933004 	ldr	r3, [r3, #4]
48010158:	e1a01c03 	lsl	r1, r3, #24
4801015c:	e51b3010 	ldr	r3, [fp, #-16]
48010160:	e5933004 	ldr	r3, [r3, #4]
48010164:	e2033cff 	and	r3, r3, #65280	; 0xff00
48010168:	e1a03403 	lsl	r3, r3, #8
4801016c:	e1811003 	orr	r1, r1, r3
48010170:	e51b3010 	ldr	r3, [fp, #-16]
48010174:	e5933004 	ldr	r3, [r3, #4]
48010178:	e20338ff 	and	r3, r3, #16711680	; 0xff0000
4801017c:	e1a03423 	lsr	r3, r3, #8
48010180:	e1811003 	orr	r1, r1, r3
48010184:	e51b3010 	ldr	r3, [fp, #-16]
48010188:	e5933004 	ldr	r3, [r3, #4]
4801018c:	e1a03c23 	lsr	r3, r3, #24
48010190:	e1813003 	orr	r3, r1, r3
48010194:	e51b1010 	ldr	r1, [fp, #-16]
48010198:	e0813003 	add	r3, r1, r3
4801019c:	e1520003 	cmp	r2, r3
480101a0:	9a000001 	bls	480101ac <_fdt_splice+0xe4>
480101a4:	e3e03002 	mvn	r3, #2
480101a8:	ea00000f 	b	480101ec <_fdt_splice+0x124>
480101ac:	e51b301c 	ldr	r3, [fp, #-28]
480101b0:	e51b2008 	ldr	r2, [fp, #-8]
480101b4:	e0821003 	add	r1, r2, r3
480101b8:	e51b3018 	ldr	r3, [fp, #-24]
480101bc:	e51b2008 	ldr	r2, [fp, #-8]
480101c0:	e0822003 	add	r2, r2, r3
480101c4:	e51b000c 	ldr	r0, [fp, #-12]
480101c8:	e51b3008 	ldr	r3, [fp, #-8]
480101cc:	e0630000 	rsb	r0, r3, r0
480101d0:	e51b3018 	ldr	r3, [fp, #-24]
480101d4:	e0633000 	rsb	r3, r3, r0
480101d8:	e1a00001 	mov	r0, r1
480101dc:	e1a01002 	mov	r1, r2
480101e0:	e1a02003 	mov	r2, r3
480101e4:	ebffe9c1 	bl	4800a8f0 <arm_memmove>
480101e8:	e3a03000 	mov	r3, #0
480101ec:	e1a00003 	mov	r0, r3
480101f0:	e24bd004 	sub	sp, fp, #4
480101f4:	e8bd8800 	pop	{fp, pc}

480101f8 <_fdt_splice_mem_rsv>:
480101f8:	e92d4800 	push	{fp, lr}
480101fc:	e28db004 	add	fp, sp, #4
48010200:	e24dd018 	sub	sp, sp, #24
48010204:	e50b0010 	str	r0, [fp, #-16]
48010208:	e50b1014 	str	r1, [fp, #-20]
4801020c:	e50b2018 	str	r2, [fp, #-24]
48010210:	e50b301c 	str	r3, [fp, #-28]
48010214:	e51b201c 	ldr	r2, [fp, #-28]
48010218:	e51b3018 	ldr	r3, [fp, #-24]
4801021c:	e0633002 	rsb	r3, r3, r2
48010220:	e1a03203 	lsl	r3, r3, #4
48010224:	e50b3008 	str	r3, [fp, #-8]
48010228:	e51b3018 	ldr	r3, [fp, #-24]
4801022c:	e1a03203 	lsl	r3, r3, #4
48010230:	e1a02003 	mov	r2, r3
48010234:	e51b301c 	ldr	r3, [fp, #-28]
48010238:	e1a03203 	lsl	r3, r3, #4
4801023c:	e51b0010 	ldr	r0, [fp, #-16]
48010240:	e51b1014 	ldr	r1, [fp, #-20]
48010244:	ebffff9f 	bl	480100c8 <_fdt_splice>
48010248:	e50b000c 	str	r0, [fp, #-12]
4801024c:	e51b300c 	ldr	r3, [fp, #-12]
48010250:	e3530000 	cmp	r3, #0
48010254:	0a000001 	beq	48010260 <_fdt_splice_mem_rsv+0x68>
48010258:	e51b300c 	ldr	r3, [fp, #-12]
4801025c:	ea00002c 	b	48010314 <_fdt_splice_mem_rsv+0x11c>
48010260:	e51b3010 	ldr	r3, [fp, #-16]
48010264:	e5933008 	ldr	r3, [r3, #8]
48010268:	e1a02c03 	lsl	r2, r3, #24
4801026c:	e51b3010 	ldr	r3, [fp, #-16]
48010270:	e5933008 	ldr	r3, [r3, #8]
48010274:	e2033cff 	and	r3, r3, #65280	; 0xff00
48010278:	e1a03403 	lsl	r3, r3, #8
4801027c:	e1822003 	orr	r2, r2, r3
48010280:	e51b3010 	ldr	r3, [fp, #-16]
48010284:	e5933008 	ldr	r3, [r3, #8]
48010288:	e20338ff 	and	r3, r3, #16711680	; 0xff0000
4801028c:	e1a03423 	lsr	r3, r3, #8
48010290:	e1822003 	orr	r2, r2, r3
48010294:	e51b3010 	ldr	r3, [fp, #-16]
48010298:	e5933008 	ldr	r3, [r3, #8]
4801029c:	e1a03c23 	lsr	r3, r3, #24
480102a0:	e1822003 	orr	r2, r2, r3
480102a4:	e51b3008 	ldr	r3, [fp, #-8]
480102a8:	e0823003 	add	r3, r2, r3
480102ac:	e51b0010 	ldr	r0, [fp, #-16]
480102b0:	e1a01003 	mov	r1, r3
480102b4:	ebfffd32 	bl	4800f784 <fdt_set_off_dt_struct>
480102b8:	e51b3010 	ldr	r3, [fp, #-16]
480102bc:	e593300c 	ldr	r3, [r3, #12]
480102c0:	e1a02c03 	lsl	r2, r3, #24
480102c4:	e51b3010 	ldr	r3, [fp, #-16]
480102c8:	e593300c 	ldr	r3, [r3, #12]
480102cc:	e2033cff 	and	r3, r3, #65280	; 0xff00
480102d0:	e1a03403 	lsl	r3, r3, #8
480102d4:	e1822003 	orr	r2, r2, r3
480102d8:	e51b3010 	ldr	r3, [fp, #-16]
480102dc:	e593300c 	ldr	r3, [r3, #12]
480102e0:	e20338ff 	and	r3, r3, #16711680	; 0xff0000
480102e4:	e1a03423 	lsr	r3, r3, #8
480102e8:	e1822003 	orr	r2, r2, r3
480102ec:	e51b3010 	ldr	r3, [fp, #-16]
480102f0:	e593300c 	ldr	r3, [r3, #12]
480102f4:	e1a03c23 	lsr	r3, r3, #24
480102f8:	e1822003 	orr	r2, r2, r3
480102fc:	e51b3008 	ldr	r3, [fp, #-8]
48010300:	e0823003 	add	r3, r2, r3
48010304:	e51b0010 	ldr	r0, [fp, #-16]
48010308:	e1a01003 	mov	r1, r3
4801030c:	ebfffd35 	bl	4800f7e8 <fdt_set_off_dt_strings>
48010310:	e3a03000 	mov	r3, #0
48010314:	e1a00003 	mov	r0, r3
48010318:	e24bd004 	sub	sp, fp, #4
4801031c:	e8bd8800 	pop	{fp, pc}

48010320 <_fdt_splice_struct>:
48010320:	e92d4800 	push	{fp, lr}
48010324:	e28db004 	add	fp, sp, #4
48010328:	e24dd018 	sub	sp, sp, #24
4801032c:	e50b0010 	str	r0, [fp, #-16]
48010330:	e50b1014 	str	r1, [fp, #-20]
48010334:	e50b2018 	str	r2, [fp, #-24]
48010338:	e50b301c 	str	r3, [fp, #-28]
4801033c:	e51b201c 	ldr	r2, [fp, #-28]
48010340:	e51b3018 	ldr	r3, [fp, #-24]
48010344:	e0633002 	rsb	r3, r3, r2
48010348:	e50b3008 	str	r3, [fp, #-8]
4801034c:	e51b0010 	ldr	r0, [fp, #-16]
48010350:	e51b1014 	ldr	r1, [fp, #-20]
48010354:	e51b2018 	ldr	r2, [fp, #-24]
48010358:	e51b301c 	ldr	r3, [fp, #-28]
4801035c:	ebffff59 	bl	480100c8 <_fdt_splice>
48010360:	e50b000c 	str	r0, [fp, #-12]
48010364:	e51b300c 	ldr	r3, [fp, #-12]
48010368:	e3530000 	cmp	r3, #0
4801036c:	0a000001 	beq	48010378 <_fdt_splice_struct+0x58>
48010370:	e51b300c 	ldr	r3, [fp, #-12]
48010374:	ea00002c 	b	4801042c <_fdt_splice_struct+0x10c>
48010378:	e51b3010 	ldr	r3, [fp, #-16]
4801037c:	e5933024 	ldr	r3, [r3, #36]	; 0x24
48010380:	e1a02c03 	lsl	r2, r3, #24
48010384:	e51b3010 	ldr	r3, [fp, #-16]
48010388:	e5933024 	ldr	r3, [r3, #36]	; 0x24
4801038c:	e2033cff 	and	r3, r3, #65280	; 0xff00
48010390:	e1a03403 	lsl	r3, r3, #8
48010394:	e1822003 	orr	r2, r2, r3
48010398:	e51b3010 	ldr	r3, [fp, #-16]
4801039c:	e5933024 	ldr	r3, [r3, #36]	; 0x24
480103a0:	e20338ff 	and	r3, r3, #16711680	; 0xff0000
480103a4:	e1a03423 	lsr	r3, r3, #8
480103a8:	e1822003 	orr	r2, r2, r3
480103ac:	e51b3010 	ldr	r3, [fp, #-16]
480103b0:	e5933024 	ldr	r3, [r3, #36]	; 0x24
480103b4:	e1a03c23 	lsr	r3, r3, #24
480103b8:	e1822003 	orr	r2, r2, r3
480103bc:	e51b3008 	ldr	r3, [fp, #-8]
480103c0:	e0823003 	add	r3, r2, r3
480103c4:	e51b0010 	ldr	r0, [fp, #-16]
480103c8:	e1a01003 	mov	r1, r3
480103cc:	ebfffd9b 	bl	4800fa40 <fdt_set_size_dt_struct>
480103d0:	e51b3010 	ldr	r3, [fp, #-16]
480103d4:	e593300c 	ldr	r3, [r3, #12]
480103d8:	e1a02c03 	lsl	r2, r3, #24
480103dc:	e51b3010 	ldr	r3, [fp, #-16]
480103e0:	e593300c 	ldr	r3, [r3, #12]
480103e4:	e2033cff 	and	r3, r3, #65280	; 0xff00
480103e8:	e1a03403 	lsl	r3, r3, #8
480103ec:	e1822003 	orr	r2, r2, r3
480103f0:	e51b3010 	ldr	r3, [fp, #-16]
480103f4:	e593300c 	ldr	r3, [r3, #12]
480103f8:	e20338ff 	and	r3, r3, #16711680	; 0xff0000
480103fc:	e1a03423 	lsr	r3, r3, #8
48010400:	e1822003 	orr	r2, r2, r3
48010404:	e51b3010 	ldr	r3, [fp, #-16]
48010408:	e593300c 	ldr	r3, [r3, #12]
4801040c:	e1a03c23 	lsr	r3, r3, #24
48010410:	e1822003 	orr	r2, r2, r3
48010414:	e51b3008 	ldr	r3, [fp, #-8]
48010418:	e0823003 	add	r3, r2, r3
4801041c:	e51b0010 	ldr	r0, [fp, #-16]
48010420:	e1a01003 	mov	r1, r3
48010424:	ebfffcef 	bl	4800f7e8 <fdt_set_off_dt_strings>
48010428:	e3a03000 	mov	r3, #0
4801042c:	e1a00003 	mov	r0, r3
48010430:	e24bd004 	sub	sp, fp, #4
48010434:	e8bd8800 	pop	{fp, pc}

48010438 <_fdt_splice_string>:
48010438:	e92d4800 	push	{fp, lr}
4801043c:	e28db004 	add	fp, sp, #4
48010440:	e24dd010 	sub	sp, sp, #16
48010444:	e50b0010 	str	r0, [fp, #-16]
48010448:	e50b1014 	str	r1, [fp, #-20]
4801044c:	e51b3010 	ldr	r3, [fp, #-16]
48010450:	e593300c 	ldr	r3, [r3, #12]
48010454:	e1a02c03 	lsl	r2, r3, #24
48010458:	e51b3010 	ldr	r3, [fp, #-16]
4801045c:	e593300c 	ldr	r3, [r3, #12]
48010460:	e2033cff 	and	r3, r3, #65280	; 0xff00
48010464:	e1a03403 	lsl	r3, r3, #8
48010468:	e1822003 	orr	r2, r2, r3
4801046c:	e51b3010 	ldr	r3, [fp, #-16]
48010470:	e593300c 	ldr	r3, [r3, #12]
48010474:	e20338ff 	and	r3, r3, #16711680	; 0xff0000
48010478:	e1a03423 	lsr	r3, r3, #8
4801047c:	e1822003 	orr	r2, r2, r3
48010480:	e51b3010 	ldr	r3, [fp, #-16]
48010484:	e593300c 	ldr	r3, [r3, #12]
48010488:	e1a03c23 	lsr	r3, r3, #24
4801048c:	e1822003 	orr	r2, r2, r3
48010490:	e51b3010 	ldr	r3, [fp, #-16]
48010494:	e5933020 	ldr	r3, [r3, #32]
48010498:	e1a01c03 	lsl	r1, r3, #24
4801049c:	e51b3010 	ldr	r3, [fp, #-16]
480104a0:	e5933020 	ldr	r3, [r3, #32]
480104a4:	e2033cff 	and	r3, r3, #65280	; 0xff00
480104a8:	e1a03403 	lsl	r3, r3, #8
480104ac:	e1811003 	orr	r1, r1, r3
480104b0:	e51b3010 	ldr	r3, [fp, #-16]
480104b4:	e5933020 	ldr	r3, [r3, #32]
480104b8:	e20338ff 	and	r3, r3, #16711680	; 0xff0000
480104bc:	e1a03423 	lsr	r3, r3, #8
480104c0:	e1811003 	orr	r1, r1, r3
480104c4:	e51b3010 	ldr	r3, [fp, #-16]
480104c8:	e5933020 	ldr	r3, [r3, #32]
480104cc:	e1a03c23 	lsr	r3, r3, #24
480104d0:	e1813003 	orr	r3, r1, r3
480104d4:	e0823003 	add	r3, r2, r3
480104d8:	e51b2010 	ldr	r2, [fp, #-16]
480104dc:	e0823003 	add	r3, r2, r3
480104e0:	e50b3008 	str	r3, [fp, #-8]
480104e4:	e51b0010 	ldr	r0, [fp, #-16]
480104e8:	e51b1008 	ldr	r1, [fp, #-8]
480104ec:	e3a02000 	mov	r2, #0
480104f0:	e51b3014 	ldr	r3, [fp, #-20]
480104f4:	ebfffef3 	bl	480100c8 <_fdt_splice>
480104f8:	e50b000c 	str	r0, [fp, #-12]
480104fc:	e51b300c 	ldr	r3, [fp, #-12]
48010500:	e3530000 	cmp	r3, #0
48010504:	0a000001 	beq	48010510 <_fdt_splice_string+0xd8>
48010508:	e51b300c 	ldr	r3, [fp, #-12]
4801050c:	ea000016 	b	4801056c <_fdt_splice_string+0x134>
48010510:	e51b3010 	ldr	r3, [fp, #-16]
48010514:	e5933020 	ldr	r3, [r3, #32]
48010518:	e1a02c03 	lsl	r2, r3, #24
4801051c:	e51b3010 	ldr	r3, [fp, #-16]
48010520:	e5933020 	ldr	r3, [r3, #32]
48010524:	e2033cff 	and	r3, r3, #65280	; 0xff00
48010528:	e1a03403 	lsl	r3, r3, #8
4801052c:	e1822003 	orr	r2, r2, r3
48010530:	e51b3010 	ldr	r3, [fp, #-16]
48010534:	e5933020 	ldr	r3, [r3, #32]
48010538:	e20338ff 	and	r3, r3, #16711680	; 0xff0000
4801053c:	e1a03423 	lsr	r3, r3, #8
48010540:	e1822003 	orr	r2, r2, r3
48010544:	e51b3010 	ldr	r3, [fp, #-16]
48010548:	e5933020 	ldr	r3, [r3, #32]
4801054c:	e1a03c23 	lsr	r3, r3, #24
48010550:	e1822003 	orr	r2, r2, r3
48010554:	e51b3014 	ldr	r3, [fp, #-20]
48010558:	e0823003 	add	r3, r2, r3
4801055c:	e51b0010 	ldr	r0, [fp, #-16]
48010560:	e1a01003 	mov	r1, r3
48010564:	ebfffd1c 	bl	4800f9dc <fdt_set_size_dt_strings>
48010568:	e3a03000 	mov	r3, #0
4801056c:	e1a00003 	mov	r0, r3
48010570:	e24bd004 	sub	sp, fp, #4
48010574:	e8bd8800 	pop	{fp, pc}

48010578 <_fdt_find_add_string>:
48010578:	e92d4800 	push	{fp, lr}
4801057c:	e28db004 	add	fp, sp, #4
48010580:	e24dd020 	sub	sp, sp, #32
48010584:	e50b0020 	str	r0, [fp, #-32]
48010588:	e50b1024 	str	r1, [fp, #-36]	; 0x24
4801058c:	e51b3020 	ldr	r3, [fp, #-32]
48010590:	e593300c 	ldr	r3, [r3, #12]
48010594:	e1a02c03 	lsl	r2, r3, #24
48010598:	e51b3020 	ldr	r3, [fp, #-32]
4801059c:	e593300c 	ldr	r3, [r3, #12]
480105a0:	e2033cff 	and	r3, r3, #65280	; 0xff00
480105a4:	e1a03403 	lsl	r3, r3, #8
480105a8:	e1822003 	orr	r2, r2, r3
480105ac:	e51b3020 	ldr	r3, [fp, #-32]
480105b0:	e593300c 	ldr	r3, [r3, #12]
480105b4:	e20338ff 	and	r3, r3, #16711680	; 0xff0000
480105b8:	e1a03423 	lsr	r3, r3, #8
480105bc:	e1822003 	orr	r2, r2, r3
480105c0:	e51b3020 	ldr	r3, [fp, #-32]
480105c4:	e593300c 	ldr	r3, [r3, #12]
480105c8:	e1a03c23 	lsr	r3, r3, #24
480105cc:	e1823003 	orr	r3, r2, r3
480105d0:	e51b2020 	ldr	r2, [fp, #-32]
480105d4:	e0823003 	add	r3, r2, r3
480105d8:	e50b3008 	str	r3, [fp, #-8]
480105dc:	e51b0024 	ldr	r0, [fp, #-36]	; 0x24
480105e0:	ebffe9c3 	bl	4800acf4 <arm_strlen>
480105e4:	e1a03000 	mov	r3, r0
480105e8:	e2833001 	add	r3, r3, #1
480105ec:	e50b300c 	str	r3, [fp, #-12]
480105f0:	e51b3020 	ldr	r3, [fp, #-32]
480105f4:	e5933020 	ldr	r3, [r3, #32]
480105f8:	e1a02c03 	lsl	r2, r3, #24
480105fc:	e51b3020 	ldr	r3, [fp, #-32]
48010600:	e5933020 	ldr	r3, [r3, #32]
48010604:	e2033cff 	and	r3, r3, #65280	; 0xff00
48010608:	e1a03403 	lsl	r3, r3, #8
4801060c:	e1822003 	orr	r2, r2, r3
48010610:	e51b3020 	ldr	r3, [fp, #-32]
48010614:	e5933020 	ldr	r3, [r3, #32]
48010618:	e20338ff 	and	r3, r3, #16711680	; 0xff0000
4801061c:	e1a03423 	lsr	r3, r3, #8
48010620:	e1822003 	orr	r2, r2, r3
48010624:	e51b3020 	ldr	r3, [fp, #-32]
48010628:	e5933020 	ldr	r3, [r3, #32]
4801062c:	e1a03c23 	lsr	r3, r3, #24
48010630:	e1823003 	orr	r3, r2, r3
48010634:	e51b0008 	ldr	r0, [fp, #-8]
48010638:	e1a01003 	mov	r1, r3
4801063c:	e51b2024 	ldr	r2, [fp, #-36]	; 0x24
48010640:	ebfff4fb 	bl	4800da34 <_fdt_find_string>
48010644:	e50b0010 	str	r0, [fp, #-16]
48010648:	e51b3010 	ldr	r3, [fp, #-16]
4801064c:	e3530000 	cmp	r3, #0
48010650:	0a000003 	beq	48010664 <_fdt_find_add_string+0xec>
48010654:	e51b2010 	ldr	r2, [fp, #-16]
48010658:	e51b3008 	ldr	r3, [fp, #-8]
4801065c:	e0633002 	rsb	r3, r3, r2
48010660:	ea000024 	b	480106f8 <_fdt_find_add_string+0x180>
48010664:	e51b3020 	ldr	r3, [fp, #-32]
48010668:	e5933020 	ldr	r3, [r3, #32]
4801066c:	e1a02c03 	lsl	r2, r3, #24
48010670:	e51b3020 	ldr	r3, [fp, #-32]
48010674:	e5933020 	ldr	r3, [r3, #32]
48010678:	e2033cff 	and	r3, r3, #65280	; 0xff00
4801067c:	e1a03403 	lsl	r3, r3, #8
48010680:	e1822003 	orr	r2, r2, r3
48010684:	e51b3020 	ldr	r3, [fp, #-32]
48010688:	e5933020 	ldr	r3, [r3, #32]
4801068c:	e20338ff 	and	r3, r3, #16711680	; 0xff0000
48010690:	e1a03423 	lsr	r3, r3, #8
48010694:	e1822003 	orr	r2, r2, r3
48010698:	e51b3020 	ldr	r3, [fp, #-32]
4801069c:	e5933020 	ldr	r3, [r3, #32]
480106a0:	e1a03c23 	lsr	r3, r3, #24
480106a4:	e1823003 	orr	r3, r2, r3
480106a8:	e51b2008 	ldr	r2, [fp, #-8]
480106ac:	e0823003 	add	r3, r2, r3
480106b0:	e50b3014 	str	r3, [fp, #-20]
480106b4:	e51b0020 	ldr	r0, [fp, #-32]
480106b8:	e51b100c 	ldr	r1, [fp, #-12]
480106bc:	ebffff5d 	bl	48010438 <_fdt_splice_string>
480106c0:	e50b0018 	str	r0, [fp, #-24]
480106c4:	e51b3018 	ldr	r3, [fp, #-24]
480106c8:	e3530000 	cmp	r3, #0
480106cc:	0a000001 	beq	480106d8 <_fdt_find_add_string+0x160>
480106d0:	e51b3018 	ldr	r3, [fp, #-24]
480106d4:	ea000007 	b	480106f8 <_fdt_find_add_string+0x180>
480106d8:	e51b300c 	ldr	r3, [fp, #-12]
480106dc:	e51b0014 	ldr	r0, [fp, #-20]
480106e0:	e51b1024 	ldr	r1, [fp, #-36]	; 0x24
480106e4:	e1a02003 	mov	r2, r3
480106e8:	ebffe84b 	bl	4800a81c <arm_memcpy>
480106ec:	e51b2014 	ldr	r2, [fp, #-20]
480106f0:	e51b3008 	ldr	r3, [fp, #-8]
480106f4:	e0633002 	rsb	r3, r3, r2
480106f8:	e1a00003 	mov	r0, r3
480106fc:	e24bd004 	sub	sp, fp, #4
48010700:	e8bd8800 	pop	{fp, pc}

48010704 <fdt_add_mem_rsv>:
48010704:	e92d4bf0 	push	{r4, r5, r6, r7, r8, r9, fp, lr}
48010708:	e28db01c 	add	fp, sp, #28
4801070c:	e24dd088 	sub	sp, sp, #136	; 0x88
48010710:	e50b0030 	str	r0, [fp, #-48]	; 0x30
48010714:	e14b23fc 	strd	r2, [fp, #-60]	; 0xffffffc4
48010718:	e51b0030 	ldr	r0, [fp, #-48]	; 0x30
4801071c:	ebfffde9 	bl	4800fec8 <_fdt_rw_check_header>
48010720:	e50b0020 	str	r0, [fp, #-32]
48010724:	e51b3020 	ldr	r3, [fp, #-32]
48010728:	e3530000 	cmp	r3, #0
4801072c:	0a000001 	beq	48010738 <fdt_add_mem_rsv+0x34>
48010730:	e51b3020 	ldr	r3, [fp, #-32]
48010734:	ea0000cd 	b	48010a70 <fdt_add_mem_rsv+0x36c>
48010738:	e51b0030 	ldr	r0, [fp, #-48]	; 0x30
4801073c:	ebfff6e7 	bl	4800e2e0 <fdt_num_mem_rsv>
48010740:	e1a03000 	mov	r3, r0
48010744:	e51b0030 	ldr	r0, [fp, #-48]	; 0x30
48010748:	e1a01003 	mov	r1, r3
4801074c:	ebfffd2f 	bl	4800fc10 <_fdt_mem_rsv_w>
48010750:	e50b0024 	str	r0, [fp, #-36]	; 0x24
48010754:	e51b0030 	ldr	r0, [fp, #-48]	; 0x30
48010758:	e51b1024 	ldr	r1, [fp, #-36]	; 0x24
4801075c:	e3a02000 	mov	r2, #0
48010760:	e3a03001 	mov	r3, #1
48010764:	ebfffea3 	bl	480101f8 <_fdt_splice_mem_rsv>
48010768:	e50b0028 	str	r0, [fp, #-40]	; 0x28
4801076c:	e51b3028 	ldr	r3, [fp, #-40]	; 0x28
48010770:	e3530000 	cmp	r3, #0
48010774:	0a000001 	beq	48010780 <fdt_add_mem_rsv+0x7c>
48010778:	e51b3028 	ldr	r3, [fp, #-40]	; 0x28
4801077c:	ea0000bb 	b	48010a70 <fdt_add_mem_rsv+0x36c>
48010780:	e14b23dc 	ldrd	r2, [fp, #-60]	; 0xffffffc4
48010784:	e1a00c02 	lsl	r0, r2, #24
48010788:	e50b0040 	str	r0, [fp, #-64]	; 0x40
4801078c:	e3a01000 	mov	r1, #0
48010790:	e50b1044 	str	r1, [fp, #-68]	; 0x44
48010794:	e14b03dc 	ldrd	r0, [fp, #-60]	; 0xffffffc4
48010798:	e3a02cff 	mov	r2, #65280	; 0xff00
4801079c:	e3a03000 	mov	r3, #0
480107a0:	e0022000 	and	r2, r2, r0
480107a4:	e0033001 	and	r3, r3, r1
480107a8:	e1a05402 	lsl	r5, r2, #8
480107ac:	e3a04000 	mov	r4, #0
480107b0:	e14b24d4 	ldrd	r2, [fp, #-68]	; 0xffffffbc
480107b4:	e1844002 	orr	r4, r4, r2
480107b8:	e1855003 	orr	r5, r5, r3
480107bc:	e14b03dc 	ldrd	r0, [fp, #-60]	; 0xffffffc4
480107c0:	e3a028ff 	mov	r2, #16711680	; 0xff0000
480107c4:	e3a03000 	mov	r3, #0
480107c8:	e0022000 	and	r2, r2, r0
480107cc:	e0033001 	and	r3, r3, r1
480107d0:	e1a07c03 	lsl	r7, r3, #24
480107d4:	e1877422 	orr	r7, r7, r2, lsr #8
480107d8:	e1a06c02 	lsl	r6, r2, #24
480107dc:	e1844006 	orr	r4, r4, r6
480107e0:	e1855007 	orr	r5, r5, r7
480107e4:	e14b03dc 	ldrd	r0, [fp, #-60]	; 0xffffffc4
480107e8:	e3a024ff 	mov	r2, #-16777216	; 0xff000000
480107ec:	e3a03000 	mov	r3, #0
480107f0:	e0022000 	and	r2, r2, r0
480107f4:	e0033001 	and	r3, r3, r1
480107f8:	e1a09403 	lsl	r9, r3, #8
480107fc:	e1899c22 	orr	r9, r9, r2, lsr #24
48010800:	e1a08402 	lsl	r8, r2, #8
48010804:	e1844008 	orr	r4, r4, r8
48010808:	e1855009 	orr	r5, r5, r9
4801080c:	e14b03dc 	ldrd	r0, [fp, #-60]	; 0xffffffc4
48010810:	e3a02000 	mov	r2, #0
48010814:	e3a030ff 	mov	r3, #255	; 0xff
48010818:	e0022000 	and	r2, r2, r0
4801081c:	e0033001 	and	r3, r3, r1
48010820:	e1a0c422 	lsr	ip, r2, #8
48010824:	e50bc04c 	str	ip, [fp, #-76]	; 0x4c
48010828:	e51b004c 	ldr	r0, [fp, #-76]	; 0x4c
4801082c:	e1800c03 	orr	r0, r0, r3, lsl #24
48010830:	e50b004c 	str	r0, [fp, #-76]	; 0x4c
48010834:	e1a01423 	lsr	r1, r3, #8
48010838:	e50b1048 	str	r1, [fp, #-72]	; 0x48
4801083c:	e14b24dc 	ldrd	r2, [fp, #-76]	; 0xffffffb4
48010840:	e1844002 	orr	r4, r4, r2
48010844:	e1855003 	orr	r5, r5, r3
48010848:	e14b03dc 	ldrd	r0, [fp, #-60]	; 0xffffffc4
4801084c:	e3a02000 	mov	r2, #0
48010850:	e3a03cff 	mov	r3, #65280	; 0xff00
48010854:	e0022000 	and	r2, r2, r0
48010858:	e0033001 	and	r3, r3, r1
4801085c:	e1a0cc22 	lsr	ip, r2, #24
48010860:	e50bc054 	str	ip, [fp, #-84]	; 0x54
48010864:	e51b0054 	ldr	r0, [fp, #-84]	; 0x54
48010868:	e1800403 	orr	r0, r0, r3, lsl #8
4801086c:	e50b0054 	str	r0, [fp, #-84]	; 0x54
48010870:	e1a01c23 	lsr	r1, r3, #24
48010874:	e50b1050 	str	r1, [fp, #-80]	; 0x50
48010878:	e14b25d4 	ldrd	r2, [fp, #-84]	; 0xffffffac
4801087c:	e1844002 	orr	r4, r4, r2
48010880:	e1855003 	orr	r5, r5, r3
48010884:	e14b03dc 	ldrd	r0, [fp, #-60]	; 0xffffffc4
48010888:	e3a02000 	mov	r2, #0
4801088c:	e3a038ff 	mov	r3, #16711680	; 0xff0000
48010890:	e0022000 	and	r2, r2, r0
48010894:	e0033001 	and	r3, r3, r1
48010898:	e1a0c423 	lsr	ip, r3, #8
4801089c:	e50bc05c 	str	ip, [fp, #-92]	; 0x5c
480108a0:	e3a00000 	mov	r0, #0
480108a4:	e50b0058 	str	r0, [fp, #-88]	; 0x58
480108a8:	e14b05dc 	ldrd	r0, [fp, #-92]	; 0xffffffa4
480108ac:	e1800004 	orr	r0, r0, r4
480108b0:	e1811005 	orr	r1, r1, r5
480108b4:	e14b23dc 	ldrd	r2, [fp, #-60]	; 0xffffffc4
480108b8:	e1a0cc23 	lsr	ip, r3, #24
480108bc:	e50bc064 	str	ip, [fp, #-100]	; 0x64
480108c0:	e3a02000 	mov	r2, #0
480108c4:	e50b2060 	str	r2, [fp, #-96]	; 0x60
480108c8:	e14b26d4 	ldrd	r2, [fp, #-100]	; 0xffffff9c
480108cc:	e1800002 	orr	r0, r0, r2
480108d0:	e1811003 	orr	r1, r1, r3
480108d4:	e51b3024 	ldr	r3, [fp, #-36]	; 0x24
480108d8:	e1c300f0 	strd	r0, [r3]
480108dc:	e1cb20d4 	ldrd	r2, [fp, #4]
480108e0:	e1a0cc02 	lsl	ip, r2, #24
480108e4:	e50bc068 	str	ip, [fp, #-104]	; 0x68
480108e8:	e3a00000 	mov	r0, #0
480108ec:	e50b006c 	str	r0, [fp, #-108]	; 0x6c
480108f0:	e1cb00d4 	ldrd	r0, [fp, #4]
480108f4:	e3a02cff 	mov	r2, #65280	; 0xff00
480108f8:	e3a03000 	mov	r3, #0
480108fc:	e0022000 	and	r2, r2, r0
48010900:	e0033001 	and	r3, r3, r1
48010904:	e1a01402 	lsl	r1, r2, #8
48010908:	e50b1070 	str	r1, [fp, #-112]	; 0x70
4801090c:	e3a02000 	mov	r2, #0
48010910:	e50b2074 	str	r2, [fp, #-116]	; 0x74
48010914:	e14b46dc 	ldrd	r4, [fp, #-108]	; 0xffffff94
48010918:	e14b07d4 	ldrd	r0, [fp, #-116]	; 0xffffff8c
4801091c:	e1844000 	orr	r4, r4, r0
48010920:	e1855001 	orr	r5, r5, r1
48010924:	e1cb00d4 	ldrd	r0, [fp, #4]
48010928:	e3a028ff 	mov	r2, #16711680	; 0xff0000
4801092c:	e3a03000 	mov	r3, #0
48010930:	e0022000 	and	r2, r2, r0
48010934:	e0033001 	and	r3, r3, r1
48010938:	e1a01c03 	lsl	r1, r3, #24
4801093c:	e50b1078 	str	r1, [fp, #-120]	; 0x78
48010940:	e51bc078 	ldr	ip, [fp, #-120]	; 0x78
48010944:	e18cc422 	orr	ip, ip, r2, lsr #8
48010948:	e50bc078 	str	ip, [fp, #-120]	; 0x78
4801094c:	e1a00c02 	lsl	r0, r2, #24
48010950:	e50b007c 	str	r0, [fp, #-124]	; 0x7c
48010954:	e14b27dc 	ldrd	r2, [fp, #-124]	; 0xffffff84
48010958:	e1844002 	orr	r4, r4, r2
4801095c:	e1855003 	orr	r5, r5, r3
48010960:	e1cb00d4 	ldrd	r0, [fp, #4]
48010964:	e3a024ff 	mov	r2, #-16777216	; 0xff000000
48010968:	e3a03000 	mov	r3, #0
4801096c:	e0022000 	and	r2, r2, r0
48010970:	e0033001 	and	r3, r3, r1
48010974:	e1a0c403 	lsl	ip, r3, #8
48010978:	e50bc080 	str	ip, [fp, #-128]	; 0x80
4801097c:	e51b0080 	ldr	r0, [fp, #-128]	; 0x80
48010980:	e1800c22 	orr	r0, r0, r2, lsr #24
48010984:	e50b0080 	str	r0, [fp, #-128]	; 0x80
48010988:	e1a01402 	lsl	r1, r2, #8
4801098c:	e50b1084 	str	r1, [fp, #-132]	; 0x84
48010990:	e14b08d4 	ldrd	r0, [fp, #-132]	; 0xffffff7c
48010994:	e1800004 	orr	r0, r0, r4
48010998:	e1811005 	orr	r1, r1, r5
4801099c:	e1cb40d4 	ldrd	r4, [fp, #4]
480109a0:	e3a02000 	mov	r2, #0
480109a4:	e3a030ff 	mov	r3, #255	; 0xff
480109a8:	e0022004 	and	r2, r2, r4
480109ac:	e0033005 	and	r3, r3, r5
480109b0:	e1a0c422 	lsr	ip, r2, #8
480109b4:	e50bc08c 	str	ip, [fp, #-140]	; 0x8c
480109b8:	e51bc08c 	ldr	ip, [fp, #-140]	; 0x8c
480109bc:	e18ccc03 	orr	ip, ip, r3, lsl #24
480109c0:	e50bc08c 	str	ip, [fp, #-140]	; 0x8c
480109c4:	e1a0c423 	lsr	ip, r3, #8
480109c8:	e50bc088 	str	ip, [fp, #-136]	; 0x88
480109cc:	e14b28dc 	ldrd	r2, [fp, #-140]	; 0xffffff74
480109d0:	e1800002 	orr	r0, r0, r2
480109d4:	e1811003 	orr	r1, r1, r3
480109d8:	e1cb40d4 	ldrd	r4, [fp, #4]
480109dc:	e3a02000 	mov	r2, #0
480109e0:	e3a03cff 	mov	r3, #65280	; 0xff00
480109e4:	e0022004 	and	r2, r2, r4
480109e8:	e0033005 	and	r3, r3, r5
480109ec:	e1a0cc22 	lsr	ip, r2, #24
480109f0:	e50bc094 	str	ip, [fp, #-148]	; 0x94
480109f4:	e51bc094 	ldr	ip, [fp, #-148]	; 0x94
480109f8:	e18cc403 	orr	ip, ip, r3, lsl #8
480109fc:	e50bc094 	str	ip, [fp, #-148]	; 0x94
48010a00:	e1a0cc23 	lsr	ip, r3, #24
48010a04:	e50bc090 	str	ip, [fp, #-144]	; 0x90
48010a08:	e14b29d4 	ldrd	r2, [fp, #-148]	; 0xffffff6c
48010a0c:	e1822000 	orr	r2, r2, r0
48010a10:	e1833001 	orr	r3, r3, r1
48010a14:	e1cb40d4 	ldrd	r4, [fp, #4]
48010a18:	e3a00000 	mov	r0, #0
48010a1c:	e3a018ff 	mov	r1, #16711680	; 0xff0000
48010a20:	e0000004 	and	r0, r0, r4
48010a24:	e0011005 	and	r1, r1, r5
48010a28:	e1a0c421 	lsr	ip, r1, #8
48010a2c:	e50bc09c 	str	ip, [fp, #-156]	; 0x9c
48010a30:	e3a00000 	mov	r0, #0
48010a34:	e50b0098 	str	r0, [fp, #-152]	; 0x98
48010a38:	e14b09dc 	ldrd	r0, [fp, #-156]	; 0xffffff64
48010a3c:	e1822000 	orr	r2, r2, r0
48010a40:	e1833001 	orr	r3, r3, r1
48010a44:	e1cb00d4 	ldrd	r0, [fp, #4]
48010a48:	e1a0cc21 	lsr	ip, r1, #24
48010a4c:	e50bc0a4 	str	ip, [fp, #-164]	; 0xa4
48010a50:	e3a00000 	mov	r0, #0
48010a54:	e50b00a0 	str	r0, [fp, #-160]	; 0xa0
48010a58:	e14b0ad4 	ldrd	r0, [fp, #-164]	; 0xffffff5c
48010a5c:	e1822000 	orr	r2, r2, r0
48010a60:	e1833001 	orr	r3, r3, r1
48010a64:	e51b1024 	ldr	r1, [fp, #-36]	; 0x24
48010a68:	e1c120f8 	strd	r2, [r1, #8]
48010a6c:	e3a03000 	mov	r3, #0
48010a70:	e1a00003 	mov	r0, r3
48010a74:	e24bd01c 	sub	sp, fp, #28
48010a78:	e8bd8bf0 	pop	{r4, r5, r6, r7, r8, r9, fp, pc}

48010a7c <fdt_del_mem_rsv>:
48010a7c:	e92d4800 	push	{fp, lr}
48010a80:	e28db004 	add	fp, sp, #4
48010a84:	e24dd018 	sub	sp, sp, #24
48010a88:	e50b0018 	str	r0, [fp, #-24]
48010a8c:	e50b101c 	str	r1, [fp, #-28]
48010a90:	e51b0018 	ldr	r0, [fp, #-24]
48010a94:	e51b101c 	ldr	r1, [fp, #-28]
48010a98:	ebfffc5c 	bl	4800fc10 <_fdt_mem_rsv_w>
48010a9c:	e50b0008 	str	r0, [fp, #-8]
48010aa0:	e51b0018 	ldr	r0, [fp, #-24]
48010aa4:	ebfffd07 	bl	4800fec8 <_fdt_rw_check_header>
48010aa8:	e50b000c 	str	r0, [fp, #-12]
48010aac:	e51b300c 	ldr	r3, [fp, #-12]
48010ab0:	e3530000 	cmp	r3, #0
48010ab4:	0a000001 	beq	48010ac0 <fdt_del_mem_rsv+0x44>
48010ab8:	e51b300c 	ldr	r3, [fp, #-12]
48010abc:	ea000013 	b	48010b10 <fdt_del_mem_rsv+0x94>
48010ac0:	e51b0018 	ldr	r0, [fp, #-24]
48010ac4:	ebfff605 	bl	4800e2e0 <fdt_num_mem_rsv>
48010ac8:	e1a02000 	mov	r2, r0
48010acc:	e51b301c 	ldr	r3, [fp, #-28]
48010ad0:	e1520003 	cmp	r2, r3
48010ad4:	ca000001 	bgt	48010ae0 <fdt_del_mem_rsv+0x64>
48010ad8:	e3e03000 	mvn	r3, #0
48010adc:	ea00000b 	b	48010b10 <fdt_del_mem_rsv+0x94>
48010ae0:	e51b0018 	ldr	r0, [fp, #-24]
48010ae4:	e51b1008 	ldr	r1, [fp, #-8]
48010ae8:	e3a02001 	mov	r2, #1
48010aec:	e3a03000 	mov	r3, #0
48010af0:	ebfffdc0 	bl	480101f8 <_fdt_splice_mem_rsv>
48010af4:	e50b0010 	str	r0, [fp, #-16]
48010af8:	e51b3010 	ldr	r3, [fp, #-16]
48010afc:	e3530000 	cmp	r3, #0
48010b00:	0a000001 	beq	48010b0c <fdt_del_mem_rsv+0x90>
48010b04:	e51b3010 	ldr	r3, [fp, #-16]
48010b08:	ea000000 	b	48010b10 <fdt_del_mem_rsv+0x94>
48010b0c:	e3a03000 	mov	r3, #0
48010b10:	e1a00003 	mov	r0, r3
48010b14:	e24bd004 	sub	sp, fp, #4
48010b18:	e8bd8800 	pop	{fp, pc}

48010b1c <_fdt_resize_property>:
48010b1c:	e92d4800 	push	{fp, lr}
48010b20:	e28db004 	add	fp, sp, #4
48010b24:	e24dd018 	sub	sp, sp, #24
48010b28:	e50b0010 	str	r0, [fp, #-16]
48010b2c:	e50b1014 	str	r1, [fp, #-20]
48010b30:	e50b2018 	str	r2, [fp, #-24]
48010b34:	e50b301c 	str	r3, [fp, #-28]
48010b38:	e24b300c 	sub	r3, fp, #12
48010b3c:	e51b0010 	ldr	r0, [fp, #-16]
48010b40:	e51b1014 	ldr	r1, [fp, #-20]
48010b44:	e51b2018 	ldr	r2, [fp, #-24]
48010b48:	ebfffbd5 	bl	4800faa4 <fdt_get_property_w>
48010b4c:	e1a02000 	mov	r2, r0
48010b50:	e59b3004 	ldr	r3, [fp, #4]
48010b54:	e5832000 	str	r2, [r3]
48010b58:	e59b3004 	ldr	r3, [fp, #4]
48010b5c:	e5933000 	ldr	r3, [r3]
48010b60:	e3530000 	cmp	r3, #0
48010b64:	1a000001 	bne	48010b70 <_fdt_resize_property+0x54>
48010b68:	e51b300c 	ldr	r3, [fp, #-12]
48010b6c:	ea000021 	b	48010bf8 <_fdt_resize_property+0xdc>
48010b70:	e59b3004 	ldr	r3, [fp, #4]
48010b74:	e5933000 	ldr	r3, [r3]
48010b78:	e283100c 	add	r1, r3, #12
48010b7c:	e51b300c 	ldr	r3, [fp, #-12]
48010b80:	e2833003 	add	r3, r3, #3
48010b84:	e3c32003 	bic	r2, r3, #3
48010b88:	e51b301c 	ldr	r3, [fp, #-28]
48010b8c:	e2833003 	add	r3, r3, #3
48010b90:	e3c33003 	bic	r3, r3, #3
48010b94:	e51b0010 	ldr	r0, [fp, #-16]
48010b98:	ebfffde0 	bl	48010320 <_fdt_splice_struct>
48010b9c:	e50b0008 	str	r0, [fp, #-8]
48010ba0:	e51b3008 	ldr	r3, [fp, #-8]
48010ba4:	e3530000 	cmp	r3, #0
48010ba8:	0a000001 	beq	48010bb4 <_fdt_resize_property+0x98>
48010bac:	e51b3008 	ldr	r3, [fp, #-8]
48010bb0:	ea000010 	b	48010bf8 <_fdt_resize_property+0xdc>
48010bb4:	e59b3004 	ldr	r3, [fp, #4]
48010bb8:	e5933000 	ldr	r3, [r3]
48010bbc:	e51b201c 	ldr	r2, [fp, #-28]
48010bc0:	e1a01c02 	lsl	r1, r2, #24
48010bc4:	e51b201c 	ldr	r2, [fp, #-28]
48010bc8:	e2022cff 	and	r2, r2, #65280	; 0xff00
48010bcc:	e1a02402 	lsl	r2, r2, #8
48010bd0:	e1811002 	orr	r1, r1, r2
48010bd4:	e51b201c 	ldr	r2, [fp, #-28]
48010bd8:	e20228ff 	and	r2, r2, #16711680	; 0xff0000
48010bdc:	e1a02422 	lsr	r2, r2, #8
48010be0:	e1811002 	orr	r1, r1, r2
48010be4:	e51b201c 	ldr	r2, [fp, #-28]
48010be8:	e1a02c22 	lsr	r2, r2, #24
48010bec:	e1812002 	orr	r2, r1, r2
48010bf0:	e5832004 	str	r2, [r3, #4]
48010bf4:	e3a03000 	mov	r3, #0
48010bf8:	e1a00003 	mov	r0, r3
48010bfc:	e24bd004 	sub	sp, fp, #4
48010c00:	e8bd8800 	pop	{fp, pc}

48010c04 <_fdt_add_property>:
48010c04:	e92d4800 	push	{fp, lr}
48010c08:	e28db004 	add	fp, sp, #4
48010c0c:	e24dd020 	sub	sp, sp, #32
48010c10:	e50b0018 	str	r0, [fp, #-24]
48010c14:	e50b101c 	str	r1, [fp, #-28]
48010c18:	e50b2020 	str	r2, [fp, #-32]
48010c1c:	e50b3024 	str	r3, [fp, #-36]	; 0x24
48010c20:	e51b0018 	ldr	r0, [fp, #-24]
48010c24:	e51b101c 	ldr	r1, [fp, #-28]
48010c28:	ebfff2f3 	bl	4800d7fc <_fdt_check_node_offset>
48010c2c:	e50b0008 	str	r0, [fp, #-8]
48010c30:	e51b3008 	ldr	r3, [fp, #-8]
48010c34:	e3530000 	cmp	r3, #0
48010c38:	aa000001 	bge	48010c44 <_fdt_add_property+0x40>
48010c3c:	e51b3008 	ldr	r3, [fp, #-8]
48010c40:	ea000045 	b	48010d5c <_fdt_add_property+0x158>
48010c44:	e51b0018 	ldr	r0, [fp, #-24]
48010c48:	e51b1020 	ldr	r1, [fp, #-32]
48010c4c:	ebfffe49 	bl	48010578 <_fdt_find_add_string>
48010c50:	e50b000c 	str	r0, [fp, #-12]
48010c54:	e51b300c 	ldr	r3, [fp, #-12]
48010c58:	e3530000 	cmp	r3, #0
48010c5c:	aa000001 	bge	48010c68 <_fdt_add_property+0x64>
48010c60:	e51b300c 	ldr	r3, [fp, #-12]
48010c64:	ea00003c 	b	48010d5c <_fdt_add_property+0x158>
48010c68:	e51b0018 	ldr	r0, [fp, #-24]
48010c6c:	e51b1008 	ldr	r1, [fp, #-8]
48010c70:	ebfffbb9 	bl	4800fb5c <_fdt_offset_ptr_w>
48010c74:	e1a02000 	mov	r2, r0
48010c78:	e59b3004 	ldr	r3, [fp, #4]
48010c7c:	e5832000 	str	r2, [r3]
48010c80:	e51b3024 	ldr	r3, [fp, #-36]	; 0x24
48010c84:	e2833003 	add	r3, r3, #3
48010c88:	e3c33003 	bic	r3, r3, #3
48010c8c:	e283300c 	add	r3, r3, #12
48010c90:	e50b3010 	str	r3, [fp, #-16]
48010c94:	e59b3004 	ldr	r3, [fp, #4]
48010c98:	e5933000 	ldr	r3, [r3]
48010c9c:	e51b0018 	ldr	r0, [fp, #-24]
48010ca0:	e1a01003 	mov	r1, r3
48010ca4:	e3a02000 	mov	r2, #0
48010ca8:	e51b3010 	ldr	r3, [fp, #-16]
48010cac:	ebfffd9b 	bl	48010320 <_fdt_splice_struct>
48010cb0:	e50b0014 	str	r0, [fp, #-20]
48010cb4:	e51b3014 	ldr	r3, [fp, #-20]
48010cb8:	e3530000 	cmp	r3, #0
48010cbc:	0a000001 	beq	48010cc8 <_fdt_add_property+0xc4>
48010cc0:	e51b3014 	ldr	r3, [fp, #-20]
48010cc4:	ea000024 	b	48010d5c <_fdt_add_property+0x158>
48010cc8:	e59b3004 	ldr	r3, [fp, #4]
48010ccc:	e5933000 	ldr	r3, [r3]
48010cd0:	e3a02403 	mov	r2, #50331648	; 0x3000000
48010cd4:	e5832000 	str	r2, [r3]
48010cd8:	e59b3004 	ldr	r3, [fp, #4]
48010cdc:	e5933000 	ldr	r3, [r3]
48010ce0:	e51b200c 	ldr	r2, [fp, #-12]
48010ce4:	e1a01c02 	lsl	r1, r2, #24
48010ce8:	e51b200c 	ldr	r2, [fp, #-12]
48010cec:	e2022cff 	and	r2, r2, #65280	; 0xff00
48010cf0:	e1a02402 	lsl	r2, r2, #8
48010cf4:	e1811002 	orr	r1, r1, r2
48010cf8:	e51b200c 	ldr	r2, [fp, #-12]
48010cfc:	e20228ff 	and	r2, r2, #16711680	; 0xff0000
48010d00:	e1a02422 	lsr	r2, r2, #8
48010d04:	e1811002 	orr	r1, r1, r2
48010d08:	e51b200c 	ldr	r2, [fp, #-12]
48010d0c:	e1a02c22 	lsr	r2, r2, #24
48010d10:	e1812002 	orr	r2, r1, r2
48010d14:	e5832008 	str	r2, [r3, #8]
48010d18:	e59b3004 	ldr	r3, [fp, #4]
48010d1c:	e5933000 	ldr	r3, [r3]
48010d20:	e51b2024 	ldr	r2, [fp, #-36]	; 0x24
48010d24:	e1a01c02 	lsl	r1, r2, #24
48010d28:	e51b2024 	ldr	r2, [fp, #-36]	; 0x24
48010d2c:	e2022cff 	and	r2, r2, #65280	; 0xff00
48010d30:	e1a02402 	lsl	r2, r2, #8
48010d34:	e1811002 	orr	r1, r1, r2
48010d38:	e51b2024 	ldr	r2, [fp, #-36]	; 0x24
48010d3c:	e20228ff 	and	r2, r2, #16711680	; 0xff0000
48010d40:	e1a02422 	lsr	r2, r2, #8
48010d44:	e1811002 	orr	r1, r1, r2
48010d48:	e51b2024 	ldr	r2, [fp, #-36]	; 0x24
48010d4c:	e1a02c22 	lsr	r2, r2, #24
48010d50:	e1812002 	orr	r2, r1, r2
48010d54:	e5832004 	str	r2, [r3, #4]
48010d58:	e3a03000 	mov	r3, #0
48010d5c:	e1a00003 	mov	r0, r3
48010d60:	e24bd004 	sub	sp, fp, #4
48010d64:	e8bd8800 	pop	{fp, pc}

48010d68 <fdt_set_name>:
48010d68:	e92d4800 	push	{fp, lr}
48010d6c:	e28db004 	add	fp, sp, #4
48010d70:	e24dd028 	sub	sp, sp, #40	; 0x28
48010d74:	e50b0020 	str	r0, [fp, #-32]
48010d78:	e50b1024 	str	r1, [fp, #-36]	; 0x24
48010d7c:	e50b2028 	str	r2, [fp, #-40]	; 0x28
48010d80:	e51b0020 	ldr	r0, [fp, #-32]
48010d84:	ebfffc4f 	bl	4800fec8 <_fdt_rw_check_header>
48010d88:	e50b0008 	str	r0, [fp, #-8]
48010d8c:	e51b3008 	ldr	r3, [fp, #-8]
48010d90:	e3530000 	cmp	r3, #0
48010d94:	0a000001 	beq	48010da0 <fdt_set_name+0x38>
48010d98:	e51b3008 	ldr	r3, [fp, #-8]
48010d9c:	ea000024 	b	48010e34 <fdt_set_name+0xcc>
48010da0:	e24b3018 	sub	r3, fp, #24
48010da4:	e51b0020 	ldr	r0, [fp, #-32]
48010da8:	e51b1024 	ldr	r1, [fp, #-36]	; 0x24
48010dac:	e1a02003 	mov	r2, r3
48010db0:	ebfff6a0 	bl	4800e838 <fdt_get_name>
48010db4:	e50b000c 	str	r0, [fp, #-12]
48010db8:	e51b300c 	ldr	r3, [fp, #-12]
48010dbc:	e3530000 	cmp	r3, #0
48010dc0:	1a000001 	bne	48010dcc <fdt_set_name+0x64>
48010dc4:	e51b3018 	ldr	r3, [fp, #-24]
48010dc8:	ea000019 	b	48010e34 <fdt_set_name+0xcc>
48010dcc:	e51b0028 	ldr	r0, [fp, #-40]	; 0x28
48010dd0:	ebffe7c7 	bl	4800acf4 <arm_strlen>
48010dd4:	e1a03000 	mov	r3, r0
48010dd8:	e50b3010 	str	r3, [fp, #-16]
48010ddc:	e51b3018 	ldr	r3, [fp, #-24]
48010de0:	e2833004 	add	r3, r3, #4
48010de4:	e3c32003 	bic	r2, r3, #3
48010de8:	e51b3010 	ldr	r3, [fp, #-16]
48010dec:	e2833004 	add	r3, r3, #4
48010df0:	e3c33003 	bic	r3, r3, #3
48010df4:	e51b0020 	ldr	r0, [fp, #-32]
48010df8:	e51b100c 	ldr	r1, [fp, #-12]
48010dfc:	ebfffd47 	bl	48010320 <_fdt_splice_struct>
48010e00:	e50b0014 	str	r0, [fp, #-20]
48010e04:	e51b3014 	ldr	r3, [fp, #-20]
48010e08:	e3530000 	cmp	r3, #0
48010e0c:	0a000001 	beq	48010e18 <fdt_set_name+0xb0>
48010e10:	e51b3014 	ldr	r3, [fp, #-20]
48010e14:	ea000006 	b	48010e34 <fdt_set_name+0xcc>
48010e18:	e51b3010 	ldr	r3, [fp, #-16]
48010e1c:	e2833001 	add	r3, r3, #1
48010e20:	e51b000c 	ldr	r0, [fp, #-12]
48010e24:	e51b1028 	ldr	r1, [fp, #-40]	; 0x28
48010e28:	e1a02003 	mov	r2, r3
48010e2c:	ebffe67a 	bl	4800a81c <arm_memcpy>
48010e30:	e3a03000 	mov	r3, #0
48010e34:	e1a00003 	mov	r0, r3
48010e38:	e24bd004 	sub	sp, fp, #4
48010e3c:	e8bd8800 	pop	{fp, pc}

48010e40 <fdt_setprop>:
48010e40:	e92d4800 	push	{fp, lr}
48010e44:	e28db004 	add	fp, sp, #4
48010e48:	e24dd028 	sub	sp, sp, #40	; 0x28
48010e4c:	e50b0018 	str	r0, [fp, #-24]
48010e50:	e50b101c 	str	r1, [fp, #-28]
48010e54:	e50b2020 	str	r2, [fp, #-32]
48010e58:	e50b3024 	str	r3, [fp, #-36]	; 0x24
48010e5c:	e51b0018 	ldr	r0, [fp, #-24]
48010e60:	ebfffc18 	bl	4800fec8 <_fdt_rw_check_header>
48010e64:	e50b000c 	str	r0, [fp, #-12]
48010e68:	e51b300c 	ldr	r3, [fp, #-12]
48010e6c:	e3530000 	cmp	r3, #0
48010e70:	0a000001 	beq	48010e7c <fdt_setprop+0x3c>
48010e74:	e51b300c 	ldr	r3, [fp, #-12]
48010e78:	ea00001f 	b	48010efc <fdt_setprop+0xbc>
48010e7c:	e24b3010 	sub	r3, fp, #16
48010e80:	e58d3000 	str	r3, [sp]
48010e84:	e51b0018 	ldr	r0, [fp, #-24]
48010e88:	e51b101c 	ldr	r1, [fp, #-28]
48010e8c:	e51b2020 	ldr	r2, [fp, #-32]
48010e90:	e59b3004 	ldr	r3, [fp, #4]
48010e94:	ebffff20 	bl	48010b1c <_fdt_resize_property>
48010e98:	e50b0008 	str	r0, [fp, #-8]
48010e9c:	e51b3008 	ldr	r3, [fp, #-8]
48010ea0:	e3730001 	cmn	r3, #1
48010ea4:	1a000007 	bne	48010ec8 <fdt_setprop+0x88>
48010ea8:	e24b3010 	sub	r3, fp, #16
48010eac:	e58d3000 	str	r3, [sp]
48010eb0:	e51b0018 	ldr	r0, [fp, #-24]
48010eb4:	e51b101c 	ldr	r1, [fp, #-28]
48010eb8:	e51b2020 	ldr	r2, [fp, #-32]
48010ebc:	e59b3004 	ldr	r3, [fp, #4]
48010ec0:	ebffff4f 	bl	48010c04 <_fdt_add_property>
48010ec4:	e50b0008 	str	r0, [fp, #-8]
48010ec8:	e51b3008 	ldr	r3, [fp, #-8]
48010ecc:	e3530000 	cmp	r3, #0
48010ed0:	0a000001 	beq	48010edc <fdt_setprop+0x9c>
48010ed4:	e51b3008 	ldr	r3, [fp, #-8]
48010ed8:	ea000007 	b	48010efc <fdt_setprop+0xbc>
48010edc:	e51b3010 	ldr	r3, [fp, #-16]
48010ee0:	e283200c 	add	r2, r3, #12
48010ee4:	e59b3004 	ldr	r3, [fp, #4]
48010ee8:	e1a00002 	mov	r0, r2
48010eec:	e51b1024 	ldr	r1, [fp, #-36]	; 0x24
48010ef0:	e1a02003 	mov	r2, r3
48010ef4:	ebffe648 	bl	4800a81c <arm_memcpy>
48010ef8:	e3a03000 	mov	r3, #0
48010efc:	e1a00003 	mov	r0, r3
48010f00:	e24bd004 	sub	sp, fp, #4
48010f04:	e8bd8800 	pop	{fp, pc}

48010f08 <fdt_delprop>:
48010f08:	e92d4800 	push	{fp, lr}
48010f0c:	e28db004 	add	fp, sp, #4
48010f10:	e24dd020 	sub	sp, sp, #32
48010f14:	e50b0018 	str	r0, [fp, #-24]
48010f18:	e50b101c 	str	r1, [fp, #-28]
48010f1c:	e50b2020 	str	r2, [fp, #-32]
48010f20:	e51b0018 	ldr	r0, [fp, #-24]
48010f24:	ebfffbe7 	bl	4800fec8 <_fdt_rw_check_header>
48010f28:	e50b0008 	str	r0, [fp, #-8]
48010f2c:	e51b3008 	ldr	r3, [fp, #-8]
48010f30:	e3530000 	cmp	r3, #0
48010f34:	0a000001 	beq	48010f40 <fdt_delprop+0x38>
48010f38:	e51b3008 	ldr	r3, [fp, #-8]
48010f3c:	ea000015 	b	48010f98 <fdt_delprop+0x90>
48010f40:	e24b3014 	sub	r3, fp, #20
48010f44:	e51b0018 	ldr	r0, [fp, #-24]
48010f48:	e51b101c 	ldr	r1, [fp, #-28]
48010f4c:	e51b2020 	ldr	r2, [fp, #-32]
48010f50:	ebfffad3 	bl	4800faa4 <fdt_get_property_w>
48010f54:	e50b000c 	str	r0, [fp, #-12]
48010f58:	e51b300c 	ldr	r3, [fp, #-12]
48010f5c:	e3530000 	cmp	r3, #0
48010f60:	1a000001 	bne	48010f6c <fdt_delprop+0x64>
48010f64:	e51b3014 	ldr	r3, [fp, #-20]
48010f68:	ea00000a 	b	48010f98 <fdt_delprop+0x90>
48010f6c:	e51b3014 	ldr	r3, [fp, #-20]
48010f70:	e2833003 	add	r3, r3, #3
48010f74:	e3c33003 	bic	r3, r3, #3
48010f78:	e283300c 	add	r3, r3, #12
48010f7c:	e50b3010 	str	r3, [fp, #-16]
48010f80:	e51b0018 	ldr	r0, [fp, #-24]
48010f84:	e51b100c 	ldr	r1, [fp, #-12]
48010f88:	e51b2010 	ldr	r2, [fp, #-16]
48010f8c:	e3a03000 	mov	r3, #0
48010f90:	ebfffce2 	bl	48010320 <_fdt_splice_struct>
48010f94:	e1a03000 	mov	r3, r0
48010f98:	e1a00003 	mov	r0, r3
48010f9c:	e24bd004 	sub	sp, fp, #4
48010fa0:	e8bd8800 	pop	{fp, pc}

48010fa4 <fdt_add_subnode_namelen>:
48010fa4:	e92d4800 	push	{fp, lr}
48010fa8:	e28db004 	add	fp, sp, #4
48010fac:	e24dd030 	sub	sp, sp, #48	; 0x30
48010fb0:	e50b0028 	str	r0, [fp, #-40]	; 0x28
48010fb4:	e50b102c 	str	r1, [fp, #-44]	; 0x2c
48010fb8:	e50b2030 	str	r2, [fp, #-48]	; 0x30
48010fbc:	e50b3034 	str	r3, [fp, #-52]	; 0x34
48010fc0:	e51b0028 	ldr	r0, [fp, #-40]	; 0x28
48010fc4:	ebfffbbf 	bl	4800fec8 <_fdt_rw_check_header>
48010fc8:	e50b0008 	str	r0, [fp, #-8]
48010fcc:	e51b3008 	ldr	r3, [fp, #-8]
48010fd0:	e3530000 	cmp	r3, #0
48010fd4:	0a000001 	beq	48010fe0 <fdt_add_subnode_namelen+0x3c>
48010fd8:	e51b3008 	ldr	r3, [fp, #-8]
48010fdc:	ea000052 	b	4801112c <fdt_add_subnode_namelen+0x188>
48010fe0:	e51b0028 	ldr	r0, [fp, #-40]	; 0x28
48010fe4:	e51b102c 	ldr	r1, [fp, #-44]	; 0x2c
48010fe8:	e51b2030 	ldr	r2, [fp, #-48]	; 0x30
48010fec:	e51b3034 	ldr	r3, [fp, #-52]	; 0x34
48010ff0:	ebfff564 	bl	4800e588 <fdt_subnode_offset_namelen>
48010ff4:	e50b000c 	str	r0, [fp, #-12]
48010ff8:	e51b300c 	ldr	r3, [fp, #-12]
48010ffc:	e3530000 	cmp	r3, #0
48011000:	ba000001 	blt	4801100c <fdt_add_subnode_namelen+0x68>
48011004:	e3e03001 	mvn	r3, #1
48011008:	ea000047 	b	4801112c <fdt_add_subnode_namelen+0x188>
4801100c:	e51b300c 	ldr	r3, [fp, #-12]
48011010:	e3730001 	cmn	r3, #1
48011014:	0a000001 	beq	48011020 <fdt_add_subnode_namelen+0x7c>
48011018:	e51b300c 	ldr	r3, [fp, #-12]
4801101c:	ea000042 	b	4801112c <fdt_add_subnode_namelen+0x188>
48011020:	e24b3024 	sub	r3, fp, #36	; 0x24
48011024:	e51b0028 	ldr	r0, [fp, #-40]	; 0x28
48011028:	e51b102c 	ldr	r1, [fp, #-44]	; 0x2c
4801102c:	e1a02003 	mov	r2, r3
48011030:	ebfff169 	bl	4800d5dc <fdt_next_tag>
48011034:	e51b3024 	ldr	r3, [fp, #-36]	; 0x24
48011038:	e50b300c 	str	r3, [fp, #-12]
4801103c:	e24b3024 	sub	r3, fp, #36	; 0x24
48011040:	e51b0028 	ldr	r0, [fp, #-40]	; 0x28
48011044:	e51b100c 	ldr	r1, [fp, #-12]
48011048:	e1a02003 	mov	r2, r3
4801104c:	ebfff162 	bl	4800d5dc <fdt_next_tag>
48011050:	e50b0010 	str	r0, [fp, #-16]
48011054:	e51b3010 	ldr	r3, [fp, #-16]
48011058:	e3530003 	cmp	r3, #3
4801105c:	0afffff4 	beq	48011034 <fdt_add_subnode_namelen+0x90>
48011060:	e51b3010 	ldr	r3, [fp, #-16]
48011064:	e3530004 	cmp	r3, #4
48011068:	0afffff1 	beq	48011034 <fdt_add_subnode_namelen+0x90>
4801106c:	e51b0028 	ldr	r0, [fp, #-40]	; 0x28
48011070:	e51b100c 	ldr	r1, [fp, #-12]
48011074:	ebfffab8 	bl	4800fb5c <_fdt_offset_ptr_w>
48011078:	e50b0014 	str	r0, [fp, #-20]
4801107c:	e51b3034 	ldr	r3, [fp, #-52]	; 0x34
48011080:	e2833004 	add	r3, r3, #4
48011084:	e3c33003 	bic	r3, r3, #3
48011088:	e2833008 	add	r3, r3, #8
4801108c:	e50b3018 	str	r3, [fp, #-24]
48011090:	e51b0028 	ldr	r0, [fp, #-40]	; 0x28
48011094:	e51b1014 	ldr	r1, [fp, #-20]
48011098:	e3a02000 	mov	r2, #0
4801109c:	e51b3018 	ldr	r3, [fp, #-24]
480110a0:	ebfffc9e 	bl	48010320 <_fdt_splice_struct>
480110a4:	e50b001c 	str	r0, [fp, #-28]
480110a8:	e51b301c 	ldr	r3, [fp, #-28]
480110ac:	e3530000 	cmp	r3, #0
480110b0:	0a000001 	beq	480110bc <fdt_add_subnode_namelen+0x118>
480110b4:	e51b301c 	ldr	r3, [fp, #-28]
480110b8:	ea00001b 	b	4801112c <fdt_add_subnode_namelen+0x188>
480110bc:	e51b3014 	ldr	r3, [fp, #-20]
480110c0:	e3a02401 	mov	r2, #16777216	; 0x1000000
480110c4:	e5832000 	str	r2, [r3]
480110c8:	e51b3014 	ldr	r3, [fp, #-20]
480110cc:	e2832004 	add	r2, r3, #4
480110d0:	e51b3034 	ldr	r3, [fp, #-52]	; 0x34
480110d4:	e2833004 	add	r3, r3, #4
480110d8:	e3c33003 	bic	r3, r3, #3
480110dc:	e1a00002 	mov	r0, r2
480110e0:	e3a01000 	mov	r1, #0
480110e4:	e1a02003 	mov	r2, r3
480110e8:	ebffe66e 	bl	4800aaa8 <arm_memset>
480110ec:	e51b3014 	ldr	r3, [fp, #-20]
480110f0:	e2832004 	add	r2, r3, #4
480110f4:	e51b3034 	ldr	r3, [fp, #-52]	; 0x34
480110f8:	e1a00002 	mov	r0, r2
480110fc:	e51b1030 	ldr	r1, [fp, #-48]	; 0x30
48011100:	e1a02003 	mov	r2, r3
48011104:	ebffe5c4 	bl	4800a81c <arm_memcpy>
48011108:	e51b3018 	ldr	r3, [fp, #-24]
4801110c:	e2433004 	sub	r3, r3, #4
48011110:	e51b2014 	ldr	r2, [fp, #-20]
48011114:	e0823003 	add	r3, r2, r3
48011118:	e50b3020 	str	r3, [fp, #-32]
4801111c:	e51b3020 	ldr	r3, [fp, #-32]
48011120:	e3a02402 	mov	r2, #33554432	; 0x2000000
48011124:	e5832000 	str	r2, [r3]
48011128:	e51b300c 	ldr	r3, [fp, #-12]
4801112c:	e1a00003 	mov	r0, r3
48011130:	e24bd004 	sub	sp, fp, #4
48011134:	e8bd8800 	pop	{fp, pc}

48011138 <fdt_add_subnode>:
48011138:	e92d4800 	push	{fp, lr}
4801113c:	e28db004 	add	fp, sp, #4
48011140:	e24dd010 	sub	sp, sp, #16
48011144:	e50b0008 	str	r0, [fp, #-8]
48011148:	e50b100c 	str	r1, [fp, #-12]
4801114c:	e50b2010 	str	r2, [fp, #-16]
48011150:	e51b0010 	ldr	r0, [fp, #-16]
48011154:	ebffe6e6 	bl	4800acf4 <arm_strlen>
48011158:	e1a03000 	mov	r3, r0
4801115c:	e51b0008 	ldr	r0, [fp, #-8]
48011160:	e51b100c 	ldr	r1, [fp, #-12]
48011164:	e51b2010 	ldr	r2, [fp, #-16]
48011168:	ebffff8d 	bl	48010fa4 <fdt_add_subnode_namelen>
4801116c:	e1a03000 	mov	r3, r0
48011170:	e1a00003 	mov	r0, r3
48011174:	e24bd004 	sub	sp, fp, #4
48011178:	e8bd8800 	pop	{fp, pc}

4801117c <fdt_del_node>:
4801117c:	e92d4800 	push	{fp, lr}
48011180:	e28db004 	add	fp, sp, #4
48011184:	e24dd010 	sub	sp, sp, #16
48011188:	e50b0010 	str	r0, [fp, #-16]
4801118c:	e50b1014 	str	r1, [fp, #-20]
48011190:	e51b0010 	ldr	r0, [fp, #-16]
48011194:	ebfffb4b 	bl	4800fec8 <_fdt_rw_check_header>
48011198:	e50b0008 	str	r0, [fp, #-8]
4801119c:	e51b3008 	ldr	r3, [fp, #-8]
480111a0:	e3530000 	cmp	r3, #0
480111a4:	0a000001 	beq	480111b0 <fdt_del_node+0x34>
480111a8:	e51b3008 	ldr	r3, [fp, #-8]
480111ac:	ea000015 	b	48011208 <fdt_del_node+0x8c>
480111b0:	e51b0010 	ldr	r0, [fp, #-16]
480111b4:	e51b1014 	ldr	r1, [fp, #-20]
480111b8:	eb000f96 	bl	48015018 <_fdt_node_end_offset>
480111bc:	e50b000c 	str	r0, [fp, #-12]
480111c0:	e51b300c 	ldr	r3, [fp, #-12]
480111c4:	e3530000 	cmp	r3, #0
480111c8:	aa000001 	bge	480111d4 <fdt_del_node+0x58>
480111cc:	e51b300c 	ldr	r3, [fp, #-12]
480111d0:	ea00000c 	b	48011208 <fdt_del_node+0x8c>
480111d4:	e51b0010 	ldr	r0, [fp, #-16]
480111d8:	e51b1014 	ldr	r1, [fp, #-20]
480111dc:	ebfffa5e 	bl	4800fb5c <_fdt_offset_ptr_w>
480111e0:	e1a02000 	mov	r2, r0
480111e4:	e51b100c 	ldr	r1, [fp, #-12]
480111e8:	e51b3014 	ldr	r3, [fp, #-20]
480111ec:	e0633001 	rsb	r3, r3, r1
480111f0:	e51b0010 	ldr	r0, [fp, #-16]
480111f4:	e1a01002 	mov	r1, r2
480111f8:	e1a02003 	mov	r2, r3
480111fc:	e3a03000 	mov	r3, #0
48011200:	ebfffc46 	bl	48010320 <_fdt_splice_struct>
48011204:	e1a03000 	mov	r3, r0
48011208:	e1a00003 	mov	r0, r3
4801120c:	e24bd004 	sub	sp, fp, #4
48011210:	e8bd8800 	pop	{fp, pc}

48011214 <_fdt_packblocks>:
48011214:	e92d4800 	push	{fp, lr}
48011218:	e28db004 	add	fp, sp, #4
4801121c:	e24dd020 	sub	sp, sp, #32
48011220:	e50b0018 	str	r0, [fp, #-24]
48011224:	e50b101c 	str	r1, [fp, #-28]
48011228:	e50b2020 	str	r2, [fp, #-32]
4801122c:	e50b3024 	str	r3, [fp, #-36]	; 0x24
48011230:	e3a03028 	mov	r3, #40	; 0x28
48011234:	e50b3008 	str	r3, [fp, #-8]
48011238:	e51b2008 	ldr	r2, [fp, #-8]
4801123c:	e51b3020 	ldr	r3, [fp, #-32]
48011240:	e0823003 	add	r3, r2, r3
48011244:	e50b300c 	str	r3, [fp, #-12]
48011248:	e51b200c 	ldr	r2, [fp, #-12]
4801124c:	e51b3024 	ldr	r3, [fp, #-36]	; 0x24
48011250:	e0823003 	add	r3, r2, r3
48011254:	e50b3010 	str	r3, [fp, #-16]
48011258:	e51b3008 	ldr	r3, [fp, #-8]
4801125c:	e51b201c 	ldr	r2, [fp, #-28]
48011260:	e0821003 	add	r1, r2, r3
48011264:	e51b3018 	ldr	r3, [fp, #-24]
48011268:	e5933010 	ldr	r3, [r3, #16]
4801126c:	e1a02c03 	lsl	r2, r3, #24
48011270:	e51b3018 	ldr	r3, [fp, #-24]
48011274:	e5933010 	ldr	r3, [r3, #16]
48011278:	e2033cff 	and	r3, r3, #65280	; 0xff00
4801127c:	e1a03403 	lsl	r3, r3, #8
48011280:	e1822003 	orr	r2, r2, r3
48011284:	e51b3018 	ldr	r3, [fp, #-24]
48011288:	e5933010 	ldr	r3, [r3, #16]
4801128c:	e20338ff 	and	r3, r3, #16711680	; 0xff0000
48011290:	e1a03423 	lsr	r3, r3, #8
48011294:	e1822003 	orr	r2, r2, r3
48011298:	e51b3018 	ldr	r3, [fp, #-24]
4801129c:	e5933010 	ldr	r3, [r3, #16]
480112a0:	e1a03c23 	lsr	r3, r3, #24
480112a4:	e1823003 	orr	r3, r2, r3
480112a8:	e51b2018 	ldr	r2, [fp, #-24]
480112ac:	e0822003 	add	r2, r2, r3
480112b0:	e51b3020 	ldr	r3, [fp, #-32]
480112b4:	e1a00001 	mov	r0, r1
480112b8:	e1a01002 	mov	r1, r2
480112bc:	e1a02003 	mov	r2, r3
480112c0:	ebffe58a 	bl	4800a8f0 <arm_memmove>
480112c4:	e51b3008 	ldr	r3, [fp, #-8]
480112c8:	e51b001c 	ldr	r0, [fp, #-28]
480112cc:	e1a01003 	mov	r1, r3
480112d0:	ebfff95d 	bl	4800f84c <fdt_set_off_mem_rsvmap>
480112d4:	e51b300c 	ldr	r3, [fp, #-12]
480112d8:	e51b201c 	ldr	r2, [fp, #-28]
480112dc:	e0821003 	add	r1, r2, r3
480112e0:	e51b3018 	ldr	r3, [fp, #-24]
480112e4:	e5933008 	ldr	r3, [r3, #8]
480112e8:	e1a02c03 	lsl	r2, r3, #24
480112ec:	e51b3018 	ldr	r3, [fp, #-24]
480112f0:	e5933008 	ldr	r3, [r3, #8]
480112f4:	e2033cff 	and	r3, r3, #65280	; 0xff00
480112f8:	e1a03403 	lsl	r3, r3, #8
480112fc:	e1822003 	orr	r2, r2, r3
48011300:	e51b3018 	ldr	r3, [fp, #-24]
48011304:	e5933008 	ldr	r3, [r3, #8]
48011308:	e20338ff 	and	r3, r3, #16711680	; 0xff0000
4801130c:	e1a03423 	lsr	r3, r3, #8
48011310:	e1822003 	orr	r2, r2, r3
48011314:	e51b3018 	ldr	r3, [fp, #-24]
48011318:	e5933008 	ldr	r3, [r3, #8]
4801131c:	e1a03c23 	lsr	r3, r3, #24
48011320:	e1823003 	orr	r3, r2, r3
48011324:	e51b2018 	ldr	r2, [fp, #-24]
48011328:	e0822003 	add	r2, r2, r3
4801132c:	e51b3024 	ldr	r3, [fp, #-36]	; 0x24
48011330:	e1a00001 	mov	r0, r1
48011334:	e1a01002 	mov	r1, r2
48011338:	e1a02003 	mov	r2, r3
4801133c:	ebffe56b 	bl	4800a8f0 <arm_memmove>
48011340:	e51b300c 	ldr	r3, [fp, #-12]
48011344:	e51b001c 	ldr	r0, [fp, #-28]
48011348:	e1a01003 	mov	r1, r3
4801134c:	ebfff90c 	bl	4800f784 <fdt_set_off_dt_struct>
48011350:	e51b3024 	ldr	r3, [fp, #-36]	; 0x24
48011354:	e51b001c 	ldr	r0, [fp, #-28]
48011358:	e1a01003 	mov	r1, r3
4801135c:	ebfff9b7 	bl	4800fa40 <fdt_set_size_dt_struct>
48011360:	e51b3010 	ldr	r3, [fp, #-16]
48011364:	e51b201c 	ldr	r2, [fp, #-28]
48011368:	e0821003 	add	r1, r2, r3
4801136c:	e51b3018 	ldr	r3, [fp, #-24]
48011370:	e593300c 	ldr	r3, [r3, #12]
48011374:	e1a02c03 	lsl	r2, r3, #24
48011378:	e51b3018 	ldr	r3, [fp, #-24]
4801137c:	e593300c 	ldr	r3, [r3, #12]
48011380:	e2033cff 	and	r3, r3, #65280	; 0xff00
48011384:	e1a03403 	lsl	r3, r3, #8
48011388:	e1822003 	orr	r2, r2, r3
4801138c:	e51b3018 	ldr	r3, [fp, #-24]
48011390:	e593300c 	ldr	r3, [r3, #12]
48011394:	e20338ff 	and	r3, r3, #16711680	; 0xff0000
48011398:	e1a03423 	lsr	r3, r3, #8
4801139c:	e1822003 	orr	r2, r2, r3
480113a0:	e51b3018 	ldr	r3, [fp, #-24]
480113a4:	e593300c 	ldr	r3, [r3, #12]
480113a8:	e1a03c23 	lsr	r3, r3, #24
480113ac:	e1823003 	orr	r3, r2, r3
480113b0:	e51b2018 	ldr	r2, [fp, #-24]
480113b4:	e0822003 	add	r2, r2, r3
480113b8:	e51b3018 	ldr	r3, [fp, #-24]
480113bc:	e5933020 	ldr	r3, [r3, #32]
480113c0:	e1a00c03 	lsl	r0, r3, #24
480113c4:	e51b3018 	ldr	r3, [fp, #-24]
480113c8:	e5933020 	ldr	r3, [r3, #32]
480113cc:	e2033cff 	and	r3, r3, #65280	; 0xff00
480113d0:	e1a03403 	lsl	r3, r3, #8
480113d4:	e1800003 	orr	r0, r0, r3
480113d8:	e51b3018 	ldr	r3, [fp, #-24]
480113dc:	e5933020 	ldr	r3, [r3, #32]
480113e0:	e20338ff 	and	r3, r3, #16711680	; 0xff0000
480113e4:	e1a03423 	lsr	r3, r3, #8
480113e8:	e1800003 	orr	r0, r0, r3
480113ec:	e51b3018 	ldr	r3, [fp, #-24]
480113f0:	e5933020 	ldr	r3, [r3, #32]
480113f4:	e1a03c23 	lsr	r3, r3, #24
480113f8:	e1803003 	orr	r3, r0, r3
480113fc:	e1a00001 	mov	r0, r1
48011400:	e1a01002 	mov	r1, r2
48011404:	e1a02003 	mov	r2, r3
48011408:	ebffe538 	bl	4800a8f0 <arm_memmove>
4801140c:	e51b3010 	ldr	r3, [fp, #-16]
48011410:	e51b001c 	ldr	r0, [fp, #-28]
48011414:	e1a01003 	mov	r1, r3
48011418:	ebfff8f2 	bl	4800f7e8 <fdt_set_off_dt_strings>
4801141c:	e51b3018 	ldr	r3, [fp, #-24]
48011420:	e5933020 	ldr	r3, [r3, #32]
48011424:	e1a02c03 	lsl	r2, r3, #24
48011428:	e51b3018 	ldr	r3, [fp, #-24]
4801142c:	e5933020 	ldr	r3, [r3, #32]
48011430:	e2033cff 	and	r3, r3, #65280	; 0xff00
48011434:	e1a03403 	lsl	r3, r3, #8
48011438:	e1822003 	orr	r2, r2, r3
4801143c:	e51b3018 	ldr	r3, [fp, #-24]
48011440:	e5933020 	ldr	r3, [r3, #32]
48011444:	e20338ff 	and	r3, r3, #16711680	; 0xff0000
48011448:	e1a03423 	lsr	r3, r3, #8
4801144c:	e1822003 	orr	r2, r2, r3
48011450:	e51b3018 	ldr	r3, [fp, #-24]
48011454:	e5933020 	ldr	r3, [r3, #32]
48011458:	e1a03c23 	lsr	r3, r3, #24
4801145c:	e1823003 	orr	r3, r2, r3
48011460:	e51b001c 	ldr	r0, [fp, #-28]
48011464:	e1a01003 	mov	r1, r3
48011468:	ebfff95b 	bl	4800f9dc <fdt_set_size_dt_strings>
4801146c:	e24bd004 	sub	sp, fp, #4
48011470:	e8bd8800 	pop	{fp, pc}

48011474 <fdt_open_into>:
48011474:	e92d4800 	push	{fp, lr}
48011478:	e28db004 	add	fp, sp, #4
4801147c:	e24dd030 	sub	sp, sp, #48	; 0x30
48011480:	e50b0028 	str	r0, [fp, #-40]	; 0x28
48011484:	e50b102c 	str	r1, [fp, #-44]	; 0x2c
48011488:	e50b2030 	str	r2, [fp, #-48]	; 0x30
4801148c:	e51b3028 	ldr	r3, [fp, #-40]	; 0x28
48011490:	e50b300c 	str	r3, [fp, #-12]
48011494:	e51b3028 	ldr	r3, [fp, #-40]	; 0x28
48011498:	e5933004 	ldr	r3, [r3, #4]
4801149c:	e1a02c03 	lsl	r2, r3, #24
480114a0:	e51b3028 	ldr	r3, [fp, #-40]	; 0x28
480114a4:	e5933004 	ldr	r3, [r3, #4]
480114a8:	e2033cff 	and	r3, r3, #65280	; 0xff00
480114ac:	e1a03403 	lsl	r3, r3, #8
480114b0:	e1822003 	orr	r2, r2, r3
480114b4:	e51b3028 	ldr	r3, [fp, #-40]	; 0x28
480114b8:	e5933004 	ldr	r3, [r3, #4]
480114bc:	e20338ff 	and	r3, r3, #16711680	; 0xff0000
480114c0:	e1a03423 	lsr	r3, r3, #8
480114c4:	e1822003 	orr	r2, r2, r3
480114c8:	e51b3028 	ldr	r3, [fp, #-40]	; 0x28
480114cc:	e5933004 	ldr	r3, [r3, #4]
480114d0:	e1a03c23 	lsr	r3, r3, #24
480114d4:	e1823003 	orr	r3, r2, r3
480114d8:	e51b200c 	ldr	r2, [fp, #-12]
480114dc:	e0823003 	add	r3, r2, r3
480114e0:	e50b3010 	str	r3, [fp, #-16]
480114e4:	e51b0028 	ldr	r0, [fp, #-40]	; 0x28
480114e8:	ebffef6a 	bl	4800d298 <fdt_check_header>
480114ec:	e50b0014 	str	r0, [fp, #-20]
480114f0:	e51b3014 	ldr	r3, [fp, #-20]
480114f4:	e3530000 	cmp	r3, #0
480114f8:	0a000001 	beq	48011504 <fdt_open_into+0x90>
480114fc:	e51b3014 	ldr	r3, [fp, #-20]
48011500:	ea0000bd 	b	480117fc <fdt_open_into+0x388>
48011504:	e51b0028 	ldr	r0, [fp, #-40]	; 0x28
48011508:	ebfff374 	bl	4800e2e0 <fdt_num_mem_rsv>
4801150c:	e1a03000 	mov	r3, r0
48011510:	e2833001 	add	r3, r3, #1
48011514:	e1a03203 	lsl	r3, r3, #4
48011518:	e50b3018 	str	r3, [fp, #-24]
4801151c:	e51b3028 	ldr	r3, [fp, #-40]	; 0x28
48011520:	e5933014 	ldr	r3, [r3, #20]
48011524:	e1a02c03 	lsl	r2, r3, #24
48011528:	e51b3028 	ldr	r3, [fp, #-40]	; 0x28
4801152c:	e5933014 	ldr	r3, [r3, #20]
48011530:	e2033cff 	and	r3, r3, #65280	; 0xff00
48011534:	e1a03403 	lsl	r3, r3, #8
48011538:	e1822003 	orr	r2, r2, r3
4801153c:	e51b3028 	ldr	r3, [fp, #-40]	; 0x28
48011540:	e5933014 	ldr	r3, [r3, #20]
48011544:	e20338ff 	and	r3, r3, #16711680	; 0xff0000
48011548:	e1a03423 	lsr	r3, r3, #8
4801154c:	e1822003 	orr	r2, r2, r3
48011550:	e51b3028 	ldr	r3, [fp, #-40]	; 0x28
48011554:	e5933014 	ldr	r3, [r3, #20]
48011558:	e1a03c23 	lsr	r3, r3, #24
4801155c:	e1823003 	orr	r3, r2, r3
48011560:	e3530010 	cmp	r3, #16
48011564:	9a000012 	bls	480115b4 <fdt_open_into+0x140>
48011568:	e51b3028 	ldr	r3, [fp, #-40]	; 0x28
4801156c:	e5933024 	ldr	r3, [r3, #36]	; 0x24
48011570:	e1a02c03 	lsl	r2, r3, #24
48011574:	e51b3028 	ldr	r3, [fp, #-40]	; 0x28
48011578:	e5933024 	ldr	r3, [r3, #36]	; 0x24
4801157c:	e2033cff 	and	r3, r3, #65280	; 0xff00
48011580:	e1a03403 	lsl	r3, r3, #8
48011584:	e1822003 	orr	r2, r2, r3
48011588:	e51b3028 	ldr	r3, [fp, #-40]	; 0x28
4801158c:	e5933024 	ldr	r3, [r3, #36]	; 0x24
48011590:	e20338ff 	and	r3, r3, #16711680	; 0xff0000
48011594:	e1a03423 	lsr	r3, r3, #8
48011598:	e1822003 	orr	r2, r2, r3
4801159c:	e51b3028 	ldr	r3, [fp, #-40]	; 0x28
480115a0:	e5933024 	ldr	r3, [r3, #36]	; 0x24
480115a4:	e1a03c23 	lsr	r3, r3, #24
480115a8:	e1823003 	orr	r3, r2, r3
480115ac:	e50b3024 	str	r3, [fp, #-36]	; 0x24
480115b0:	ea000010 	b	480115f8 <fdt_open_into+0x184>
480115b4:	e3a03000 	mov	r3, #0
480115b8:	e50b3024 	str	r3, [fp, #-36]	; 0x24
480115bc:	e1a00000 	nop			; (mov r0, r0)
480115c0:	e51b2024 	ldr	r2, [fp, #-36]	; 0x24
480115c4:	e24b3024 	sub	r3, fp, #36	; 0x24
480115c8:	e51b0028 	ldr	r0, [fp, #-40]	; 0x28
480115cc:	e1a01002 	mov	r1, r2
480115d0:	e1a02003 	mov	r2, r3
480115d4:	ebfff000 	bl	4800d5dc <fdt_next_tag>
480115d8:	e1a03000 	mov	r3, r0
480115dc:	e3530009 	cmp	r3, #9
480115e0:	1afffff6 	bne	480115c0 <fdt_open_into+0x14c>
480115e4:	e51b3024 	ldr	r3, [fp, #-36]	; 0x24
480115e8:	e3530000 	cmp	r3, #0
480115ec:	aa000001 	bge	480115f8 <fdt_open_into+0x184>
480115f0:	e51b3024 	ldr	r3, [fp, #-36]	; 0x24
480115f4:	ea000080 	b	480117fc <fdt_open_into+0x388>
480115f8:	e51b3024 	ldr	r3, [fp, #-36]	; 0x24
480115fc:	e51b0028 	ldr	r0, [fp, #-40]	; 0x28
48011600:	e51b1018 	ldr	r1, [fp, #-24]
48011604:	e1a02003 	mov	r2, r3
48011608:	ebfff98c 	bl	4800fc40 <_fdt_blocks_misordered>
4801160c:	e1a03000 	mov	r3, r0
48011610:	e3530000 	cmp	r3, #0
48011614:	1a000016 	bne	48011674 <fdt_open_into+0x200>
48011618:	e51b0028 	ldr	r0, [fp, #-40]	; 0x28
4801161c:	e51b102c 	ldr	r1, [fp, #-44]	; 0x2c
48011620:	e51b2030 	ldr	r2, [fp, #-48]	; 0x30
48011624:	ebfff12b 	bl	4800dad8 <fdt_move>
48011628:	e50b001c 	str	r0, [fp, #-28]
4801162c:	e51b301c 	ldr	r3, [fp, #-28]
48011630:	e3530000 	cmp	r3, #0
48011634:	0a000001 	beq	48011640 <fdt_open_into+0x1cc>
48011638:	e51b301c 	ldr	r3, [fp, #-28]
4801163c:	ea00006e 	b	480117fc <fdt_open_into+0x388>
48011640:	e51b002c 	ldr	r0, [fp, #-44]	; 0x2c
48011644:	e3a01011 	mov	r1, #17
48011648:	ebfff898 	bl	4800f8b0 <fdt_set_version>
4801164c:	e51b3024 	ldr	r3, [fp, #-36]	; 0x24
48011650:	e51b002c 	ldr	r0, [fp, #-44]	; 0x2c
48011654:	e1a01003 	mov	r1, r3
48011658:	ebfff8f8 	bl	4800fa40 <fdt_set_size_dt_struct>
4801165c:	e51b3030 	ldr	r3, [fp, #-48]	; 0x30
48011660:	e51b002c 	ldr	r0, [fp, #-44]	; 0x2c
48011664:	e1a01003 	mov	r1, r3
48011668:	ebfff82c 	bl	4800f720 <fdt_set_totalsize>
4801166c:	e3a03000 	mov	r3, #0
48011670:	ea000061 	b	480117fc <fdt_open_into+0x388>
48011674:	e51b2018 	ldr	r2, [fp, #-24]
48011678:	e51b3024 	ldr	r3, [fp, #-36]	; 0x24
4801167c:	e0822003 	add	r2, r2, r3
48011680:	e51b3028 	ldr	r3, [fp, #-40]	; 0x28
48011684:	e5933020 	ldr	r3, [r3, #32]
48011688:	e1a01c03 	lsl	r1, r3, #24
4801168c:	e51b3028 	ldr	r3, [fp, #-40]	; 0x28
48011690:	e5933020 	ldr	r3, [r3, #32]
48011694:	e2033cff 	and	r3, r3, #65280	; 0xff00
48011698:	e1a03403 	lsl	r3, r3, #8
4801169c:	e1811003 	orr	r1, r1, r3
480116a0:	e51b3028 	ldr	r3, [fp, #-40]	; 0x28
480116a4:	e5933020 	ldr	r3, [r3, #32]
480116a8:	e20338ff 	and	r3, r3, #16711680	; 0xff0000
480116ac:	e1a03423 	lsr	r3, r3, #8
480116b0:	e1811003 	orr	r1, r1, r3
480116b4:	e51b3028 	ldr	r3, [fp, #-40]	; 0x28
480116b8:	e5933020 	ldr	r3, [r3, #32]
480116bc:	e1a03c23 	lsr	r3, r3, #24
480116c0:	e1813003 	orr	r3, r1, r3
480116c4:	e0823003 	add	r3, r2, r3
480116c8:	e2833028 	add	r3, r3, #40	; 0x28
480116cc:	e50b3020 	str	r3, [fp, #-32]
480116d0:	e51b2030 	ldr	r2, [fp, #-48]	; 0x30
480116d4:	e51b3020 	ldr	r3, [fp, #-32]
480116d8:	e1520003 	cmp	r2, r3
480116dc:	aa000001 	bge	480116e8 <fdt_open_into+0x274>
480116e0:	e3e03002 	mvn	r3, #2
480116e4:	ea000044 	b	480117fc <fdt_open_into+0x388>
480116e8:	e51b302c 	ldr	r3, [fp, #-44]	; 0x2c
480116ec:	e50b3008 	str	r3, [fp, #-8]
480116f0:	e51b3020 	ldr	r3, [fp, #-32]
480116f4:	e51b2008 	ldr	r2, [fp, #-8]
480116f8:	e0822003 	add	r2, r2, r3
480116fc:	e51b300c 	ldr	r3, [fp, #-12]
48011700:	e1520003 	cmp	r2, r3
48011704:	9a00000f 	bls	48011748 <fdt_open_into+0x2d4>
48011708:	e51b2008 	ldr	r2, [fp, #-8]
4801170c:	e51b3010 	ldr	r3, [fp, #-16]
48011710:	e1520003 	cmp	r2, r3
48011714:	2a00000b 	bcs	48011748 <fdt_open_into+0x2d4>
48011718:	e51b3010 	ldr	r3, [fp, #-16]
4801171c:	e50b3008 	str	r3, [fp, #-8]
48011720:	e51b3020 	ldr	r3, [fp, #-32]
48011724:	e51b2008 	ldr	r2, [fp, #-8]
48011728:	e0822003 	add	r2, r2, r3
4801172c:	e51b3030 	ldr	r3, [fp, #-48]	; 0x30
48011730:	e51b102c 	ldr	r1, [fp, #-44]	; 0x2c
48011734:	e0813003 	add	r3, r1, r3
48011738:	e1520003 	cmp	r2, r3
4801173c:	9a000001 	bls	48011748 <fdt_open_into+0x2d4>
48011740:	e3e03002 	mvn	r3, #2
48011744:	ea00002c 	b	480117fc <fdt_open_into+0x388>
48011748:	e51b3024 	ldr	r3, [fp, #-36]	; 0x24
4801174c:	e51b0028 	ldr	r0, [fp, #-40]	; 0x28
48011750:	e51b1008 	ldr	r1, [fp, #-8]
48011754:	e51b2018 	ldr	r2, [fp, #-24]
48011758:	ebfffead 	bl	48011214 <_fdt_packblocks>
4801175c:	e51b3020 	ldr	r3, [fp, #-32]
48011760:	e51b002c 	ldr	r0, [fp, #-44]	; 0x2c
48011764:	e51b1008 	ldr	r1, [fp, #-8]
48011768:	e1a02003 	mov	r2, r3
4801176c:	ebffe45f 	bl	4800a8f0 <arm_memmove>
48011770:	e51b002c 	ldr	r0, [fp, #-44]	; 0x2c
48011774:	e30f1eed 	movw	r1, #65261	; 0xfeed
48011778:	e34d100d 	movt	r1, #53261	; 0xd00d
4801177c:	ebfff7ce 	bl	4800f6bc <fdt_set_magic>
48011780:	e51b3030 	ldr	r3, [fp, #-48]	; 0x30
48011784:	e51b002c 	ldr	r0, [fp, #-44]	; 0x2c
48011788:	e1a01003 	mov	r1, r3
4801178c:	ebfff7e3 	bl	4800f720 <fdt_set_totalsize>
48011790:	e51b002c 	ldr	r0, [fp, #-44]	; 0x2c
48011794:	e3a01011 	mov	r1, #17
48011798:	ebfff844 	bl	4800f8b0 <fdt_set_version>
4801179c:	e51b002c 	ldr	r0, [fp, #-44]	; 0x2c
480117a0:	e3a01010 	mov	r1, #16
480117a4:	ebfff85a 	bl	4800f914 <fdt_set_last_comp_version>
480117a8:	e51b3028 	ldr	r3, [fp, #-40]	; 0x28
480117ac:	e593301c 	ldr	r3, [r3, #28]
480117b0:	e1a02c03 	lsl	r2, r3, #24
480117b4:	e51b3028 	ldr	r3, [fp, #-40]	; 0x28
480117b8:	e593301c 	ldr	r3, [r3, #28]
480117bc:	e2033cff 	and	r3, r3, #65280	; 0xff00
480117c0:	e1a03403 	lsl	r3, r3, #8
480117c4:	e1822003 	orr	r2, r2, r3
480117c8:	e51b3028 	ldr	r3, [fp, #-40]	; 0x28
480117cc:	e593301c 	ldr	r3, [r3, #28]
480117d0:	e20338ff 	and	r3, r3, #16711680	; 0xff0000
480117d4:	e1a03423 	lsr	r3, r3, #8
480117d8:	e1822003 	orr	r2, r2, r3
480117dc:	e51b3028 	ldr	r3, [fp, #-40]	; 0x28
480117e0:	e593301c 	ldr	r3, [r3, #28]
480117e4:	e1a03c23 	lsr	r3, r3, #24
480117e8:	e1823003 	orr	r3, r2, r3
480117ec:	e51b002c 	ldr	r0, [fp, #-44]	; 0x2c
480117f0:	e1a01003 	mov	r1, r3
480117f4:	ebfff85f 	bl	4800f978 <fdt_set_boot_cpuid_phys>
480117f8:	e3a03000 	mov	r3, #0
480117fc:	e1a00003 	mov	r0, r3
48011800:	e24bd004 	sub	sp, fp, #4
48011804:	e8bd8800 	pop	{fp, pc}

48011808 <fdt_pack>:
48011808:	e92d4800 	push	{fp, lr}
4801180c:	e28db004 	add	fp, sp, #4
48011810:	e24dd010 	sub	sp, sp, #16
48011814:	e50b0010 	str	r0, [fp, #-16]
48011818:	e51b0010 	ldr	r0, [fp, #-16]
4801181c:	ebfff9a9 	bl	4800fec8 <_fdt_rw_check_header>
48011820:	e50b0008 	str	r0, [fp, #-8]
48011824:	e51b3008 	ldr	r3, [fp, #-8]
48011828:	e3530000 	cmp	r3, #0
4801182c:	0a000001 	beq	48011838 <fdt_pack+0x30>
48011830:	e51b3008 	ldr	r3, [fp, #-8]
48011834:	ea000021 	b	480118c0 <fdt_pack+0xb8>
48011838:	e51b0010 	ldr	r0, [fp, #-16]
4801183c:	ebfff2a7 	bl	4800e2e0 <fdt_num_mem_rsv>
48011840:	e1a03000 	mov	r3, r0
48011844:	e2833001 	add	r3, r3, #1
48011848:	e1a03203 	lsl	r3, r3, #4
4801184c:	e50b300c 	str	r3, [fp, #-12]
48011850:	e51b3010 	ldr	r3, [fp, #-16]
48011854:	e5933024 	ldr	r3, [r3, #36]	; 0x24
48011858:	e1a02c03 	lsl	r2, r3, #24
4801185c:	e51b3010 	ldr	r3, [fp, #-16]
48011860:	e5933024 	ldr	r3, [r3, #36]	; 0x24
48011864:	e2033cff 	and	r3, r3, #65280	; 0xff00
48011868:	e1a03403 	lsl	r3, r3, #8
4801186c:	e1822003 	orr	r2, r2, r3
48011870:	e51b3010 	ldr	r3, [fp, #-16]
48011874:	e5933024 	ldr	r3, [r3, #36]	; 0x24
48011878:	e20338ff 	and	r3, r3, #16711680	; 0xff0000
4801187c:	e1a03423 	lsr	r3, r3, #8
48011880:	e1822003 	orr	r2, r2, r3
48011884:	e51b3010 	ldr	r3, [fp, #-16]
48011888:	e5933024 	ldr	r3, [r3, #36]	; 0x24
4801188c:	e1a03c23 	lsr	r3, r3, #24
48011890:	e1823003 	orr	r3, r2, r3
48011894:	e51b0010 	ldr	r0, [fp, #-16]
48011898:	e51b1010 	ldr	r1, [fp, #-16]
4801189c:	e51b200c 	ldr	r2, [fp, #-12]
480118a0:	ebfffe5b 	bl	48011214 <_fdt_packblocks>
480118a4:	e51b0010 	ldr	r0, [fp, #-16]
480118a8:	ebfff9db 	bl	4801001c <_fdt_data_size>
480118ac:	e1a03000 	mov	r3, r0
480118b0:	e51b0010 	ldr	r0, [fp, #-16]
480118b4:	e1a01003 	mov	r1, r3
480118b8:	ebfff798 	bl	4800f720 <fdt_set_totalsize>
480118bc:	e3a03000 	mov	r3, #0
480118c0:	e1a00003 	mov	r0, r3
480118c4:	e24bd004 	sub	sp, fp, #4
480118c8:	e8bd8800 	pop	{fp, pc}

480118cc <fdt_strerror>:
480118cc:	e52db004 	push	{fp}		; (str fp, [sp, #-4]!)
480118d0:	e28db000 	add	fp, sp, #0
480118d4:	e24dd014 	sub	sp, sp, #20
480118d8:	e50b0010 	str	r0, [fp, #-16]
480118dc:	e51b3010 	ldr	r3, [fp, #-16]
480118e0:	e3530000 	cmp	r3, #0
480118e4:	da000002 	ble	480118f4 <fdt_strerror+0x28>
480118e8:	e30638e4 	movw	r3, #26852	; 0x68e4
480118ec:	e3443801 	movt	r3, #18433	; 0x4801
480118f0:	ea000015 	b	4801194c <fdt_strerror+0x80>
480118f4:	e51b3010 	ldr	r3, [fp, #-16]
480118f8:	e3530000 	cmp	r3, #0
480118fc:	1a000002 	bne	4801190c <fdt_strerror+0x40>
48011900:	e30638fc 	movw	r3, #26876	; 0x68fc
48011904:	e3443801 	movt	r3, #18433	; 0x4801
48011908:	ea00000f 	b	4801194c <fdt_strerror+0x80>
4801190c:	e51b3010 	ldr	r3, [fp, #-16]
48011910:	e373000d 	cmn	r3, #13
48011914:	9a00000a 	bls	48011944 <fdt_strerror+0x78>
48011918:	e51b3010 	ldr	r3, [fp, #-16]
4801191c:	e2632000 	rsb	r2, r3, #0
48011920:	e30530f4 	movw	r3, #20724	; 0x50f4
48011924:	e3443801 	movt	r3, #18433	; 0x4801
48011928:	e7933102 	ldr	r3, [r3, r2, lsl #2]
4801192c:	e50b3008 	str	r3, [fp, #-8]
48011930:	e51b3008 	ldr	r3, [fp, #-8]
48011934:	e3530000 	cmp	r3, #0
48011938:	0a000001 	beq	48011944 <fdt_strerror+0x78>
4801193c:	e51b3008 	ldr	r3, [fp, #-8]
48011940:	ea000001 	b	4801194c <fdt_strerror+0x80>
48011944:	e3063908 	movw	r3, #26888	; 0x6908
48011948:	e3443801 	movt	r3, #18433	; 0x4801
4801194c:	e1a00003 	mov	r0, r3
48011950:	e24bd000 	sub	sp, fp, #0
48011954:	e49db004 	pop	{fp}		; (ldr fp, [sp], #4)
48011958:	e12fff1e 	bx	lr

4801195c <fdt_set_totalsize>:
4801195c:	e52db004 	push	{fp}		; (str fp, [sp, #-4]!)
48011960:	e28db000 	add	fp, sp, #0
48011964:	e24dd014 	sub	sp, sp, #20
48011968:	e50b0010 	str	r0, [fp, #-16]
4801196c:	e50b1014 	str	r1, [fp, #-20]
48011970:	e51b3010 	ldr	r3, [fp, #-16]
48011974:	e50b3008 	str	r3, [fp, #-8]
48011978:	e51b3014 	ldr	r3, [fp, #-20]
4801197c:	e1a02c03 	lsl	r2, r3, #24
48011980:	e51b3014 	ldr	r3, [fp, #-20]
48011984:	e2033cff 	and	r3, r3, #65280	; 0xff00
48011988:	e1a03403 	lsl	r3, r3, #8
4801198c:	e1822003 	orr	r2, r2, r3
48011990:	e51b3014 	ldr	r3, [fp, #-20]
48011994:	e20338ff 	and	r3, r3, #16711680	; 0xff0000
48011998:	e1a03423 	lsr	r3, r3, #8
4801199c:	e1822003 	orr	r2, r2, r3
480119a0:	e51b3014 	ldr	r3, [fp, #-20]
480119a4:	e1a03c23 	lsr	r3, r3, #24
480119a8:	e1822003 	orr	r2, r2, r3
480119ac:	e51b3008 	ldr	r3, [fp, #-8]
480119b0:	e5832004 	str	r2, [r3, #4]
480119b4:	e24bd000 	sub	sp, fp, #0
480119b8:	e49db004 	pop	{fp}		; (ldr fp, [sp], #4)
480119bc:	e12fff1e 	bx	lr

480119c0 <fdt_setprop_cell>:
480119c0:	e92d4800 	push	{fp, lr}
480119c4:	e28db004 	add	fp, sp, #4
480119c8:	e24dd018 	sub	sp, sp, #24
480119cc:	e50b0008 	str	r0, [fp, #-8]
480119d0:	e50b100c 	str	r1, [fp, #-12]
480119d4:	e50b2010 	str	r2, [fp, #-16]
480119d8:	e50b3014 	str	r3, [fp, #-20]
480119dc:	e51b3014 	ldr	r3, [fp, #-20]
480119e0:	e1a02c03 	lsl	r2, r3, #24
480119e4:	e51b3014 	ldr	r3, [fp, #-20]
480119e8:	e2033cff 	and	r3, r3, #65280	; 0xff00
480119ec:	e1a03403 	lsl	r3, r3, #8
480119f0:	e1822003 	orr	r2, r2, r3
480119f4:	e51b3014 	ldr	r3, [fp, #-20]
480119f8:	e20338ff 	and	r3, r3, #16711680	; 0xff0000
480119fc:	e1a03423 	lsr	r3, r3, #8
48011a00:	e1822003 	orr	r2, r2, r3
48011a04:	e51b3014 	ldr	r3, [fp, #-20]
48011a08:	e1a03c23 	lsr	r3, r3, #24
48011a0c:	e1823003 	orr	r3, r2, r3
48011a10:	e50b3014 	str	r3, [fp, #-20]
48011a14:	e24b3014 	sub	r3, fp, #20
48011a18:	e3a02004 	mov	r2, #4
48011a1c:	e58d2000 	str	r2, [sp]
48011a20:	e51b0008 	ldr	r0, [fp, #-8]
48011a24:	e51b100c 	ldr	r1, [fp, #-12]
48011a28:	e51b2010 	ldr	r2, [fp, #-16]
48011a2c:	ebfffd03 	bl	48010e40 <fdt_setprop>
48011a30:	e1a03000 	mov	r3, r0
48011a34:	e1a00003 	mov	r0, r3
48011a38:	e24bd004 	sub	sp, fp, #4
48011a3c:	e8bd8800 	pop	{fp, pc}

48011a40 <fdt_getprop_u32_default>:
48011a40:	e92d4800 	push	{fp, lr}
48011a44:	e28db004 	add	fp, sp, #4
48011a48:	e24dd018 	sub	sp, sp, #24
48011a4c:	e50b0010 	str	r0, [fp, #-16]
48011a50:	e50b1014 	str	r1, [fp, #-20]
48011a54:	e50b2018 	str	r2, [fp, #-24]
48011a58:	e50b301c 	str	r3, [fp, #-28]
48011a5c:	e51b0010 	ldr	r0, [fp, #-16]
48011a60:	e51b1014 	ldr	r1, [fp, #-20]
48011a64:	ebfff30c 	bl	4800e69c <fdt_path_offset>
48011a68:	e50b0008 	str	r0, [fp, #-8]
48011a6c:	e51b3008 	ldr	r3, [fp, #-8]
48011a70:	e3530000 	cmp	r3, #0
48011a74:	aa000001 	bge	48011a80 <fdt_getprop_u32_default+0x40>
48011a78:	e51b301c 	ldr	r3, [fp, #-28]
48011a7c:	ea00001b 	b	48011af0 <fdt_getprop_u32_default+0xb0>
48011a80:	e51b0010 	ldr	r0, [fp, #-16]
48011a84:	e51b1008 	ldr	r1, [fp, #-8]
48011a88:	e51b2018 	ldr	r2, [fp, #-24]
48011a8c:	e3a03000 	mov	r3, #0
48011a90:	ebfff495 	bl	4800ecec <fdt_getprop>
48011a94:	e50b000c 	str	r0, [fp, #-12]
48011a98:	e51b300c 	ldr	r3, [fp, #-12]
48011a9c:	e3530000 	cmp	r3, #0
48011aa0:	0a000011 	beq	48011aec <fdt_getprop_u32_default+0xac>
48011aa4:	e51b300c 	ldr	r3, [fp, #-12]
48011aa8:	e5933000 	ldr	r3, [r3]
48011aac:	e1a02c03 	lsl	r2, r3, #24
48011ab0:	e51b300c 	ldr	r3, [fp, #-12]
48011ab4:	e5933000 	ldr	r3, [r3]
48011ab8:	e2033cff 	and	r3, r3, #65280	; 0xff00
48011abc:	e1a03403 	lsl	r3, r3, #8
48011ac0:	e1822003 	orr	r2, r2, r3
48011ac4:	e51b300c 	ldr	r3, [fp, #-12]
48011ac8:	e5933000 	ldr	r3, [r3]
48011acc:	e20338ff 	and	r3, r3, #16711680	; 0xff0000
48011ad0:	e1a03423 	lsr	r3, r3, #8
48011ad4:	e1822003 	orr	r2, r2, r3
48011ad8:	e51b300c 	ldr	r3, [fp, #-12]
48011adc:	e5933000 	ldr	r3, [r3]
48011ae0:	e1a03c23 	lsr	r3, r3, #24
48011ae4:	e1823003 	orr	r3, r2, r3
48011ae8:	ea000000 	b	48011af0 <fdt_getprop_u32_default+0xb0>
48011aec:	e51b301c 	ldr	r3, [fp, #-28]
48011af0:	e1a00003 	mov	r0, r3
48011af4:	e24bd004 	sub	sp, fp, #4
48011af8:	e8bd8800 	pop	{fp, pc}

48011afc <fdt_find_and_setprop>:
48011afc:	e92d4800 	push	{fp, lr}
48011b00:	e28db004 	add	fp, sp, #4
48011b04:	e24dd020 	sub	sp, sp, #32
48011b08:	e50b0010 	str	r0, [fp, #-16]
48011b0c:	e50b1014 	str	r1, [fp, #-20]
48011b10:	e50b2018 	str	r2, [fp, #-24]
48011b14:	e50b301c 	str	r3, [fp, #-28]
48011b18:	e51b0010 	ldr	r0, [fp, #-16]
48011b1c:	e51b1014 	ldr	r1, [fp, #-20]
48011b20:	ebfff2dd 	bl	4800e69c <fdt_path_offset>
48011b24:	e50b0008 	str	r0, [fp, #-8]
48011b28:	e51b3008 	ldr	r3, [fp, #-8]
48011b2c:	e3530000 	cmp	r3, #0
48011b30:	aa000001 	bge	48011b3c <fdt_find_and_setprop+0x40>
48011b34:	e51b3008 	ldr	r3, [fp, #-8]
48011b38:	ea000014 	b	48011b90 <fdt_find_and_setprop+0x94>
48011b3c:	e59b3008 	ldr	r3, [fp, #8]
48011b40:	e3530000 	cmp	r3, #0
48011b44:	1a000009 	bne	48011b70 <fdt_find_and_setprop+0x74>
48011b48:	e51b0010 	ldr	r0, [fp, #-16]
48011b4c:	e51b1008 	ldr	r1, [fp, #-8]
48011b50:	e51b2018 	ldr	r2, [fp, #-24]
48011b54:	e3a03000 	mov	r3, #0
48011b58:	ebfff406 	bl	4800eb78 <fdt_get_property>
48011b5c:	e1a03000 	mov	r3, r0
48011b60:	e3530000 	cmp	r3, #0
48011b64:	1a000001 	bne	48011b70 <fdt_find_and_setprop+0x74>
48011b68:	e3a03000 	mov	r3, #0
48011b6c:	ea000007 	b	48011b90 <fdt_find_and_setprop+0x94>
48011b70:	e59b3004 	ldr	r3, [fp, #4]
48011b74:	e58d3000 	str	r3, [sp]
48011b78:	e51b0010 	ldr	r0, [fp, #-16]
48011b7c:	e51b1008 	ldr	r1, [fp, #-8]
48011b80:	e51b2018 	ldr	r2, [fp, #-24]
48011b84:	e51b301c 	ldr	r3, [fp, #-28]
48011b88:	ebfffcac 	bl	48010e40 <fdt_setprop>
48011b8c:	e1a03000 	mov	r3, r0
48011b90:	e1a00003 	mov	r0, r3
48011b94:	e24bd004 	sub	sp, fp, #4
48011b98:	e8bd8800 	pop	{fp, pc}

48011b9c <fdt_initrd>:
48011b9c:	e92d4bf0 	push	{r4, r5, r6, r7, r8, r9, fp, lr}
48011ba0:	e28db01c 	add	fp, sp, #28
48011ba4:	e24dd090 	sub	sp, sp, #144	; 0x90
48011ba8:	e50b0050 	str	r0, [fp, #-80]	; 0x50
48011bac:	e50b1054 	str	r1, [fp, #-84]	; 0x54
48011bb0:	e50b2058 	str	r2, [fp, #-88]	; 0x58
48011bb4:	e50b305c 	str	r3, [fp, #-92]	; 0x5c
48011bb8:	e51b0050 	ldr	r0, [fp, #-80]	; 0x50
48011bbc:	e3061918 	movw	r1, #26904	; 0x6918
48011bc0:	e3441801 	movt	r1, #18433	; 0x4801
48011bc4:	ebfff2b4 	bl	4800e69c <fdt_path_offset>
48011bc8:	e50b0024 	str	r0, [fp, #-36]	; 0x24
48011bcc:	e51b3024 	ldr	r3, [fp, #-36]	; 0x24
48011bd0:	e3530000 	cmp	r3, #0
48011bd4:	aa000008 	bge	48011bfc <fdt_initrd+0x60>
48011bd8:	e51b0024 	ldr	r0, [fp, #-36]	; 0x24
48011bdc:	ebffff3a 	bl	480118cc <fdt_strerror>
48011be0:	e1a03000 	mov	r3, r0
48011be4:	e3060920 	movw	r0, #26912	; 0x6920
48011be8:	e3440801 	movt	r0, #18433	; 0x4801
48011bec:	e1a01003 	mov	r1, r3
48011bf0:	ebffe2f7 	bl	4800a7d4 <arm_printf>
48011bf4:	e51b3024 	ldr	r3, [fp, #-36]	; 0x24
48011bf8:	ea0000fb 	b	48011fec <fdt_initrd+0x450>
48011bfc:	e51b3054 	ldr	r3, [fp, #-84]	; 0x54
48011c00:	e3530000 	cmp	r3, #0
48011c04:	0a000002 	beq	48011c14 <fdt_initrd+0x78>
48011c08:	e51b3058 	ldr	r3, [fp, #-88]	; 0x58
48011c0c:	e3530000 	cmp	r3, #0
48011c10:	1a000001 	bne	48011c1c <fdt_initrd+0x80>
48011c14:	e3a03000 	mov	r3, #0
48011c18:	ea0000f3 	b	48011fec <fdt_initrd+0x450>
48011c1c:	e51b0050 	ldr	r0, [fp, #-80]	; 0x50
48011c20:	ebfff1ae 	bl	4800e2e0 <fdt_num_mem_rsv>
48011c24:	e50b0028 	str	r0, [fp, #-40]	; 0x28
48011c28:	e3a03000 	mov	r3, #0
48011c2c:	e50b3020 	str	r3, [fp, #-32]
48011c30:	ea000013 	b	48011c84 <fdt_initrd+0xe8>
48011c34:	e24b2044 	sub	r2, fp, #68	; 0x44
48011c38:	e24b304c 	sub	r3, fp, #76	; 0x4c
48011c3c:	e51b0050 	ldr	r0, [fp, #-80]	; 0x50
48011c40:	e51b1020 	ldr	r1, [fp, #-32]
48011c44:	ebfff097 	bl	4800dea8 <fdt_get_mem_rsv>
48011c48:	e50b002c 	str	r0, [fp, #-44]	; 0x2c
48011c4c:	e51b3054 	ldr	r3, [fp, #-84]	; 0x54
48011c50:	e1a00003 	mov	r0, r3
48011c54:	e3a01000 	mov	r1, #0
48011c58:	e14b24d4 	ldrd	r2, [fp, #-68]	; 0xffffffbc
48011c5c:	e1510003 	cmp	r1, r3
48011c60:	01500002 	cmpeq	r0, r2
48011c64:	1a000003 	bne	48011c78 <fdt_initrd+0xdc>
48011c68:	e51b0050 	ldr	r0, [fp, #-80]	; 0x50
48011c6c:	e51b1020 	ldr	r1, [fp, #-32]
48011c70:	ebfffb81 	bl	48010a7c <fdt_del_mem_rsv>
48011c74:	ea000006 	b	48011c94 <fdt_initrd+0xf8>
48011c78:	e51b3020 	ldr	r3, [fp, #-32]
48011c7c:	e2833001 	add	r3, r3, #1
48011c80:	e50b3020 	str	r3, [fp, #-32]
48011c84:	e51b2020 	ldr	r2, [fp, #-32]
48011c88:	e51b3028 	ldr	r3, [fp, #-40]	; 0x28
48011c8c:	e1520003 	cmp	r2, r3
48011c90:	baffffe7 	blt	48011c34 <fdt_initrd+0x98>
48011c94:	e51b0050 	ldr	r0, [fp, #-80]	; 0x50
48011c98:	e51b1024 	ldr	r1, [fp, #-36]	; 0x24
48011c9c:	e3062930 	movw	r2, #26928	; 0x6930
48011ca0:	e3442801 	movt	r2, #18433	; 0x4801
48011ca4:	e3a03000 	mov	r3, #0
48011ca8:	ebfff40f 	bl	4800ecec <fdt_getprop>
48011cac:	e50b0030 	str	r0, [fp, #-48]	; 0x30
48011cb0:	e51b3030 	ldr	r3, [fp, #-48]	; 0x30
48011cb4:	e3530000 	cmp	r3, #0
48011cb8:	0a000002 	beq	48011cc8 <fdt_initrd+0x12c>
48011cbc:	e51b305c 	ldr	r3, [fp, #-92]	; 0x5c
48011cc0:	e3530000 	cmp	r3, #0
48011cc4:	0a0000c7 	beq	48011fe8 <fdt_initrd+0x44c>
48011cc8:	e51b3054 	ldr	r3, [fp, #-84]	; 0x54
48011ccc:	e1a02003 	mov	r2, r3
48011cd0:	e3a03000 	mov	r3, #0
48011cd4:	e1a00c02 	lsl	r0, r2, #24
48011cd8:	e50b0060 	str	r0, [fp, #-96]	; 0x60
48011cdc:	e3a01000 	mov	r1, #0
48011ce0:	e50b1064 	str	r1, [fp, #-100]	; 0x64
48011ce4:	e51b3054 	ldr	r3, [fp, #-84]	; 0x54
48011ce8:	e1a00003 	mov	r0, r3
48011cec:	e3a01000 	mov	r1, #0
48011cf0:	e3a02cff 	mov	r2, #65280	; 0xff00
48011cf4:	e3a03000 	mov	r3, #0
48011cf8:	e0022000 	and	r2, r2, r0
48011cfc:	e0033001 	and	r3, r3, r1
48011d00:	e1a05402 	lsl	r5, r2, #8
48011d04:	e3a04000 	mov	r4, #0
48011d08:	e14b26d4 	ldrd	r2, [fp, #-100]	; 0xffffff9c
48011d0c:	e1844002 	orr	r4, r4, r2
48011d10:	e1855003 	orr	r5, r5, r3
48011d14:	e51b3054 	ldr	r3, [fp, #-84]	; 0x54
48011d18:	e1a00003 	mov	r0, r3
48011d1c:	e3a01000 	mov	r1, #0
48011d20:	e3a028ff 	mov	r2, #16711680	; 0xff0000
48011d24:	e3a03000 	mov	r3, #0
48011d28:	e0022000 	and	r2, r2, r0
48011d2c:	e0033001 	and	r3, r3, r1
48011d30:	e1a07c03 	lsl	r7, r3, #24
48011d34:	e1877422 	orr	r7, r7, r2, lsr #8
48011d38:	e1a06c02 	lsl	r6, r2, #24
48011d3c:	e1844006 	orr	r4, r4, r6
48011d40:	e1855007 	orr	r5, r5, r7
48011d44:	e51b3054 	ldr	r3, [fp, #-84]	; 0x54
48011d48:	e1a00003 	mov	r0, r3
48011d4c:	e3a01000 	mov	r1, #0
48011d50:	e3a024ff 	mov	r2, #-16777216	; 0xff000000
48011d54:	e3a03000 	mov	r3, #0
48011d58:	e0022000 	and	r2, r2, r0
48011d5c:	e0033001 	and	r3, r3, r1
48011d60:	e1a09403 	lsl	r9, r3, #8
48011d64:	e1899c22 	orr	r9, r9, r2, lsr #24
48011d68:	e1a08402 	lsl	r8, r2, #8
48011d6c:	e1844008 	orr	r4, r4, r8
48011d70:	e1855009 	orr	r5, r5, r9
48011d74:	e51b3054 	ldr	r3, [fp, #-84]	; 0x54
48011d78:	e1a00003 	mov	r0, r3
48011d7c:	e3a01000 	mov	r1, #0
48011d80:	e3a02000 	mov	r2, #0
48011d84:	e3a038ff 	mov	r3, #16711680	; 0xff0000
48011d88:	e0022000 	and	r2, r2, r0
48011d8c:	e0033001 	and	r3, r3, r1
48011d90:	e1a0c423 	lsr	ip, r3, #8
48011d94:	e50bc06c 	str	ip, [fp, #-108]	; 0x6c
48011d98:	e3a00000 	mov	r0, #0
48011d9c:	e50b0068 	str	r0, [fp, #-104]	; 0x68
48011da0:	e14b26dc 	ldrd	r2, [fp, #-108]	; 0xffffff94
48011da4:	e1844002 	orr	r4, r4, r2
48011da8:	e1855003 	orr	r5, r5, r3
48011dac:	e51b3054 	ldr	r3, [fp, #-84]	; 0x54
48011db0:	e1a00003 	mov	r0, r3
48011db4:	e3a01000 	mov	r1, #0
48011db8:	e3a02000 	mov	r2, #0
48011dbc:	e3a034ff 	mov	r3, #-16777216	; 0xff000000
48011dc0:	e0022000 	and	r2, r2, r0
48011dc4:	e0033001 	and	r3, r3, r1
48011dc8:	e1a0cc23 	lsr	ip, r3, #24
48011dcc:	e50bc074 	str	ip, [fp, #-116]	; 0x74
48011dd0:	e3a00000 	mov	r0, #0
48011dd4:	e50b0070 	str	r0, [fp, #-112]	; 0x70
48011dd8:	e14b27d4 	ldrd	r2, [fp, #-116]	; 0xffffff8c
48011ddc:	e1822004 	orr	r2, r2, r4
48011de0:	e1833005 	orr	r3, r3, r5
48011de4:	e14b23fc 	strd	r2, [fp, #-60]	; 0xffffffc4
48011de8:	e24bc03c 	sub	ip, fp, #60	; 0x3c
48011dec:	e3a03008 	mov	r3, #8
48011df0:	e58d3000 	str	r3, [sp]
48011df4:	e51b0050 	ldr	r0, [fp, #-80]	; 0x50
48011df8:	e51b1024 	ldr	r1, [fp, #-36]	; 0x24
48011dfc:	e3062930 	movw	r2, #26928	; 0x6930
48011e00:	e3442801 	movt	r2, #18433	; 0x4801
48011e04:	e1a0300c 	mov	r3, ip
48011e08:	ebfffc0c 	bl	48010e40 <fdt_setprop>
48011e0c:	e50b002c 	str	r0, [fp, #-44]	; 0x2c
48011e10:	e51b302c 	ldr	r3, [fp, #-44]	; 0x2c
48011e14:	e3530000 	cmp	r3, #0
48011e18:	aa000008 	bge	48011e40 <fdt_initrd+0x2a4>
48011e1c:	e51b002c 	ldr	r0, [fp, #-44]	; 0x2c
48011e20:	ebfffea9 	bl	480118cc <fdt_strerror>
48011e24:	e1a03000 	mov	r3, r0
48011e28:	e3060944 	movw	r0, #26948	; 0x6944
48011e2c:	e3440801 	movt	r0, #18433	; 0x4801
48011e30:	e1a01003 	mov	r1, r3
48011e34:	ebffe266 	bl	4800a7d4 <arm_printf>
48011e38:	e51b302c 	ldr	r3, [fp, #-44]	; 0x2c
48011e3c:	ea00006a 	b	48011fec <fdt_initrd+0x450>
48011e40:	e51b3058 	ldr	r3, [fp, #-88]	; 0x58
48011e44:	e1a02003 	mov	r2, r3
48011e48:	e3a03000 	mov	r3, #0
48011e4c:	e1a01c02 	lsl	r1, r2, #24
48011e50:	e50b1078 	str	r1, [fp, #-120]	; 0x78
48011e54:	e3a02000 	mov	r2, #0
48011e58:	e50b207c 	str	r2, [fp, #-124]	; 0x7c
48011e5c:	e51b3058 	ldr	r3, [fp, #-88]	; 0x58
48011e60:	e1a00003 	mov	r0, r3
48011e64:	e3a01000 	mov	r1, #0
48011e68:	e3a02cff 	mov	r2, #65280	; 0xff00
48011e6c:	e3a03000 	mov	r3, #0
48011e70:	e0022000 	and	r2, r2, r0
48011e74:	e0033001 	and	r3, r3, r1
48011e78:	e1a0c402 	lsl	ip, r2, #8
48011e7c:	e50bc080 	str	ip, [fp, #-128]	; 0x80
48011e80:	e3a00000 	mov	r0, #0
48011e84:	e50b0084 	str	r0, [fp, #-132]	; 0x84
48011e88:	e14b07dc 	ldrd	r0, [fp, #-124]	; 0xffffff84
48011e8c:	e14b28d4 	ldrd	r2, [fp, #-132]	; 0xffffff7c
48011e90:	e1800002 	orr	r0, r0, r2
48011e94:	e1811003 	orr	r1, r1, r3
48011e98:	e51b3058 	ldr	r3, [fp, #-88]	; 0x58
48011e9c:	e1a04003 	mov	r4, r3
48011ea0:	e3a05000 	mov	r5, #0
48011ea4:	e3a028ff 	mov	r2, #16711680	; 0xff0000
48011ea8:	e3a03000 	mov	r3, #0
48011eac:	e0022004 	and	r2, r2, r4
48011eb0:	e0033005 	and	r3, r3, r5
48011eb4:	e1a0cc03 	lsl	ip, r3, #24
48011eb8:	e50bc088 	str	ip, [fp, #-136]	; 0x88
48011ebc:	e51bc088 	ldr	ip, [fp, #-136]	; 0x88
48011ec0:	e18cc422 	orr	ip, ip, r2, lsr #8
48011ec4:	e50bc088 	str	ip, [fp, #-136]	; 0x88
48011ec8:	e1a0cc02 	lsl	ip, r2, #24
48011ecc:	e50bc08c 	str	ip, [fp, #-140]	; 0x8c
48011ed0:	e14b28dc 	ldrd	r2, [fp, #-140]	; 0xffffff74
48011ed4:	e1800002 	orr	r0, r0, r2
48011ed8:	e1811003 	orr	r1, r1, r3
48011edc:	e51b3058 	ldr	r3, [fp, #-88]	; 0x58
48011ee0:	e1a04003 	mov	r4, r3
48011ee4:	e3a05000 	mov	r5, #0
48011ee8:	e3a024ff 	mov	r2, #-16777216	; 0xff000000
48011eec:	e3a03000 	mov	r3, #0
48011ef0:	e0022004 	and	r2, r2, r4
48011ef4:	e0033005 	and	r3, r3, r5
48011ef8:	e1a0c403 	lsl	ip, r3, #8
48011efc:	e50bc090 	str	ip, [fp, #-144]	; 0x90
48011f00:	e51bc090 	ldr	ip, [fp, #-144]	; 0x90
48011f04:	e18ccc22 	orr	ip, ip, r2, lsr #24
48011f08:	e50bc090 	str	ip, [fp, #-144]	; 0x90
48011f0c:	e1a0c402 	lsl	ip, r2, #8
48011f10:	e50bc094 	str	ip, [fp, #-148]	; 0x94
48011f14:	e14b29d4 	ldrd	r2, [fp, #-148]	; 0xffffff6c
48011f18:	e1822000 	orr	r2, r2, r0
48011f1c:	e1833001 	orr	r3, r3, r1
48011f20:	e51b1058 	ldr	r1, [fp, #-88]	; 0x58
48011f24:	e1a04001 	mov	r4, r1
48011f28:	e3a05000 	mov	r5, #0
48011f2c:	e3a00000 	mov	r0, #0
48011f30:	e3a018ff 	mov	r1, #16711680	; 0xff0000
48011f34:	e0000004 	and	r0, r0, r4
48011f38:	e0011005 	and	r1, r1, r5
48011f3c:	e1a0c421 	lsr	ip, r1, #8
48011f40:	e50bc09c 	str	ip, [fp, #-156]	; 0x9c
48011f44:	e3a00000 	mov	r0, #0
48011f48:	e50b0098 	str	r0, [fp, #-152]	; 0x98
48011f4c:	e14b09dc 	ldrd	r0, [fp, #-156]	; 0xffffff64
48011f50:	e1822000 	orr	r2, r2, r0
48011f54:	e1833001 	orr	r3, r3, r1
48011f58:	e51b1058 	ldr	r1, [fp, #-88]	; 0x58
48011f5c:	e1a04001 	mov	r4, r1
48011f60:	e3a05000 	mov	r5, #0
48011f64:	e3a00000 	mov	r0, #0
48011f68:	e3a014ff 	mov	r1, #-16777216	; 0xff000000
48011f6c:	e0000004 	and	r0, r0, r4
48011f70:	e0011005 	and	r1, r1, r5
48011f74:	e1a0cc21 	lsr	ip, r1, #24
48011f78:	e50bc0a4 	str	ip, [fp, #-164]	; 0xa4
48011f7c:	e3a00000 	mov	r0, #0
48011f80:	e50b00a0 	str	r0, [fp, #-160]	; 0xa0
48011f84:	e14b0ad4 	ldrd	r0, [fp, #-164]	; 0xffffff5c
48011f88:	e1822000 	orr	r2, r2, r0
48011f8c:	e1833001 	orr	r3, r3, r1
48011f90:	e14b23fc 	strd	r2, [fp, #-60]	; 0xffffffc4
48011f94:	e24b303c 	sub	r3, fp, #60	; 0x3c
48011f98:	e3a02008 	mov	r2, #8
48011f9c:	e58d2000 	str	r2, [sp]
48011fa0:	e51b0050 	ldr	r0, [fp, #-80]	; 0x50
48011fa4:	e51b1024 	ldr	r1, [fp, #-36]	; 0x24
48011fa8:	e3062974 	movw	r2, #26996	; 0x6974
48011fac:	e3442801 	movt	r2, #18433	; 0x4801
48011fb0:	ebfffba2 	bl	48010e40 <fdt_setprop>
48011fb4:	e50b002c 	str	r0, [fp, #-44]	; 0x2c
48011fb8:	e51b302c 	ldr	r3, [fp, #-44]	; 0x2c
48011fbc:	e3530000 	cmp	r3, #0
48011fc0:	aa000008 	bge	48011fe8 <fdt_initrd+0x44c>
48011fc4:	e51b002c 	ldr	r0, [fp, #-44]	; 0x2c
48011fc8:	ebfffe3f 	bl	480118cc <fdt_strerror>
48011fcc:	e1a03000 	mov	r3, r0
48011fd0:	e3060988 	movw	r0, #27016	; 0x6988
48011fd4:	e3440801 	movt	r0, #18433	; 0x4801
48011fd8:	e1a01003 	mov	r1, r3
48011fdc:	ebffe1fc 	bl	4800a7d4 <arm_printf>
48011fe0:	e51b302c 	ldr	r3, [fp, #-44]	; 0x2c
48011fe4:	ea000000 	b	48011fec <fdt_initrd+0x450>
48011fe8:	e3a03000 	mov	r3, #0
48011fec:	e1a00003 	mov	r0, r3
48011ff0:	e24bd01c 	sub	sp, fp, #28
48011ff4:	e8bd8bf0 	pop	{r4, r5, r6, r7, r8, r9, fp, pc}

48011ff8 <fdt_chosen>:
48011ff8:	e92d4800 	push	{fp, lr}
48011ffc:	e28db004 	add	fp, sp, #4
48012000:	e24dd028 	sub	sp, sp, #40	; 0x28
48012004:	e50b0018 	str	r0, [fp, #-24]
48012008:	e50b101c 	str	r1, [fp, #-28]
4801200c:	e50b2020 	str	r2, [fp, #-32]
48012010:	e51b0018 	ldr	r0, [fp, #-24]
48012014:	ebffec9f 	bl	4800d298 <fdt_check_header>
48012018:	e50b000c 	str	r0, [fp, #-12]
4801201c:	e51b300c 	ldr	r3, [fp, #-12]
48012020:	e3530000 	cmp	r3, #0
48012024:	aa000008 	bge	4801204c <fdt_chosen+0x54>
48012028:	e51b000c 	ldr	r0, [fp, #-12]
4801202c:	ebfffe26 	bl	480118cc <fdt_strerror>
48012030:	e1a03000 	mov	r3, r0
48012034:	e30609b8 	movw	r0, #27064	; 0x69b8
48012038:	e3440801 	movt	r0, #18433	; 0x4801
4801203c:	e1a01003 	mov	r1, r3
48012040:	ebffe1e3 	bl	4800a7d4 <arm_printf>
48012044:	e51b300c 	ldr	r3, [fp, #-12]
48012048:	ea000041 	b	48012154 <fdt_chosen+0x15c>
4801204c:	e51b0018 	ldr	r0, [fp, #-24]
48012050:	e3061918 	movw	r1, #26904	; 0x6918
48012054:	e3441801 	movt	r1, #18433	; 0x4801
48012058:	ebfff18f 	bl	4800e69c <fdt_path_offset>
4801205c:	e50b0008 	str	r0, [fp, #-8]
48012060:	e51b3008 	ldr	r3, [fp, #-8]
48012064:	e3530000 	cmp	r3, #0
48012068:	aa000011 	bge	480120b4 <fdt_chosen+0xbc>
4801206c:	e51b0018 	ldr	r0, [fp, #-24]
48012070:	e3a01000 	mov	r1, #0
48012074:	e30629c8 	movw	r2, #27080	; 0x69c8
48012078:	e3442801 	movt	r2, #18433	; 0x4801
4801207c:	ebfffc2d 	bl	48011138 <fdt_add_subnode>
48012080:	e50b0008 	str	r0, [fp, #-8]
48012084:	e51b3008 	ldr	r3, [fp, #-8]
48012088:	e3530000 	cmp	r3, #0
4801208c:	aa000008 	bge	480120b4 <fdt_chosen+0xbc>
48012090:	e51b0008 	ldr	r0, [fp, #-8]
48012094:	ebfffe0c 	bl	480118cc <fdt_strerror>
48012098:	e1a03000 	mov	r3, r0
4801209c:	e30609d0 	movw	r0, #27088	; 0x69d0
480120a0:	e3440801 	movt	r0, #18433	; 0x4801
480120a4:	e1a01003 	mov	r1, r3
480120a8:	ebffe1c9 	bl	4800a7d4 <arm_printf>
480120ac:	e51b3008 	ldr	r3, [fp, #-8]
480120b0:	ea000027 	b	48012154 <fdt_chosen+0x15c>
480120b4:	e30609f8 	movw	r0, #27128	; 0x69f8
480120b8:	e3440801 	movt	r0, #18433	; 0x4801
480120bc:	e51b1020 	ldr	r1, [fp, #-32]
480120c0:	ebffe1c3 	bl	4800a7d4 <arm_printf>
480120c4:	e51b0018 	ldr	r0, [fp, #-24]
480120c8:	e51b1008 	ldr	r1, [fp, #-8]
480120cc:	e3062a18 	movw	r2, #27160	; 0x6a18
480120d0:	e3442801 	movt	r2, #18433	; 0x4801
480120d4:	e3a03000 	mov	r3, #0
480120d8:	ebfff303 	bl	4800ecec <fdt_getprop>
480120dc:	e50b0010 	str	r0, [fp, #-16]
480120e0:	e51b3010 	ldr	r3, [fp, #-16]
480120e4:	e3530000 	cmp	r3, #0
480120e8:	0a000002 	beq	480120f8 <fdt_chosen+0x100>
480120ec:	e51b301c 	ldr	r3, [fp, #-28]
480120f0:	e3530000 	cmp	r3, #0
480120f4:	0a000015 	beq	48012150 <fdt_chosen+0x158>
480120f8:	e51b0020 	ldr	r0, [fp, #-32]
480120fc:	ebffe2fc 	bl	4800acf4 <arm_strlen>
48012100:	e1a03000 	mov	r3, r0
48012104:	e2833001 	add	r3, r3, #1
48012108:	e58d3000 	str	r3, [sp]
4801210c:	e51b0018 	ldr	r0, [fp, #-24]
48012110:	e51b1008 	ldr	r1, [fp, #-8]
48012114:	e3062a18 	movw	r2, #27160	; 0x6a18
48012118:	e3442801 	movt	r2, #18433	; 0x4801
4801211c:	e51b3020 	ldr	r3, [fp, #-32]
48012120:	ebfffb46 	bl	48010e40 <fdt_setprop>
48012124:	e50b000c 	str	r0, [fp, #-12]
48012128:	e51b300c 	ldr	r3, [fp, #-12]
4801212c:	e3530000 	cmp	r3, #0
48012130:	aa000006 	bge	48012150 <fdt_chosen+0x158>
48012134:	e51b000c 	ldr	r0, [fp, #-12]
48012138:	ebfffde3 	bl	480118cc <fdt_strerror>
4801213c:	e1a03000 	mov	r3, r0
48012140:	e3060a24 	movw	r0, #27172	; 0x6a24
48012144:	e3440801 	movt	r0, #18433	; 0x4801
48012148:	e1a01003 	mov	r1, r3
4801214c:	ebffe1a0 	bl	4800a7d4 <arm_printf>
48012150:	e51b300c 	ldr	r3, [fp, #-12]
48012154:	e1a00003 	mov	r0, r3
48012158:	e24bd004 	sub	sp, fp, #4
4801215c:	e8bd8800 	pop	{fp, pc}

48012160 <do_fixup_by_path>:
48012160:	e92d4800 	push	{fp, lr}
48012164:	e28db004 	add	fp, sp, #4
48012168:	e24dd020 	sub	sp, sp, #32
4801216c:	e50b0010 	str	r0, [fp, #-16]
48012170:	e50b1014 	str	r1, [fp, #-20]
48012174:	e50b2018 	str	r2, [fp, #-24]
48012178:	e50b301c 	str	r3, [fp, #-28]
4801217c:	e59b3004 	ldr	r3, [fp, #4]
48012180:	e58d3000 	str	r3, [sp]
48012184:	e59b3008 	ldr	r3, [fp, #8]
48012188:	e58d3004 	str	r3, [sp, #4]
4801218c:	e51b0010 	ldr	r0, [fp, #-16]
48012190:	e51b1014 	ldr	r1, [fp, #-20]
48012194:	e51b2018 	ldr	r2, [fp, #-24]
48012198:	e51b301c 	ldr	r3, [fp, #-28]
4801219c:	ebfffe56 	bl	48011afc <fdt_find_and_setprop>
480121a0:	e50b0008 	str	r0, [fp, #-8]
480121a4:	e51b3008 	ldr	r3, [fp, #-8]
480121a8:	e3530000 	cmp	r3, #0
480121ac:	0a000007 	beq	480121d0 <do_fixup_by_path+0x70>
480121b0:	e51b0008 	ldr	r0, [fp, #-8]
480121b4:	ebfffdc4 	bl	480118cc <fdt_strerror>
480121b8:	e1a03000 	mov	r3, r0
480121bc:	e3060a4c 	movw	r0, #27212	; 0x6a4c
480121c0:	e3440801 	movt	r0, #18433	; 0x4801
480121c4:	e51b1014 	ldr	r1, [fp, #-20]
480121c8:	e51b2018 	ldr	r2, [fp, #-24]
480121cc:	ebffe180 	bl	4800a7d4 <arm_printf>
480121d0:	e24bd004 	sub	sp, fp, #4
480121d4:	e8bd8800 	pop	{fp, pc}

480121d8 <do_fixup_by_path_u32>:
480121d8:	e92d4800 	push	{fp, lr}
480121dc:	e28db004 	add	fp, sp, #4
480121e0:	e24dd018 	sub	sp, sp, #24
480121e4:	e50b0008 	str	r0, [fp, #-8]
480121e8:	e50b100c 	str	r1, [fp, #-12]
480121ec:	e50b2010 	str	r2, [fp, #-16]
480121f0:	e50b3014 	str	r3, [fp, #-20]
480121f4:	e51b3014 	ldr	r3, [fp, #-20]
480121f8:	e1a02c03 	lsl	r2, r3, #24
480121fc:	e51b3014 	ldr	r3, [fp, #-20]
48012200:	e2033cff 	and	r3, r3, #65280	; 0xff00
48012204:	e1a03403 	lsl	r3, r3, #8
48012208:	e1822003 	orr	r2, r2, r3
4801220c:	e51b3014 	ldr	r3, [fp, #-20]
48012210:	e20338ff 	and	r3, r3, #16711680	; 0xff0000
48012214:	e1a03423 	lsr	r3, r3, #8
48012218:	e1822003 	orr	r2, r2, r3
4801221c:	e51b3014 	ldr	r3, [fp, #-20]
48012220:	e1a03c23 	lsr	r3, r3, #24
48012224:	e1823003 	orr	r3, r2, r3
48012228:	e50b3014 	str	r3, [fp, #-20]
4801222c:	e24b3014 	sub	r3, fp, #20
48012230:	e3a02004 	mov	r2, #4
48012234:	e58d2000 	str	r2, [sp]
48012238:	e59b2004 	ldr	r2, [fp, #4]
4801223c:	e58d2004 	str	r2, [sp, #4]
48012240:	e51b0008 	ldr	r0, [fp, #-8]
48012244:	e51b100c 	ldr	r1, [fp, #-12]
48012248:	e51b2010 	ldr	r2, [fp, #-16]
4801224c:	ebffffc3 	bl	48012160 <do_fixup_by_path>
48012250:	e24bd004 	sub	sp, fp, #4
48012254:	e8bd8800 	pop	{fp, pc}

48012258 <do_fixup_by_prop>:
48012258:	e92d4800 	push	{fp, lr}
4801225c:	e28db004 	add	fp, sp, #4
48012260:	e24dd020 	sub	sp, sp, #32
48012264:	e50b0010 	str	r0, [fp, #-16]
48012268:	e50b1014 	str	r1, [fp, #-20]
4801226c:	e50b2018 	str	r2, [fp, #-24]
48012270:	e50b301c 	str	r3, [fp, #-28]
48012274:	e51b301c 	ldr	r3, [fp, #-28]
48012278:	e58d3000 	str	r3, [sp]
4801227c:	e51b0010 	ldr	r0, [fp, #-16]
48012280:	e3e01000 	mvn	r1, #0
48012284:	e51b2014 	ldr	r2, [fp, #-20]
48012288:	e51b3018 	ldr	r3, [fp, #-24]
4801228c:	ebfff41e 	bl	4800f30c <fdt_node_offset_by_prop_value>
48012290:	e50b0008 	str	r0, [fp, #-8]
48012294:	ea000019 	b	48012300 <do_fixup_by_prop+0xa8>
48012298:	e59b3010 	ldr	r3, [fp, #16]
4801229c:	e3530000 	cmp	r3, #0
480122a0:	1a000007 	bne	480122c4 <do_fixup_by_prop+0x6c>
480122a4:	e51b0010 	ldr	r0, [fp, #-16]
480122a8:	e51b1008 	ldr	r1, [fp, #-8]
480122ac:	e59b2004 	ldr	r2, [fp, #4]
480122b0:	e3a03000 	mov	r3, #0
480122b4:	ebfff22f 	bl	4800eb78 <fdt_get_property>
480122b8:	e1a03000 	mov	r3, r0
480122bc:	e3530000 	cmp	r3, #0
480122c0:	0a000006 	beq	480122e0 <do_fixup_by_prop+0x88>
480122c4:	e59b300c 	ldr	r3, [fp, #12]
480122c8:	e58d3000 	str	r3, [sp]
480122cc:	e51b0010 	ldr	r0, [fp, #-16]
480122d0:	e51b1008 	ldr	r1, [fp, #-8]
480122d4:	e59b2004 	ldr	r2, [fp, #4]
480122d8:	e59b3008 	ldr	r3, [fp, #8]
480122dc:	ebfffad7 	bl	48010e40 <fdt_setprop>
480122e0:	e51b301c 	ldr	r3, [fp, #-28]
480122e4:	e58d3000 	str	r3, [sp]
480122e8:	e51b0010 	ldr	r0, [fp, #-16]
480122ec:	e51b1008 	ldr	r1, [fp, #-8]
480122f0:	e51b2014 	ldr	r2, [fp, #-20]
480122f4:	e51b3018 	ldr	r3, [fp, #-24]
480122f8:	ebfff403 	bl	4800f30c <fdt_node_offset_by_prop_value>
480122fc:	e50b0008 	str	r0, [fp, #-8]
48012300:	e51b3008 	ldr	r3, [fp, #-8]
48012304:	e3730001 	cmn	r3, #1
48012308:	1affffe2 	bne	48012298 <do_fixup_by_prop+0x40>
4801230c:	e24bd004 	sub	sp, fp, #4
48012310:	e8bd8800 	pop	{fp, pc}

48012314 <do_fixup_by_prop_u32>:
48012314:	e92d4800 	push	{fp, lr}
48012318:	e28db004 	add	fp, sp, #4
4801231c:	e24dd020 	sub	sp, sp, #32
48012320:	e50b0008 	str	r0, [fp, #-8]
48012324:	e50b100c 	str	r1, [fp, #-12]
48012328:	e50b2010 	str	r2, [fp, #-16]
4801232c:	e50b3014 	str	r3, [fp, #-20]
48012330:	e59b3008 	ldr	r3, [fp, #8]
48012334:	e1a02c03 	lsl	r2, r3, #24
48012338:	e59b3008 	ldr	r3, [fp, #8]
4801233c:	e2033cff 	and	r3, r3, #65280	; 0xff00
48012340:	e1a03403 	lsl	r3, r3, #8
48012344:	e1822003 	orr	r2, r2, r3
48012348:	e59b3008 	ldr	r3, [fp, #8]
4801234c:	e20338ff 	and	r3, r3, #16711680	; 0xff0000
48012350:	e1a03423 	lsr	r3, r3, #8
48012354:	e1822003 	orr	r2, r2, r3
48012358:	e59b3008 	ldr	r3, [fp, #8]
4801235c:	e1a03c23 	lsr	r3, r3, #24
48012360:	e1823003 	orr	r3, r2, r3
48012364:	e58b3008 	str	r3, [fp, #8]
48012368:	e59b3004 	ldr	r3, [fp, #4]
4801236c:	e58d3000 	str	r3, [sp]
48012370:	e28b3008 	add	r3, fp, #8
48012374:	e58d3004 	str	r3, [sp, #4]
48012378:	e3a03004 	mov	r3, #4
4801237c:	e58d3008 	str	r3, [sp, #8]
48012380:	e59b300c 	ldr	r3, [fp, #12]
48012384:	e58d300c 	str	r3, [sp, #12]
48012388:	e51b0008 	ldr	r0, [fp, #-8]
4801238c:	e51b100c 	ldr	r1, [fp, #-12]
48012390:	e51b2010 	ldr	r2, [fp, #-16]
48012394:	e51b3014 	ldr	r3, [fp, #-20]
48012398:	ebffffae 	bl	48012258 <do_fixup_by_prop>
4801239c:	e24bd004 	sub	sp, fp, #4
480123a0:	e8bd8800 	pop	{fp, pc}

480123a4 <do_fixup_by_compat>:
480123a4:	e92d4800 	push	{fp, lr}
480123a8:	e28db004 	add	fp, sp, #4
480123ac:	e24dd020 	sub	sp, sp, #32
480123b0:	e50b0010 	str	r0, [fp, #-16]
480123b4:	e50b1014 	str	r1, [fp, #-20]
480123b8:	e50b2018 	str	r2, [fp, #-24]
480123bc:	e50b301c 	str	r3, [fp, #-28]
480123c0:	e3e03000 	mvn	r3, #0
480123c4:	e50b3008 	str	r3, [fp, #-8]
480123c8:	e51b0010 	ldr	r0, [fp, #-16]
480123cc:	e3e01000 	mvn	r1, #0
480123d0:	e51b2014 	ldr	r2, [fp, #-20]
480123d4:	ebfff486 	bl	4800f5f4 <fdt_node_offset_by_compatible>
480123d8:	e50b0008 	str	r0, [fp, #-8]
480123dc:	ea000016 	b	4801243c <do_fixup_by_compat+0x98>
480123e0:	e59b3008 	ldr	r3, [fp, #8]
480123e4:	e3530000 	cmp	r3, #0
480123e8:	1a000007 	bne	4801240c <do_fixup_by_compat+0x68>
480123ec:	e51b0010 	ldr	r0, [fp, #-16]
480123f0:	e51b1008 	ldr	r1, [fp, #-8]
480123f4:	e51b2018 	ldr	r2, [fp, #-24]
480123f8:	e3a03000 	mov	r3, #0
480123fc:	ebfff1dd 	bl	4800eb78 <fdt_get_property>
48012400:	e1a03000 	mov	r3, r0
48012404:	e3530000 	cmp	r3, #0
48012408:	0a000006 	beq	48012428 <do_fixup_by_compat+0x84>
4801240c:	e59b3004 	ldr	r3, [fp, #4]
48012410:	e58d3000 	str	r3, [sp]
48012414:	e51b0010 	ldr	r0, [fp, #-16]
48012418:	e51b1008 	ldr	r1, [fp, #-8]
4801241c:	e51b2018 	ldr	r2, [fp, #-24]
48012420:	e51b301c 	ldr	r3, [fp, #-28]
48012424:	ebfffa85 	bl	48010e40 <fdt_setprop>
48012428:	e51b0010 	ldr	r0, [fp, #-16]
4801242c:	e51b1008 	ldr	r1, [fp, #-8]
48012430:	e51b2014 	ldr	r2, [fp, #-20]
48012434:	ebfff46e 	bl	4800f5f4 <fdt_node_offset_by_compatible>
48012438:	e50b0008 	str	r0, [fp, #-8]
4801243c:	e51b3008 	ldr	r3, [fp, #-8]
48012440:	e3730001 	cmn	r3, #1
48012444:	1affffe5 	bne	480123e0 <do_fixup_by_compat+0x3c>
48012448:	e24bd004 	sub	sp, fp, #4
4801244c:	e8bd8800 	pop	{fp, pc}

48012450 <do_fixup_by_compat_u32>:
48012450:	e92d4800 	push	{fp, lr}
48012454:	e28db004 	add	fp, sp, #4
48012458:	e24dd018 	sub	sp, sp, #24
4801245c:	e50b0008 	str	r0, [fp, #-8]
48012460:	e50b100c 	str	r1, [fp, #-12]
48012464:	e50b2010 	str	r2, [fp, #-16]
48012468:	e50b3014 	str	r3, [fp, #-20]
4801246c:	e51b3014 	ldr	r3, [fp, #-20]
48012470:	e1a02c03 	lsl	r2, r3, #24
48012474:	e51b3014 	ldr	r3, [fp, #-20]
48012478:	e2033cff 	and	r3, r3, #65280	; 0xff00
4801247c:	e1a03403 	lsl	r3, r3, #8
48012480:	e1822003 	orr	r2, r2, r3
48012484:	e51b3014 	ldr	r3, [fp, #-20]
48012488:	e20338ff 	and	r3, r3, #16711680	; 0xff0000
4801248c:	e1a03423 	lsr	r3, r3, #8
48012490:	e1822003 	orr	r2, r2, r3
48012494:	e51b3014 	ldr	r3, [fp, #-20]
48012498:	e1a03c23 	lsr	r3, r3, #24
4801249c:	e1823003 	orr	r3, r2, r3
480124a0:	e50b3014 	str	r3, [fp, #-20]
480124a4:	e24b3014 	sub	r3, fp, #20
480124a8:	e3a02004 	mov	r2, #4
480124ac:	e58d2000 	str	r2, [sp]
480124b0:	e59b2004 	ldr	r2, [fp, #4]
480124b4:	e58d2004 	str	r2, [sp, #4]
480124b8:	e51b0008 	ldr	r0, [fp, #-8]
480124bc:	e51b100c 	ldr	r1, [fp, #-12]
480124c0:	e51b2010 	ldr	r2, [fp, #-16]
480124c4:	ebffffb6 	bl	480123a4 <do_fixup_by_compat>
480124c8:	e24bd004 	sub	sp, fp, #4
480124cc:	e8bd8800 	pop	{fp, pc}

480124d0 <get_cells_len>:
480124d0:	e92d4800 	push	{fp, lr}
480124d4:	e28db004 	add	fp, sp, #4
480124d8:	e24dd010 	sub	sp, sp, #16
480124dc:	e50b0010 	str	r0, [fp, #-16]
480124e0:	e50b1014 	str	r1, [fp, #-20]
480124e4:	e51b0010 	ldr	r0, [fp, #-16]
480124e8:	e3a01000 	mov	r1, #0
480124ec:	e51b2014 	ldr	r2, [fp, #-20]
480124f0:	e3a03000 	mov	r3, #0
480124f4:	ebfff1fc 	bl	4800ecec <fdt_getprop>
480124f8:	e50b0008 	str	r0, [fp, #-8]
480124fc:	e51b3008 	ldr	r3, [fp, #-8]
48012500:	e3530000 	cmp	r3, #0
48012504:	0a000014 	beq	4801255c <get_cells_len+0x8c>
48012508:	e51b3008 	ldr	r3, [fp, #-8]
4801250c:	e5933000 	ldr	r3, [r3]
48012510:	e1a02c03 	lsl	r2, r3, #24
48012514:	e51b3008 	ldr	r3, [fp, #-8]
48012518:	e5933000 	ldr	r3, [r3]
4801251c:	e2033cff 	and	r3, r3, #65280	; 0xff00
48012520:	e1a03403 	lsl	r3, r3, #8
48012524:	e1822003 	orr	r2, r2, r3
48012528:	e51b3008 	ldr	r3, [fp, #-8]
4801252c:	e5933000 	ldr	r3, [r3]
48012530:	e20338ff 	and	r3, r3, #16711680	; 0xff0000
48012534:	e1a03423 	lsr	r3, r3, #8
48012538:	e1822003 	orr	r2, r2, r3
4801253c:	e51b3008 	ldr	r3, [fp, #-8]
48012540:	e5933000 	ldr	r3, [r3]
48012544:	e1a03c23 	lsr	r3, r3, #24
48012548:	e1823003 	orr	r3, r2, r3
4801254c:	e3530002 	cmp	r3, #2
48012550:	1a000001 	bne	4801255c <get_cells_len+0x8c>
48012554:	e3a03008 	mov	r3, #8
48012558:	ea000000 	b	48012560 <get_cells_len+0x90>
4801255c:	e3a03004 	mov	r3, #4
48012560:	e1a00003 	mov	r0, r3
48012564:	e24bd004 	sub	sp, fp, #4
48012568:	e8bd8800 	pop	{fp, pc}

4801256c <write_cell>:
4801256c:	e92d0870 	push	{r4, r5, r6, fp}
48012570:	e28db00c 	add	fp, sp, #12
48012574:	e24dd018 	sub	sp, sp, #24
48012578:	e50b0018 	str	r0, [fp, #-24]
4801257c:	e14b22f4 	strd	r2, [fp, #-36]	; 0xffffffdc
48012580:	e59b3004 	ldr	r3, [fp, #4]
48012584:	e2433001 	sub	r3, r3, #1
48012588:	e1a03183 	lsl	r3, r3, #3
4801258c:	e50b3010 	str	r3, [fp, #-16]
48012590:	ea00000f 	b	480125d4 <write_cell+0x68>
48012594:	e51b0018 	ldr	r0, [fp, #-24]
48012598:	e2803001 	add	r3, r0, #1
4801259c:	e50b3018 	str	r3, [fp, #-24]
480125a0:	e14b22d4 	ldrd	r2, [fp, #-36]	; 0xffffffdc
480125a4:	e51b1010 	ldr	r1, [fp, #-16]
480125a8:	e2616020 	rsb	r6, r1, #32
480125ac:	e241c020 	sub	ip, r1, #32
480125b0:	e1a04132 	lsr	r4, r2, r1
480125b4:	e1844613 	orr	r4, r4, r3, lsl r6
480125b8:	e1844c33 	orr	r4, r4, r3, lsr ip
480125bc:	e1a05133 	lsr	r5, r3, r1
480125c0:	e6ef3074 	uxtb	r3, r4
480125c4:	e5c03000 	strb	r3, [r0]
480125c8:	e51b3010 	ldr	r3, [fp, #-16]
480125cc:	e2433008 	sub	r3, r3, #8
480125d0:	e50b3010 	str	r3, [fp, #-16]
480125d4:	e59b3004 	ldr	r3, [fp, #4]
480125d8:	e2432001 	sub	r2, r3, #1
480125dc:	e58b2004 	str	r2, [fp, #4]
480125e0:	e3530000 	cmp	r3, #0
480125e4:	caffffea 	bgt	48012594 <write_cell+0x28>
480125e8:	e24bd00c 	sub	sp, fp, #12
480125ec:	e8bd0870 	pop	{r4, r5, r6, fp}
480125f0:	e12fff1e 	bx	lr

480125f4 <fdt_fixup_memory_banks>:
480125f4:	e92d49f0 	push	{r4, r5, r6, r7, r8, fp, lr}
480125f8:	e28db018 	add	fp, sp, #24
480125fc:	e24dd03c 	sub	sp, sp, #60	; 0x3c
48012600:	e50b0040 	str	r0, [fp, #-64]	; 0x40
48012604:	e50b1044 	str	r1, [fp, #-68]	; 0x44
48012608:	e50b2048 	str	r2, [fp, #-72]	; 0x48
4801260c:	e50b304c 	str	r3, [fp, #-76]	; 0x4c
48012610:	e1a0300d 	mov	r3, sp
48012614:	e1a08003 	mov	r8, r3
48012618:	e51b304c 	ldr	r3, [fp, #-76]	; 0x4c
4801261c:	e1a01203 	lsl	r1, r3, #4
48012620:	e2413001 	sub	r3, r1, #1
48012624:	e50b3028 	str	r3, [fp, #-40]	; 0x28
48012628:	e1a03001 	mov	r3, r1
4801262c:	e1a02003 	mov	r2, r3
48012630:	e3a03000 	mov	r3, #0
48012634:	e1a07183 	lsl	r7, r3, #3
48012638:	e1877ea2 	orr	r7, r7, r2, lsr #29
4801263c:	e1a06182 	lsl	r6, r2, #3
48012640:	e1a03001 	mov	r3, r1
48012644:	e1a02003 	mov	r2, r3
48012648:	e3a03000 	mov	r3, #0
4801264c:	e1a05183 	lsl	r5, r3, #3
48012650:	e1855ea2 	orr	r5, r5, r2, lsr #29
48012654:	e1a04182 	lsl	r4, r2, #3
48012658:	e1a03001 	mov	r3, r1
4801265c:	e2833007 	add	r3, r3, #7
48012660:	e1a031a3 	lsr	r3, r3, #3
48012664:	e1a03183 	lsl	r3, r3, #3
48012668:	e04dd003 	sub	sp, sp, r3
4801266c:	e28d3008 	add	r3, sp, #8
48012670:	e2833000 	add	r3, r3, #0
48012674:	e50b302c 	str	r3, [fp, #-44]	; 0x2c
48012678:	e51b0040 	ldr	r0, [fp, #-64]	; 0x40
4801267c:	ebffeb05 	bl	4800d298 <fdt_check_header>
48012680:	e50b0030 	str	r0, [fp, #-48]	; 0x30
48012684:	e51b3030 	ldr	r3, [fp, #-48]	; 0x30
48012688:	e3530000 	cmp	r3, #0
4801268c:	aa00000a 	bge	480126bc <fdt_fixup_memory_banks+0xc8>
48012690:	e51b0030 	ldr	r0, [fp, #-48]	; 0x30
48012694:	ebfffc8c 	bl	480118cc <fdt_strerror>
48012698:	e1a03000 	mov	r3, r0
4801269c:	e3060a78 	movw	r0, #27256	; 0x6a78
480126a0:	e3440801 	movt	r0, #18433	; 0x4801
480126a4:	e3061cd8 	movw	r1, #27864	; 0x6cd8
480126a8:	e3441801 	movt	r1, #18433	; 0x4801
480126ac:	e1a02003 	mov	r2, r3
480126b0:	ebffe047 	bl	4800a7d4 <arm_printf>
480126b4:	e51b3030 	ldr	r3, [fp, #-48]	; 0x30
480126b8:	ea00007f 	b	480128bc <fdt_fixup_memory_banks+0x2c8>
480126bc:	e51b0040 	ldr	r0, [fp, #-64]	; 0x40
480126c0:	e3061a80 	movw	r1, #27264	; 0x6a80
480126c4:	e3441801 	movt	r1, #18433	; 0x4801
480126c8:	ebffeff3 	bl	4800e69c <fdt_path_offset>
480126cc:	e50b0034 	str	r0, [fp, #-52]	; 0x34
480126d0:	e51b3034 	ldr	r3, [fp, #-52]	; 0x34
480126d4:	e3530000 	cmp	r3, #0
480126d8:	aa000011 	bge	48012724 <fdt_fixup_memory_banks+0x130>
480126dc:	e51b0040 	ldr	r0, [fp, #-64]	; 0x40
480126e0:	e3a01000 	mov	r1, #0
480126e4:	e3062a88 	movw	r2, #27272	; 0x6a88
480126e8:	e3442801 	movt	r2, #18433	; 0x4801
480126ec:	ebfffa91 	bl	48011138 <fdt_add_subnode>
480126f0:	e50b0034 	str	r0, [fp, #-52]	; 0x34
480126f4:	e51b3034 	ldr	r3, [fp, #-52]	; 0x34
480126f8:	e3530000 	cmp	r3, #0
480126fc:	aa000006 	bge	4801271c <fdt_fixup_memory_banks+0x128>
48012700:	e51b0034 	ldr	r0, [fp, #-52]	; 0x34
48012704:	ebfffc70 	bl	480118cc <fdt_strerror>
48012708:	e1a03000 	mov	r3, r0
4801270c:	e3060a90 	movw	r0, #27280	; 0x6a90
48012710:	e3440801 	movt	r0, #18433	; 0x4801
48012714:	e1a01003 	mov	r1, r3
48012718:	ebffe02d 	bl	4800a7d4 <arm_printf>
4801271c:	e51b3034 	ldr	r3, [fp, #-52]	; 0x34
48012720:	ea000065 	b	480128bc <fdt_fixup_memory_banks+0x2c8>
48012724:	e3a03007 	mov	r3, #7
48012728:	e58d3000 	str	r3, [sp]
4801272c:	e51b0040 	ldr	r0, [fp, #-64]	; 0x40
48012730:	e51b1034 	ldr	r1, [fp, #-52]	; 0x34
48012734:	e3062ab8 	movw	r2, #27320	; 0x6ab8
48012738:	e3442801 	movt	r2, #18433	; 0x4801
4801273c:	e3063a88 	movw	r3, #27272	; 0x6a88
48012740:	e3443801 	movt	r3, #18433	; 0x4801
48012744:	ebfff9bd 	bl	48010e40 <fdt_setprop>
48012748:	e50b0030 	str	r0, [fp, #-48]	; 0x30
4801274c:	e51b3030 	ldr	r3, [fp, #-48]	; 0x30
48012750:	e3530000 	cmp	r3, #0
48012754:	aa00000a 	bge	48012784 <fdt_fixup_memory_banks+0x190>
48012758:	e51b0030 	ldr	r0, [fp, #-48]	; 0x30
4801275c:	ebfffc5a 	bl	480118cc <fdt_strerror>
48012760:	e1a03000 	mov	r3, r0
48012764:	e3060ac4 	movw	r0, #27332	; 0x6ac4
48012768:	e3440801 	movt	r0, #18433	; 0x4801
4801276c:	e3061ab8 	movw	r1, #27320	; 0x6ab8
48012770:	e3441801 	movt	r1, #18433	; 0x4801
48012774:	e1a02003 	mov	r2, r3
48012778:	ebffe015 	bl	4800a7d4 <arm_printf>
4801277c:	e51b3030 	ldr	r3, [fp, #-48]	; 0x30
48012780:	ea00004d 	b	480128bc <fdt_fixup_memory_banks+0x2c8>
48012784:	e51b0040 	ldr	r0, [fp, #-64]	; 0x40
48012788:	e3061ae4 	movw	r1, #27364	; 0x6ae4
4801278c:	e3441801 	movt	r1, #18433	; 0x4801
48012790:	ebffff4e 	bl	480124d0 <get_cells_len>
48012794:	e50b0038 	str	r0, [fp, #-56]	; 0x38
48012798:	e51b0040 	ldr	r0, [fp, #-64]	; 0x40
4801279c:	e3061af4 	movw	r1, #27380	; 0x6af4
480127a0:	e3441801 	movt	r1, #18433	; 0x4801
480127a4:	ebffff49 	bl	480124d0 <get_cells_len>
480127a8:	e50b003c 	str	r0, [fp, #-60]	; 0x3c
480127ac:	e3a03000 	mov	r3, #0
480127b0:	e50b3024 	str	r3, [fp, #-36]	; 0x24
480127b4:	e3a03000 	mov	r3, #0
480127b8:	e50b3020 	str	r3, [fp, #-32]
480127bc:	ea000022 	b	4801284c <fdt_fixup_memory_banks+0x258>
480127c0:	e51b202c 	ldr	r2, [fp, #-44]	; 0x2c
480127c4:	e51b3020 	ldr	r3, [fp, #-32]
480127c8:	e0821003 	add	r1, r2, r3
480127cc:	e51b3024 	ldr	r3, [fp, #-36]	; 0x24
480127d0:	e1a03183 	lsl	r3, r3, #3
480127d4:	e51b2044 	ldr	r2, [fp, #-68]	; 0x44
480127d8:	e0823003 	add	r3, r2, r3
480127dc:	e1c320d0 	ldrd	r2, [r3]
480127e0:	e51b0038 	ldr	r0, [fp, #-56]	; 0x38
480127e4:	e58d0000 	str	r0, [sp]
480127e8:	e1a00001 	mov	r0, r1
480127ec:	ebffff5e 	bl	4801256c <write_cell>
480127f0:	e51b2020 	ldr	r2, [fp, #-32]
480127f4:	e51b3038 	ldr	r3, [fp, #-56]	; 0x38
480127f8:	e0823003 	add	r3, r2, r3
480127fc:	e50b3020 	str	r3, [fp, #-32]
48012800:	e51b202c 	ldr	r2, [fp, #-44]	; 0x2c
48012804:	e51b3020 	ldr	r3, [fp, #-32]
48012808:	e0821003 	add	r1, r2, r3
4801280c:	e51b3024 	ldr	r3, [fp, #-36]	; 0x24
48012810:	e1a03183 	lsl	r3, r3, #3
48012814:	e51b2048 	ldr	r2, [fp, #-72]	; 0x48
48012818:	e0823003 	add	r3, r2, r3
4801281c:	e1c320d0 	ldrd	r2, [r3]
48012820:	e51b003c 	ldr	r0, [fp, #-60]	; 0x3c
48012824:	e58d0000 	str	r0, [sp]
48012828:	e1a00001 	mov	r0, r1
4801282c:	ebffff4e 	bl	4801256c <write_cell>
48012830:	e51b2020 	ldr	r2, [fp, #-32]
48012834:	e51b303c 	ldr	r3, [fp, #-60]	; 0x3c
48012838:	e0823003 	add	r3, r2, r3
4801283c:	e50b3020 	str	r3, [fp, #-32]
48012840:	e51b3024 	ldr	r3, [fp, #-36]	; 0x24
48012844:	e2833001 	add	r3, r3, #1
48012848:	e50b3024 	str	r3, [fp, #-36]	; 0x24
4801284c:	e51b2024 	ldr	r2, [fp, #-36]	; 0x24
48012850:	e51b304c 	ldr	r3, [fp, #-76]	; 0x4c
48012854:	e1520003 	cmp	r2, r3
48012858:	baffffd8 	blt	480127c0 <fdt_fixup_memory_banks+0x1cc>
4801285c:	e51b302c 	ldr	r3, [fp, #-44]	; 0x2c
48012860:	e51b2020 	ldr	r2, [fp, #-32]
48012864:	e58d2000 	str	r2, [sp]
48012868:	e51b0040 	ldr	r0, [fp, #-64]	; 0x40
4801286c:	e51b1034 	ldr	r1, [fp, #-52]	; 0x34
48012870:	e3062b00 	movw	r2, #27392	; 0x6b00
48012874:	e3442801 	movt	r2, #18433	; 0x4801
48012878:	ebfff970 	bl	48010e40 <fdt_setprop>
4801287c:	e50b0030 	str	r0, [fp, #-48]	; 0x30
48012880:	e51b3030 	ldr	r3, [fp, #-48]	; 0x30
48012884:	e3530000 	cmp	r3, #0
48012888:	aa00000a 	bge	480128b8 <fdt_fixup_memory_banks+0x2c4>
4801288c:	e51b0030 	ldr	r0, [fp, #-48]	; 0x30
48012890:	ebfffc0d 	bl	480118cc <fdt_strerror>
48012894:	e1a03000 	mov	r3, r0
48012898:	e3060ac4 	movw	r0, #27332	; 0x6ac4
4801289c:	e3440801 	movt	r0, #18433	; 0x4801
480128a0:	e3061b00 	movw	r1, #27392	; 0x6b00
480128a4:	e3441801 	movt	r1, #18433	; 0x4801
480128a8:	e1a02003 	mov	r2, r3
480128ac:	ebffdfc8 	bl	4800a7d4 <arm_printf>
480128b0:	e51b3030 	ldr	r3, [fp, #-48]	; 0x30
480128b4:	ea000000 	b	480128bc <fdt_fixup_memory_banks+0x2c8>
480128b8:	e3a03000 	mov	r3, #0
480128bc:	e1a0d008 	mov	sp, r8
480128c0:	e1a00003 	mov	r0, r3
480128c4:	e24bd018 	sub	sp, fp, #24
480128c8:	e8bd89f0 	pop	{r4, r5, r6, r7, r8, fp, pc}

480128cc <fdt_fixup_memory>:
480128cc:	e92d4800 	push	{fp, lr}
480128d0:	e28db004 	add	fp, sp, #4
480128d4:	e24dd010 	sub	sp, sp, #16
480128d8:	e50b0008 	str	r0, [fp, #-8]
480128dc:	e14b21f4 	strd	r2, [fp, #-20]	; 0xffffffec
480128e0:	e24b3014 	sub	r3, fp, #20
480128e4:	e51b0008 	ldr	r0, [fp, #-8]
480128e8:	e1a01003 	mov	r1, r3
480128ec:	e28b3004 	add	r3, fp, #4
480128f0:	e1a02003 	mov	r2, r3
480128f4:	e3a03001 	mov	r3, #1
480128f8:	ebffff3d 	bl	480125f4 <fdt_fixup_memory_banks>
480128fc:	e1a03000 	mov	r3, r0
48012900:	e1a00003 	mov	r0, r3
48012904:	e24bd004 	sub	sp, fp, #4
48012908:	e8bd8800 	pop	{fp, pc}

4801290c <fdt_resize>:
4801290c:	e92d4800 	push	{fp, lr}
48012910:	e28db004 	add	fp, sp, #4
48012914:	e24dd030 	sub	sp, sp, #48	; 0x30
48012918:	e50b0028 	str	r0, [fp, #-40]	; 0x28
4801291c:	e51b3028 	ldr	r3, [fp, #-40]	; 0x28
48012920:	e3530000 	cmp	r3, #0
48012924:	1a000001 	bne	48012930 <fdt_resize+0x24>
48012928:	e3a03000 	mov	r3, #0
4801292c:	ea00005f 	b	48012ab0 <fdt_resize+0x1a4>
48012930:	e51b0028 	ldr	r0, [fp, #-40]	; 0x28
48012934:	ebffee69 	bl	4800e2e0 <fdt_num_mem_rsv>
48012938:	e50b000c 	str	r0, [fp, #-12]
4801293c:	e3a03000 	mov	r3, #0
48012940:	e50b3008 	str	r3, [fp, #-8]
48012944:	ea000012 	b	48012994 <fdt_resize+0x88>
48012948:	e24b201c 	sub	r2, fp, #28
4801294c:	e24b3024 	sub	r3, fp, #36	; 0x24
48012950:	e51b0028 	ldr	r0, [fp, #-40]	; 0x28
48012954:	e51b1008 	ldr	r1, [fp, #-8]
48012958:	ebffed52 	bl	4800dea8 <fdt_get_mem_rsv>
4801295c:	e51b3028 	ldr	r3, [fp, #-40]	; 0x28
48012960:	e1a00003 	mov	r0, r3
48012964:	e3a01000 	mov	r1, #0
48012968:	e14b21dc 	ldrd	r2, [fp, #-28]	; 0xffffffe4
4801296c:	e1510003 	cmp	r1, r3
48012970:	01500002 	cmpeq	r0, r2
48012974:	1a000003 	bne	48012988 <fdt_resize+0x7c>
48012978:	e51b0028 	ldr	r0, [fp, #-40]	; 0x28
4801297c:	e51b1008 	ldr	r1, [fp, #-8]
48012980:	ebfff83d 	bl	48010a7c <fdt_del_mem_rsv>
48012984:	ea000006 	b	480129a4 <fdt_resize+0x98>
48012988:	e51b3008 	ldr	r3, [fp, #-8]
4801298c:	e2833001 	add	r3, r3, #1
48012990:	e50b3008 	str	r3, [fp, #-8]
48012994:	e51b2008 	ldr	r2, [fp, #-8]
48012998:	e51b300c 	ldr	r3, [fp, #-12]
4801299c:	e1520003 	cmp	r2, r3
480129a0:	baffffe8 	blt	48012948 <fdt_resize+0x3c>
480129a4:	e51b3028 	ldr	r3, [fp, #-40]	; 0x28
480129a8:	e593300c 	ldr	r3, [r3, #12]
480129ac:	e1a02c03 	lsl	r2, r3, #24
480129b0:	e51b3028 	ldr	r3, [fp, #-40]	; 0x28
480129b4:	e593300c 	ldr	r3, [r3, #12]
480129b8:	e2033cff 	and	r3, r3, #65280	; 0xff00
480129bc:	e1a03403 	lsl	r3, r3, #8
480129c0:	e1822003 	orr	r2, r2, r3
480129c4:	e51b3028 	ldr	r3, [fp, #-40]	; 0x28
480129c8:	e593300c 	ldr	r3, [r3, #12]
480129cc:	e20338ff 	and	r3, r3, #16711680	; 0xff0000
480129d0:	e1a03423 	lsr	r3, r3, #8
480129d4:	e1822003 	orr	r2, r2, r3
480129d8:	e51b3028 	ldr	r3, [fp, #-40]	; 0x28
480129dc:	e593300c 	ldr	r3, [r3, #12]
480129e0:	e1a03c23 	lsr	r3, r3, #24
480129e4:	e1822003 	orr	r2, r2, r3
480129e8:	e51b3028 	ldr	r3, [fp, #-40]	; 0x28
480129ec:	e5933020 	ldr	r3, [r3, #32]
480129f0:	e1a01c03 	lsl	r1, r3, #24
480129f4:	e51b3028 	ldr	r3, [fp, #-40]	; 0x28
480129f8:	e5933020 	ldr	r3, [r3, #32]
480129fc:	e2033cff 	and	r3, r3, #65280	; 0xff00
48012a00:	e1a03403 	lsl	r3, r3, #8
48012a04:	e1811003 	orr	r1, r1, r3
48012a08:	e51b3028 	ldr	r3, [fp, #-40]	; 0x28
48012a0c:	e5933020 	ldr	r3, [r3, #32]
48012a10:	e20338ff 	and	r3, r3, #16711680	; 0xff0000
48012a14:	e1a03423 	lsr	r3, r3, #8
48012a18:	e1811003 	orr	r1, r1, r3
48012a1c:	e51b3028 	ldr	r3, [fp, #-40]	; 0x28
48012a20:	e5933020 	ldr	r3, [r3, #32]
48012a24:	e1a03c23 	lsr	r3, r3, #24
48012a28:	e1813003 	orr	r3, r1, r3
48012a2c:	e0823003 	add	r3, r2, r3
48012a30:	e2833050 	add	r3, r3, #80	; 0x50
48012a34:	e50b3010 	str	r3, [fp, #-16]
48012a38:	e51b3028 	ldr	r3, [fp, #-40]	; 0x28
48012a3c:	e7eb2053 	ubfx	r2, r3, #0, #12
48012a40:	e51b3010 	ldr	r3, [fp, #-16]
48012a44:	e0823003 	add	r3, r2, r3
48012a48:	e3c33a01 	bic	r3, r3, #4096	; 0x1000
48012a4c:	e50b3010 	str	r3, [fp, #-16]
48012a50:	e51b3028 	ldr	r3, [fp, #-40]	; 0x28
48012a54:	e7eb3053 	ubfx	r3, r3, #0, #12
48012a58:	e51b2010 	ldr	r2, [fp, #-16]
48012a5c:	e0633002 	rsb	r3, r3, r2
48012a60:	e50b3010 	str	r3, [fp, #-16]
48012a64:	e51b0028 	ldr	r0, [fp, #-40]	; 0x28
48012a68:	e51b1010 	ldr	r1, [fp, #-16]
48012a6c:	ebfffbba 	bl	4801195c <fdt_set_totalsize>
48012a70:	e51b3028 	ldr	r3, [fp, #-40]	; 0x28
48012a74:	e1a02003 	mov	r2, r3
48012a78:	e3a03000 	mov	r3, #0
48012a7c:	e51b1010 	ldr	r1, [fp, #-16]
48012a80:	e1a00001 	mov	r0, r1
48012a84:	e3a01000 	mov	r1, #0
48012a88:	e1cd00f0 	strd	r0, [sp]
48012a8c:	e51b0028 	ldr	r0, [fp, #-40]	; 0x28
48012a90:	ebfff71b 	bl	48010704 <fdt_add_mem_rsv>
48012a94:	e50b0014 	str	r0, [fp, #-20]
48012a98:	e51b3014 	ldr	r3, [fp, #-20]
48012a9c:	e3530000 	cmp	r3, #0
48012aa0:	aa000001 	bge	48012aac <fdt_resize+0x1a0>
48012aa4:	e51b3014 	ldr	r3, [fp, #-20]
48012aa8:	ea000000 	b	48012ab0 <fdt_resize+0x1a4>
48012aac:	e51b3010 	ldr	r3, [fp, #-16]
48012ab0:	e1a00003 	mov	r0, r3
48012ab4:	e24bd004 	sub	sp, fp, #4
48012ab8:	e8bd8800 	pop	{fp, pc}

48012abc <fdt_increase_size>:
48012abc:	e92d4800 	push	{fp, lr}
48012ac0:	e28db004 	add	fp, sp, #4
48012ac4:	e24dd010 	sub	sp, sp, #16
48012ac8:	e50b0010 	str	r0, [fp, #-16]
48012acc:	e50b1014 	str	r1, [fp, #-20]
48012ad0:	e51b3010 	ldr	r3, [fp, #-16]
48012ad4:	e5933004 	ldr	r3, [r3, #4]
48012ad8:	e1a02c03 	lsl	r2, r3, #24
48012adc:	e51b3010 	ldr	r3, [fp, #-16]
48012ae0:	e5933004 	ldr	r3, [r3, #4]
48012ae4:	e2033cff 	and	r3, r3, #65280	; 0xff00
48012ae8:	e1a03403 	lsl	r3, r3, #8
48012aec:	e1822003 	orr	r2, r2, r3
48012af0:	e51b3010 	ldr	r3, [fp, #-16]
48012af4:	e5933004 	ldr	r3, [r3, #4]
48012af8:	e20338ff 	and	r3, r3, #16711680	; 0xff0000
48012afc:	e1a03423 	lsr	r3, r3, #8
48012b00:	e1822003 	orr	r2, r2, r3
48012b04:	e51b3010 	ldr	r3, [fp, #-16]
48012b08:	e5933004 	ldr	r3, [r3, #4]
48012b0c:	e1a03c23 	lsr	r3, r3, #24
48012b10:	e1822003 	orr	r2, r2, r3
48012b14:	e51b3014 	ldr	r3, [fp, #-20]
48012b18:	e0823003 	add	r3, r2, r3
48012b1c:	e50b3008 	str	r3, [fp, #-8]
48012b20:	e51b0010 	ldr	r0, [fp, #-16]
48012b24:	e51b1010 	ldr	r1, [fp, #-16]
48012b28:	e51b2008 	ldr	r2, [fp, #-8]
48012b2c:	ebfffa50 	bl	48011474 <fdt_open_into>
48012b30:	e1a03000 	mov	r3, r0
48012b34:	e1a00003 	mov	r0, r3
48012b38:	e24bd004 	sub	sp, fp, #4
48012b3c:	e8bd8800 	pop	{fp, pc}

48012b40 <fdt_del_node_and_alias>:
48012b40:	e92d4800 	push	{fp, lr}
48012b44:	e28db004 	add	fp, sp, #4
48012b48:	e24dd010 	sub	sp, sp, #16
48012b4c:	e50b0010 	str	r0, [fp, #-16]
48012b50:	e50b1014 	str	r1, [fp, #-20]
48012b54:	e51b0010 	ldr	r0, [fp, #-16]
48012b58:	e51b1014 	ldr	r1, [fp, #-20]
48012b5c:	ebffeece 	bl	4800e69c <fdt_path_offset>
48012b60:	e50b0008 	str	r0, [fp, #-8]
48012b64:	e51b3008 	ldr	r3, [fp, #-8]
48012b68:	e3530000 	cmp	r3, #0
48012b6c:	aa000000 	bge	48012b74 <fdt_del_node_and_alias+0x34>
48012b70:	ea00000b 	b	48012ba4 <fdt_del_node_and_alias+0x64>
48012b74:	e51b0010 	ldr	r0, [fp, #-16]
48012b78:	e51b1008 	ldr	r1, [fp, #-8]
48012b7c:	ebfff97e 	bl	4801117c <fdt_del_node>
48012b80:	e51b0010 	ldr	r0, [fp, #-16]
48012b84:	e3061b04 	movw	r1, #27396	; 0x6b04
48012b88:	e3441801 	movt	r1, #18433	; 0x4801
48012b8c:	ebffeec2 	bl	4800e69c <fdt_path_offset>
48012b90:	e50b0008 	str	r0, [fp, #-8]
48012b94:	e51b0010 	ldr	r0, [fp, #-16]
48012b98:	e51b1008 	ldr	r1, [fp, #-8]
48012b9c:	e51b2014 	ldr	r2, [fp, #-20]
48012ba0:	ebfff8d8 	bl	48010f08 <fdt_delprop>
48012ba4:	e24bd004 	sub	sp, fp, #4
48012ba8:	e8bd8800 	pop	{fp, pc}

48012bac <of_read_number>:
48012bac:	e52db004 	push	{fp}		; (str fp, [sp, #-4]!)
48012bb0:	e28db000 	add	fp, sp, #0
48012bb4:	e24dd014 	sub	sp, sp, #20
48012bb8:	e50b0010 	str	r0, [fp, #-16]
48012bbc:	e50b1014 	str	r1, [fp, #-20]
48012bc0:	e3a00000 	mov	r0, #0
48012bc4:	e3a01000 	mov	r1, #0
48012bc8:	e14b00fc 	strd	r0, [fp, #-12]
48012bcc:	ea00001b 	b	48012c40 <of_read_number+0x94>
48012bd0:	e14b00dc 	ldrd	r0, [fp, #-12]
48012bd4:	e1a03000 	mov	r3, r0
48012bd8:	e3a02000 	mov	r2, #0
48012bdc:	e51b1010 	ldr	r1, [fp, #-16]
48012be0:	e5911000 	ldr	r1, [r1]
48012be4:	e1a00c01 	lsl	r0, r1, #24
48012be8:	e51b1010 	ldr	r1, [fp, #-16]
48012bec:	e5911000 	ldr	r1, [r1]
48012bf0:	e2011cff 	and	r1, r1, #65280	; 0xff00
48012bf4:	e1a01401 	lsl	r1, r1, #8
48012bf8:	e1800001 	orr	r0, r0, r1
48012bfc:	e51b1010 	ldr	r1, [fp, #-16]
48012c00:	e5911000 	ldr	r1, [r1]
48012c04:	e20118ff 	and	r1, r1, #16711680	; 0xff0000
48012c08:	e1a01421 	lsr	r1, r1, #8
48012c0c:	e1800001 	orr	r0, r0, r1
48012c10:	e51b1010 	ldr	r1, [fp, #-16]
48012c14:	e5911000 	ldr	r1, [r1]
48012c18:	e1a01c21 	lsr	r1, r1, #24
48012c1c:	e1801001 	orr	r1, r0, r1
48012c20:	e1a00001 	mov	r0, r1
48012c24:	e3a01000 	mov	r1, #0
48012c28:	e1800002 	orr	r0, r0, r2
48012c2c:	e1811003 	orr	r1, r1, r3
48012c30:	e14b00fc 	strd	r0, [fp, #-12]
48012c34:	e51b1010 	ldr	r1, [fp, #-16]
48012c38:	e2811004 	add	r1, r1, #4
48012c3c:	e50b1010 	str	r1, [fp, #-16]
48012c40:	e51b1014 	ldr	r1, [fp, #-20]
48012c44:	e2410001 	sub	r0, r1, #1
48012c48:	e50b0014 	str	r0, [fp, #-20]
48012c4c:	e3510000 	cmp	r1, #0
48012c50:	1affffde 	bne	48012bd0 <of_read_number+0x24>
48012c54:	e14b20dc 	ldrd	r2, [fp, #-12]
48012c58:	e1a00002 	mov	r0, r2
48012c5c:	e1a01003 	mov	r1, r3
48012c60:	e24bd000 	sub	sp, fp, #0
48012c64:	e49db004 	pop	{fp}		; (ldr fp, [sp], #4)
48012c68:	e12fff1e 	bx	lr

48012c6c <of_dump_addr>:
48012c6c:	e52db004 	push	{fp}		; (str fp, [sp, #-4]!)
48012c70:	e28db000 	add	fp, sp, #0
48012c74:	e24dd014 	sub	sp, sp, #20
48012c78:	e50b0008 	str	r0, [fp, #-8]
48012c7c:	e50b100c 	str	r1, [fp, #-12]
48012c80:	e50b2010 	str	r2, [fp, #-16]
48012c84:	e24bd000 	sub	sp, fp, #0
48012c88:	e49db004 	pop	{fp}		; (ldr fp, [sp], #4)
48012c8c:	e12fff1e 	bx	lr

48012c90 <of_bus_default_count_cells>:
48012c90:	e92d4800 	push	{fp, lr}
48012c94:	e28db004 	add	fp, sp, #4
48012c98:	e24dd018 	sub	sp, sp, #24
48012c9c:	e50b0010 	str	r0, [fp, #-16]
48012ca0:	e50b1014 	str	r1, [fp, #-20]
48012ca4:	e50b2018 	str	r2, [fp, #-24]
48012ca8:	e50b301c 	str	r3, [fp, #-28]
48012cac:	e51b3018 	ldr	r3, [fp, #-24]
48012cb0:	e3530000 	cmp	r3, #0
48012cb4:	0a000021 	beq	48012d40 <of_bus_default_count_cells+0xb0>
48012cb8:	e51b0010 	ldr	r0, [fp, #-16]
48012cbc:	e51b1014 	ldr	r1, [fp, #-20]
48012cc0:	e3062ae4 	movw	r2, #27364	; 0x6ae4
48012cc4:	e3442801 	movt	r2, #18433	; 0x4801
48012cc8:	e3a03000 	mov	r3, #0
48012ccc:	ebfff006 	bl	4800ecec <fdt_getprop>
48012cd0:	e50b0008 	str	r0, [fp, #-8]
48012cd4:	e51b3008 	ldr	r3, [fp, #-8]
48012cd8:	e3530000 	cmp	r3, #0
48012cdc:	0a000014 	beq	48012d34 <of_bus_default_count_cells+0xa4>
48012ce0:	e51b3008 	ldr	r3, [fp, #-8]
48012ce4:	e5933000 	ldr	r3, [r3]
48012ce8:	e1a02c03 	lsl	r2, r3, #24
48012cec:	e51b3008 	ldr	r3, [fp, #-8]
48012cf0:	e5933000 	ldr	r3, [r3]
48012cf4:	e2033cff 	and	r3, r3, #65280	; 0xff00
48012cf8:	e1a03403 	lsl	r3, r3, #8
48012cfc:	e1822003 	orr	r2, r2, r3
48012d00:	e51b3008 	ldr	r3, [fp, #-8]
48012d04:	e5933000 	ldr	r3, [r3]
48012d08:	e20338ff 	and	r3, r3, #16711680	; 0xff0000
48012d0c:	e1a03423 	lsr	r3, r3, #8
48012d10:	e1822003 	orr	r2, r2, r3
48012d14:	e51b3008 	ldr	r3, [fp, #-8]
48012d18:	e5933000 	ldr	r3, [r3]
48012d1c:	e1a03c23 	lsr	r3, r3, #24
48012d20:	e1823003 	orr	r3, r2, r3
48012d24:	e1a02003 	mov	r2, r3
48012d28:	e51b3018 	ldr	r3, [fp, #-24]
48012d2c:	e5832000 	str	r2, [r3]
48012d30:	ea000002 	b	48012d40 <of_bus_default_count_cells+0xb0>
48012d34:	e51b3018 	ldr	r3, [fp, #-24]
48012d38:	e3a02002 	mov	r2, #2
48012d3c:	e5832000 	str	r2, [r3]
48012d40:	e51b301c 	ldr	r3, [fp, #-28]
48012d44:	e3530000 	cmp	r3, #0
48012d48:	0a000021 	beq	48012dd4 <of_bus_default_count_cells+0x144>
48012d4c:	e51b0010 	ldr	r0, [fp, #-16]
48012d50:	e51b1014 	ldr	r1, [fp, #-20]
48012d54:	e3062af4 	movw	r2, #27380	; 0x6af4
48012d58:	e3442801 	movt	r2, #18433	; 0x4801
48012d5c:	e3a03000 	mov	r3, #0
48012d60:	ebffefe1 	bl	4800ecec <fdt_getprop>
48012d64:	e50b0008 	str	r0, [fp, #-8]
48012d68:	e51b3008 	ldr	r3, [fp, #-8]
48012d6c:	e3530000 	cmp	r3, #0
48012d70:	0a000014 	beq	48012dc8 <of_bus_default_count_cells+0x138>
48012d74:	e51b3008 	ldr	r3, [fp, #-8]
48012d78:	e5933000 	ldr	r3, [r3]
48012d7c:	e1a02c03 	lsl	r2, r3, #24
48012d80:	e51b3008 	ldr	r3, [fp, #-8]
48012d84:	e5933000 	ldr	r3, [r3]
48012d88:	e2033cff 	and	r3, r3, #65280	; 0xff00
48012d8c:	e1a03403 	lsl	r3, r3, #8
48012d90:	e1822003 	orr	r2, r2, r3
48012d94:	e51b3008 	ldr	r3, [fp, #-8]
48012d98:	e5933000 	ldr	r3, [r3]
48012d9c:	e20338ff 	and	r3, r3, #16711680	; 0xff0000
48012da0:	e1a03423 	lsr	r3, r3, #8
48012da4:	e1822003 	orr	r2, r2, r3
48012da8:	e51b3008 	ldr	r3, [fp, #-8]
48012dac:	e5933000 	ldr	r3, [r3]
48012db0:	e1a03c23 	lsr	r3, r3, #24
48012db4:	e1823003 	orr	r3, r2, r3
48012db8:	e1a02003 	mov	r2, r3
48012dbc:	e51b301c 	ldr	r3, [fp, #-28]
48012dc0:	e5832000 	str	r2, [r3]
48012dc4:	ea000002 	b	48012dd4 <of_bus_default_count_cells+0x144>
48012dc8:	e51b301c 	ldr	r3, [fp, #-28]
48012dcc:	e3a02001 	mov	r2, #1
48012dd0:	e5832000 	str	r2, [r3]
48012dd4:	e24bd004 	sub	sp, fp, #4
48012dd8:	e8bd8800 	pop	{fp, pc}

48012ddc <of_bus_default_map>:
48012ddc:	e92d4800 	push	{fp, lr}
48012de0:	e28db004 	add	fp, sp, #4
48012de4:	e24dd028 	sub	sp, sp, #40	; 0x28
48012de8:	e50b0020 	str	r0, [fp, #-32]
48012dec:	e50b1024 	str	r1, [fp, #-36]	; 0x24
48012df0:	e50b2028 	str	r2, [fp, #-40]	; 0x28
48012df4:	e50b302c 	str	r3, [fp, #-44]	; 0x2c
48012df8:	e51b0024 	ldr	r0, [fp, #-36]	; 0x24
48012dfc:	e51b1028 	ldr	r1, [fp, #-40]	; 0x28
48012e00:	ebffff69 	bl	48012bac <of_read_number>
48012e04:	e14b00fc 	strd	r0, [fp, #-12]
48012e08:	e51b2028 	ldr	r2, [fp, #-40]	; 0x28
48012e0c:	e59b3004 	ldr	r3, [fp, #4]
48012e10:	e0823003 	add	r3, r2, r3
48012e14:	e1a03103 	lsl	r3, r3, #2
48012e18:	e51b2024 	ldr	r2, [fp, #-36]	; 0x24
48012e1c:	e0823003 	add	r3, r2, r3
48012e20:	e1a00003 	mov	r0, r3
48012e24:	e51b102c 	ldr	r1, [fp, #-44]	; 0x2c
48012e28:	ebffff5f 	bl	48012bac <of_read_number>
48012e2c:	e14b01f4 	strd	r0, [fp, #-20]	; 0xffffffec
48012e30:	e51b0020 	ldr	r0, [fp, #-32]
48012e34:	e51b1028 	ldr	r1, [fp, #-40]	; 0x28
48012e38:	ebffff5b 	bl	48012bac <of_read_number>
48012e3c:	e14b01fc 	strd	r0, [fp, #-28]	; 0xffffffe4
48012e40:	e14b01dc 	ldrd	r0, [fp, #-28]	; 0xffffffe4
48012e44:	e14b20dc 	ldrd	r2, [fp, #-12]
48012e48:	e1510003 	cmp	r1, r3
48012e4c:	01500002 	cmpeq	r0, r2
48012e50:	3a000007 	bcc	48012e74 <of_bus_default_map+0x98>
48012e54:	e14b00dc 	ldrd	r0, [fp, #-12]
48012e58:	e14b21d4 	ldrd	r2, [fp, #-20]	; 0xffffffec
48012e5c:	e0900002 	adds	r0, r0, r2
48012e60:	e0a11003 	adc	r1, r1, r3
48012e64:	e14b21dc 	ldrd	r2, [fp, #-28]	; 0xffffffe4
48012e68:	e1510003 	cmp	r1, r3
48012e6c:	01500002 	cmpeq	r0, r2
48012e70:	8a000002 	bhi	48012e80 <of_bus_default_map+0xa4>
48012e74:	e3e02000 	mvn	r2, #0
48012e78:	e3e03000 	mvn	r3, #0
48012e7c:	ea000003 	b	48012e90 <of_bus_default_map+0xb4>
48012e80:	e14b01dc 	ldrd	r0, [fp, #-28]	; 0xffffffe4
48012e84:	e14b20dc 	ldrd	r2, [fp, #-12]
48012e88:	e0502002 	subs	r2, r0, r2
48012e8c:	e0c13003 	sbc	r3, r1, r3
48012e90:	e1a00002 	mov	r0, r2
48012e94:	e1a01003 	mov	r1, r3
48012e98:	e24bd004 	sub	sp, fp, #4
48012e9c:	e8bd8800 	pop	{fp, pc}

48012ea0 <of_bus_default_translate>:
48012ea0:	e92d4830 	push	{r4, r5, fp, lr}
48012ea4:	e28db00c 	add	fp, sp, #12
48012ea8:	e24dd018 	sub	sp, sp, #24
48012eac:	e50b0018 	str	r0, [fp, #-24]
48012eb0:	e14b22f4 	strd	r2, [fp, #-36]	; 0xffffffdc
48012eb4:	e51b0018 	ldr	r0, [fp, #-24]
48012eb8:	e59b1004 	ldr	r1, [fp, #4]
48012ebc:	ebffff3a 	bl	48012bac <of_read_number>
48012ec0:	e14b01f4 	strd	r0, [fp, #-20]	; 0xffffffec
48012ec4:	e59b3004 	ldr	r3, [fp, #4]
48012ec8:	e1a03103 	lsl	r3, r3, #2
48012ecc:	e51b0018 	ldr	r0, [fp, #-24]
48012ed0:	e3a01000 	mov	r1, #0
48012ed4:	e1a02003 	mov	r2, r3
48012ed8:	ebffdef2 	bl	4800aaa8 <arm_memset>
48012edc:	e14b01d4 	ldrd	r0, [fp, #-20]	; 0xffffffec
48012ee0:	e14b22d4 	ldrd	r2, [fp, #-36]	; 0xffffffdc
48012ee4:	e0922000 	adds	r2, r2, r0
48012ee8:	e0a33001 	adc	r3, r3, r1
48012eec:	e14b21f4 	strd	r2, [fp, #-20]	; 0xffffffec
48012ef0:	e59b3004 	ldr	r3, [fp, #4]
48012ef4:	e3530001 	cmp	r3, #1
48012ef8:	da000009 	ble	48012f24 <of_bus_default_translate+0x84>
48012efc:	e59b3004 	ldr	r3, [fp, #4]
48012f00:	e243310b 	sub	r3, r3, #-1073741822	; 0xc0000002
48012f04:	e1a03103 	lsl	r3, r3, #2
48012f08:	e51b2018 	ldr	r2, [fp, #-24]
48012f0c:	e0821003 	add	r1, r2, r3
48012f10:	e14b21d4 	ldrd	r2, [fp, #-20]	; 0xffffffec
48012f14:	e1a04003 	mov	r4, r3
48012f18:	e3a05000 	mov	r5, #0
48012f1c:	e1a03004 	mov	r3, r4
48012f20:	e5813000 	str	r3, [r1]
48012f24:	e59b3004 	ldr	r3, [fp, #4]
48012f28:	e2433107 	sub	r3, r3, #-1073741823	; 0xc0000001
48012f2c:	e1a03103 	lsl	r3, r3, #2
48012f30:	e51b2018 	ldr	r2, [fp, #-24]
48012f34:	e0823003 	add	r3, r2, r3
48012f38:	e51b2014 	ldr	r2, [fp, #-20]
48012f3c:	e5832000 	str	r2, [r3]
48012f40:	e3a03000 	mov	r3, #0
48012f44:	e1a00003 	mov	r0, r3
48012f48:	e24bd00c 	sub	sp, fp, #12
48012f4c:	e8bd8830 	pop	{r4, r5, fp, pc}

48012f50 <of_translate_one>:
48012f50:	e92d4800 	push	{fp, lr}
48012f54:	e28db004 	add	fp, sp, #4
48012f58:	e24dd030 	sub	sp, sp, #48	; 0x30
48012f5c:	e50b0020 	str	r0, [fp, #-32]
48012f60:	e50b1024 	str	r1, [fp, #-36]	; 0x24
48012f64:	e50b2028 	str	r2, [fp, #-40]	; 0x28
48012f68:	e50b302c 	str	r3, [fp, #-44]	; 0x2c
48012f6c:	e3e02000 	mvn	r2, #0
48012f70:	e3e03000 	mvn	r3, #0
48012f74:	e14b21f4 	strd	r2, [fp, #-20]	; 0xffffffec
48012f78:	e24b301c 	sub	r3, fp, #28
48012f7c:	e51b0020 	ldr	r0, [fp, #-32]
48012f80:	e51b1024 	ldr	r1, [fp, #-36]	; 0x24
48012f84:	e59b2014 	ldr	r2, [fp, #20]
48012f88:	ebffef57 	bl	4800ecec <fdt_getprop>
48012f8c:	e50b0008 	str	r0, [fp, #-8]
48012f90:	e51b3008 	ldr	r3, [fp, #-8]
48012f94:	e3530000 	cmp	r3, #0
48012f98:	0a000002 	beq	48012fa8 <of_translate_one+0x58>
48012f9c:	e51b301c 	ldr	r3, [fp, #-28]
48012fa0:	e3530000 	cmp	r3, #0
48012fa4:	1a00000a 	bne	48012fd4 <of_translate_one+0x84>
48012fa8:	e59b0004 	ldr	r0, [fp, #4]
48012fac:	e59b1008 	ldr	r1, [fp, #8]
48012fb0:	ebfffefd 	bl	48012bac <of_read_number>
48012fb4:	e14b01f4 	strd	r0, [fp, #-20]	; 0xffffffec
48012fb8:	e59b3010 	ldr	r3, [fp, #16]
48012fbc:	e1a03103 	lsl	r3, r3, #2
48012fc0:	e59b0004 	ldr	r0, [fp, #4]
48012fc4:	e3a01000 	mov	r1, #0
48012fc8:	e1a02003 	mov	r2, r3
48012fcc:	ebffdeb5 	bl	4800aaa8 <arm_memset>
48012fd0:	ea00003c 	b	480130c8 <of_translate_one+0x178>
48012fd4:	e51b301c 	ldr	r3, [fp, #-28]
48012fd8:	e2832003 	add	r2, r3, #3
48012fdc:	e3530000 	cmp	r3, #0
48012fe0:	b1a03002 	movlt	r3, r2
48012fe4:	e1a03143 	asr	r3, r3, #2
48012fe8:	e50b301c 	str	r3, [fp, #-28]
48012fec:	e59b2008 	ldr	r2, [fp, #8]
48012ff0:	e59b3010 	ldr	r3, [fp, #16]
48012ff4:	e0822003 	add	r2, r2, r3
48012ff8:	e59b300c 	ldr	r3, [fp, #12]
48012ffc:	e0823003 	add	r3, r2, r3
48013000:	e50b3018 	str	r3, [fp, #-24]
48013004:	ea000019 	b	48013070 <of_translate_one+0x120>
48013008:	e51b3028 	ldr	r3, [fp, #-40]	; 0x28
4801300c:	e593c00c 	ldr	ip, [r3, #12]
48013010:	e59b3010 	ldr	r3, [fp, #16]
48013014:	e58d3000 	str	r3, [sp]
48013018:	e59b0004 	ldr	r0, [fp, #4]
4801301c:	e51b1008 	ldr	r1, [fp, #-8]
48013020:	e59b2008 	ldr	r2, [fp, #8]
48013024:	e59b300c 	ldr	r3, [fp, #12]
48013028:	e12fff3c 	blx	ip
4801302c:	e14b01f4 	strd	r0, [fp, #-20]	; 0xffffffec
48013030:	e14b01d4 	ldrd	r0, [fp, #-20]	; 0xffffffec
48013034:	e3e02000 	mvn	r2, #0
48013038:	e3e03000 	mvn	r3, #0
4801303c:	e1510003 	cmp	r1, r3
48013040:	01500002 	cmpeq	r0, r2
48013044:	0a000000 	beq	4801304c <of_translate_one+0xfc>
48013048:	ea00000c 	b	48013080 <of_translate_one+0x130>
4801304c:	e51b201c 	ldr	r2, [fp, #-28]
48013050:	e51b3018 	ldr	r3, [fp, #-24]
48013054:	e0633002 	rsb	r3, r3, r2
48013058:	e50b301c 	str	r3, [fp, #-28]
4801305c:	e51b3018 	ldr	r3, [fp, #-24]
48013060:	e1a03103 	lsl	r3, r3, #2
48013064:	e51b2008 	ldr	r2, [fp, #-8]
48013068:	e0823003 	add	r3, r2, r3
4801306c:	e50b3008 	str	r3, [fp, #-8]
48013070:	e51b201c 	ldr	r2, [fp, #-28]
48013074:	e51b3018 	ldr	r3, [fp, #-24]
48013078:	e1520003 	cmp	r2, r3
4801307c:	aaffffe1 	bge	48013008 <of_translate_one+0xb8>
48013080:	e14b01d4 	ldrd	r0, [fp, #-20]	; 0xffffffec
48013084:	e3e02000 	mvn	r2, #0
48013088:	e3e03000 	mvn	r3, #0
4801308c:	e1510003 	cmp	r1, r3
48013090:	01500002 	cmpeq	r0, r2
48013094:	1a000001 	bne	480130a0 <of_translate_one+0x150>
48013098:	e3a03001 	mov	r3, #1
4801309c:	ea000016 	b	480130fc <of_translate_one+0x1ac>
480130a0:	e59b3008 	ldr	r3, [fp, #8]
480130a4:	e1a03103 	lsl	r3, r3, #2
480130a8:	e51b2008 	ldr	r2, [fp, #-8]
480130ac:	e0822003 	add	r2, r2, r3
480130b0:	e59b3010 	ldr	r3, [fp, #16]
480130b4:	e1a03103 	lsl	r3, r3, #2
480130b8:	e59b0004 	ldr	r0, [fp, #4]
480130bc:	e1a01002 	mov	r1, r2
480130c0:	e1a02003 	mov	r2, r3
480130c4:	ebffddd4 	bl	4800a81c <arm_memcpy>
480130c8:	e3060b18 	movw	r0, #27416	; 0x6b18
480130cc:	e3440801 	movt	r0, #18433	; 0x4801
480130d0:	e59b1004 	ldr	r1, [fp, #4]
480130d4:	e59b2010 	ldr	r2, [fp, #16]
480130d8:	ebfffee3 	bl	48012c6c <of_dump_addr>
480130dc:	e51b302c 	ldr	r3, [fp, #-44]	; 0x2c
480130e0:	e5931010 	ldr	r1, [r3, #16]
480130e4:	e59b3010 	ldr	r3, [fp, #16]
480130e8:	e58d3000 	str	r3, [sp]
480130ec:	e59b0004 	ldr	r0, [fp, #4]
480130f0:	e14b21d4 	ldrd	r2, [fp, #-20]	; 0xffffffec
480130f4:	e12fff31 	blx	r1
480130f8:	e1a03000 	mov	r3, r0
480130fc:	e1a00003 	mov	r0, r3
48013100:	e24bd004 	sub	sp, fp, #4
48013104:	e8bd8800 	pop	{fp, pc}

48013108 <__of_translate_address>:
48013108:	e92d4800 	push	{fp, lr}
4801310c:	e28db004 	add	fp, sp, #4
48013110:	e24dd060 	sub	sp, sp, #96	; 0x60
48013114:	e50b0040 	str	r0, [fp, #-64]	; 0x40
48013118:	e50b1044 	str	r1, [fp, #-68]	; 0x44
4801311c:	e50b2048 	str	r2, [fp, #-72]	; 0x48
48013120:	e50b304c 	str	r3, [fp, #-76]	; 0x4c
48013124:	e3e02000 	mvn	r2, #0
48013128:	e3e03000 	mvn	r3, #0
4801312c:	e14b21f4 	strd	r2, [fp, #-20]	; 0xffffffec
48013130:	e51b0040 	ldr	r0, [fp, #-64]	; 0x40
48013134:	e51b1044 	ldr	r1, [fp, #-68]	; 0x44
48013138:	ebfff05a 	bl	4800f2a8 <fdt_parent_offset>
4801313c:	e50b0008 	str	r0, [fp, #-8]
48013140:	e51b3008 	ldr	r3, [fp, #-8]
48013144:	e3530000 	cmp	r3, #0
48013148:	aa000000 	bge	48013150 <__of_translate_address+0x48>
4801314c:	ea00007c 	b	48013344 <__of_translate_address+0x23c>
48013150:	e3053128 	movw	r3, #20776	; 0x5128
48013154:	e3443801 	movt	r3, #18433	; 0x4801
48013158:	e50b300c 	str	r3, [fp, #-12]
4801315c:	e51b300c 	ldr	r3, [fp, #-12]
48013160:	e593c008 	ldr	ip, [r3, #8]
48013164:	e24b202c 	sub	r2, fp, #44	; 0x2c
48013168:	e24b3030 	sub	r3, fp, #48	; 0x30
4801316c:	e51b0040 	ldr	r0, [fp, #-64]	; 0x40
48013170:	e51b1008 	ldr	r1, [fp, #-8]
48013174:	e12fff3c 	blx	ip
48013178:	e51b302c 	ldr	r3, [fp, #-44]	; 0x2c
4801317c:	e3530000 	cmp	r3, #0
48013180:	da000005 	ble	4801319c <__of_translate_address+0x94>
48013184:	e51b302c 	ldr	r3, [fp, #-44]	; 0x2c
48013188:	e3530004 	cmp	r3, #4
4801318c:	ca000002 	bgt	4801319c <__of_translate_address+0x94>
48013190:	e51b3030 	ldr	r3, [fp, #-48]	; 0x30
48013194:	e3530000 	cmp	r3, #0
48013198:	ca00000b 	bgt	480131cc <__of_translate_address+0xc4>
4801319c:	e51b0040 	ldr	r0, [fp, #-64]	; 0x40
480131a0:	e51b1044 	ldr	r1, [fp, #-68]	; 0x44
480131a4:	e3a02000 	mov	r2, #0
480131a8:	ebffeda2 	bl	4800e838 <fdt_get_name>
480131ac:	e1a03000 	mov	r3, r0
480131b0:	e3060b34 	movw	r0, #27444	; 0x6b34
480131b4:	e3440801 	movt	r0, #18433	; 0x4801
480131b8:	e3061cf0 	movw	r1, #27888	; 0x6cf0
480131bc:	e3441801 	movt	r1, #18433	; 0x4801
480131c0:	e1a02003 	mov	r2, r3
480131c4:	ebffdd82 	bl	4800a7d4 <arm_printf>
480131c8:	ea00005d 	b	48013344 <__of_translate_address+0x23c>
480131cc:	e51b302c 	ldr	r3, [fp, #-44]	; 0x2c
480131d0:	e1a03103 	lsl	r3, r3, #2
480131d4:	e24b2028 	sub	r2, fp, #40	; 0x28
480131d8:	e1a00002 	mov	r0, r2
480131dc:	e51b1048 	ldr	r1, [fp, #-72]	; 0x48
480131e0:	e1a02003 	mov	r2, r3
480131e4:	ebffdd8c 	bl	4800a81c <arm_memcpy>
480131e8:	e51b302c 	ldr	r3, [fp, #-44]	; 0x2c
480131ec:	e24b2028 	sub	r2, fp, #40	; 0x28
480131f0:	e3060b50 	movw	r0, #27472	; 0x6b50
480131f4:	e3440801 	movt	r0, #18433	; 0x4801
480131f8:	e1a01002 	mov	r1, r2
480131fc:	e1a02003 	mov	r2, r3
48013200:	ebfffe99 	bl	48012c6c <of_dump_addr>
48013204:	e51b3008 	ldr	r3, [fp, #-8]
48013208:	e50b3044 	str	r3, [fp, #-68]	; 0x44
4801320c:	e51b0040 	ldr	r0, [fp, #-64]	; 0x40
48013210:	e51b1044 	ldr	r1, [fp, #-68]	; 0x44
48013214:	ebfff023 	bl	4800f2a8 <fdt_parent_offset>
48013218:	e50b0008 	str	r0, [fp, #-8]
4801321c:	e51b3008 	ldr	r3, [fp, #-8]
48013220:	e3530000 	cmp	r3, #0
48013224:	aa000006 	bge	48013244 <__of_translate_address+0x13c>
48013228:	e51b302c 	ldr	r3, [fp, #-44]	; 0x2c
4801322c:	e24b2028 	sub	r2, fp, #40	; 0x28
48013230:	e1a00002 	mov	r0, r2
48013234:	e1a01003 	mov	r1, r3
48013238:	ebfffe5b 	bl	48012bac <of_read_number>
4801323c:	e14b01f4 	strd	r0, [fp, #-20]	; 0xffffffec
48013240:	ea00003f 	b	48013344 <__of_translate_address+0x23c>
48013244:	e3053128 	movw	r3, #20776	; 0x5128
48013248:	e3443801 	movt	r3, #18433	; 0x4801
4801324c:	e50b3018 	str	r3, [fp, #-24]
48013250:	e51b3018 	ldr	r3, [fp, #-24]
48013254:	e593c008 	ldr	ip, [r3, #8]
48013258:	e24b2034 	sub	r2, fp, #52	; 0x34
4801325c:	e24b3038 	sub	r3, fp, #56	; 0x38
48013260:	e51b0040 	ldr	r0, [fp, #-64]	; 0x40
48013264:	e51b1008 	ldr	r1, [fp, #-8]
48013268:	e12fff3c 	blx	ip
4801326c:	e51b3034 	ldr	r3, [fp, #-52]	; 0x34
48013270:	e3530000 	cmp	r3, #0
48013274:	da000005 	ble	48013290 <__of_translate_address+0x188>
48013278:	e51b3034 	ldr	r3, [fp, #-52]	; 0x34
4801327c:	e3530004 	cmp	r3, #4
48013280:	ca000002 	bgt	48013290 <__of_translate_address+0x188>
48013284:	e51b3038 	ldr	r3, [fp, #-56]	; 0x38
48013288:	e3530000 	cmp	r3, #0
4801328c:	ca00000b 	bgt	480132c0 <__of_translate_address+0x1b8>
48013290:	e51b0040 	ldr	r0, [fp, #-64]	; 0x40
48013294:	e51b1044 	ldr	r1, [fp, #-68]	; 0x44
48013298:	e3a02000 	mov	r2, #0
4801329c:	ebffed65 	bl	4800e838 <fdt_get_name>
480132a0:	e1a03000 	mov	r3, r0
480132a4:	e3060b34 	movw	r0, #27444	; 0x6b34
480132a8:	e3440801 	movt	r0, #18433	; 0x4801
480132ac:	e3061cf0 	movw	r1, #27888	; 0x6cf0
480132b0:	e3441801 	movt	r1, #18433	; 0x4801
480132b4:	e1a02003 	mov	r2, r3
480132b8:	ebffdd45 	bl	4800a7d4 <arm_printf>
480132bc:	ea000020 	b	48013344 <__of_translate_address+0x23c>
480132c0:	e51b102c 	ldr	r1, [fp, #-44]	; 0x2c
480132c4:	e51b2030 	ldr	r2, [fp, #-48]	; 0x30
480132c8:	e51b3034 	ldr	r3, [fp, #-52]	; 0x34
480132cc:	e24b0028 	sub	r0, fp, #40	; 0x28
480132d0:	e58d0000 	str	r0, [sp]
480132d4:	e58d1004 	str	r1, [sp, #4]
480132d8:	e58d2008 	str	r2, [sp, #8]
480132dc:	e58d300c 	str	r3, [sp, #12]
480132e0:	e51b304c 	ldr	r3, [fp, #-76]	; 0x4c
480132e4:	e58d3010 	str	r3, [sp, #16]
480132e8:	e51b0040 	ldr	r0, [fp, #-64]	; 0x40
480132ec:	e51b1044 	ldr	r1, [fp, #-68]	; 0x44
480132f0:	e51b200c 	ldr	r2, [fp, #-12]
480132f4:	e51b3018 	ldr	r3, [fp, #-24]
480132f8:	ebffff14 	bl	48012f50 <of_translate_one>
480132fc:	e1a03000 	mov	r3, r0
48013300:	e3530000 	cmp	r3, #0
48013304:	0a000000 	beq	4801330c <__of_translate_address+0x204>
48013308:	ea00000d 	b	48013344 <__of_translate_address+0x23c>
4801330c:	e51b3034 	ldr	r3, [fp, #-52]	; 0x34
48013310:	e50b302c 	str	r3, [fp, #-44]	; 0x2c
48013314:	e51b3038 	ldr	r3, [fp, #-56]	; 0x38
48013318:	e50b3030 	str	r3, [fp, #-48]	; 0x30
4801331c:	e51b3018 	ldr	r3, [fp, #-24]
48013320:	e50b300c 	str	r3, [fp, #-12]
48013324:	e51b302c 	ldr	r3, [fp, #-44]	; 0x2c
48013328:	e24b2028 	sub	r2, fp, #40	; 0x28
4801332c:	e3060b6c 	movw	r0, #27500	; 0x6b6c
48013330:	e3440801 	movt	r0, #18433	; 0x4801
48013334:	e1a01002 	mov	r1, r2
48013338:	e1a02003 	mov	r2, r3
4801333c:	ebfffe4a 	bl	48012c6c <of_dump_addr>
48013340:	eaffffaf 	b	48013204 <__of_translate_address+0xfc>
48013344:	e14b21d4 	ldrd	r2, [fp, #-20]	; 0xffffffec
48013348:	e1a00002 	mov	r0, r2
4801334c:	e1a01003 	mov	r1, r3
48013350:	e24bd004 	sub	sp, fp, #4
48013354:	e8bd8800 	pop	{fp, pc}

48013358 <fdt_translate_address>:
48013358:	e92d4800 	push	{fp, lr}
4801335c:	e28db004 	add	fp, sp, #4
48013360:	e24dd010 	sub	sp, sp, #16
48013364:	e50b0008 	str	r0, [fp, #-8]
48013368:	e50b100c 	str	r1, [fp, #-12]
4801336c:	e50b2010 	str	r2, [fp, #-16]
48013370:	e51b0008 	ldr	r0, [fp, #-8]
48013374:	e51b100c 	ldr	r1, [fp, #-12]
48013378:	e51b2010 	ldr	r2, [fp, #-16]
4801337c:	e3063b88 	movw	r3, #27528	; 0x6b88
48013380:	e3443801 	movt	r3, #18433	; 0x4801
48013384:	ebffff5f 	bl	48013108 <__of_translate_address>
48013388:	e1a02000 	mov	r2, r0
4801338c:	e1a03001 	mov	r3, r1
48013390:	e1a00002 	mov	r0, r2
48013394:	e1a01003 	mov	r1, r3
48013398:	e24bd004 	sub	sp, fp, #4
4801339c:	e8bd8800 	pop	{fp, pc}

480133a0 <fdt_node_offset_by_compat_reg>:
480133a0:	e92d4830 	push	{r4, r5, fp, lr}
480133a4:	e28db00c 	add	fp, sp, #12
480133a8:	e24dd020 	sub	sp, sp, #32
480133ac:	e50b0020 	str	r0, [fp, #-32]
480133b0:	e50b1024 	str	r1, [fp, #-36]	; 0x24
480133b4:	e50b2028 	str	r2, [fp, #-40]	; 0x28
480133b8:	e51b0020 	ldr	r0, [fp, #-32]
480133bc:	e3e01000 	mvn	r1, #0
480133c0:	e51b2024 	ldr	r2, [fp, #-36]	; 0x24
480133c4:	ebfff08a 	bl	4800f5f4 <fdt_node_offset_by_compatible>
480133c8:	e50b0010 	str	r0, [fp, #-16]
480133cc:	ea00001c 	b	48013444 <fdt_node_offset_by_compat_reg+0xa4>
480133d0:	e24b3018 	sub	r3, fp, #24
480133d4:	e51b0020 	ldr	r0, [fp, #-32]
480133d8:	e51b1010 	ldr	r1, [fp, #-16]
480133dc:	e3062b00 	movw	r2, #27392	; 0x6b00
480133e0:	e3442801 	movt	r2, #18433	; 0x4801
480133e4:	ebffee40 	bl	4800ecec <fdt_getprop>
480133e8:	e50b0014 	str	r0, [fp, #-20]
480133ec:	e51b3014 	ldr	r3, [fp, #-20]
480133f0:	e3530000 	cmp	r3, #0
480133f4:	0a00000d 	beq	48013430 <fdt_node_offset_by_compat_reg+0x90>
480133f8:	e51b3028 	ldr	r3, [fp, #-40]	; 0x28
480133fc:	e1a04003 	mov	r4, r3
48013400:	e3a05000 	mov	r5, #0
48013404:	e51b0020 	ldr	r0, [fp, #-32]
48013408:	e51b1010 	ldr	r1, [fp, #-16]
4801340c:	e51b2014 	ldr	r2, [fp, #-20]
48013410:	ebffffd0 	bl	48013358 <fdt_translate_address>
48013414:	e1a02000 	mov	r2, r0
48013418:	e1a03001 	mov	r3, r1
4801341c:	e1550003 	cmp	r5, r3
48013420:	01540002 	cmpeq	r4, r2
48013424:	1a000001 	bne	48013430 <fdt_node_offset_by_compat_reg+0x90>
48013428:	e51b3010 	ldr	r3, [fp, #-16]
4801342c:	ea000008 	b	48013454 <fdt_node_offset_by_compat_reg+0xb4>
48013430:	e51b0020 	ldr	r0, [fp, #-32]
48013434:	e51b1010 	ldr	r1, [fp, #-16]
48013438:	e51b2024 	ldr	r2, [fp, #-36]	; 0x24
4801343c:	ebfff06c 	bl	4800f5f4 <fdt_node_offset_by_compatible>
48013440:	e50b0010 	str	r0, [fp, #-16]
48013444:	e51b3010 	ldr	r3, [fp, #-16]
48013448:	e3730001 	cmn	r3, #1
4801344c:	1affffdf 	bne	480133d0 <fdt_node_offset_by_compat_reg+0x30>
48013450:	e3e03000 	mvn	r3, #0
48013454:	e1a00003 	mov	r0, r3
48013458:	e24bd00c 	sub	sp, fp, #12
4801345c:	e8bd8830 	pop	{r4, r5, fp, pc}

48013460 <fdt_alloc_phandle>:
48013460:	e92d4810 	push	{r4, fp, lr}
48013464:	e28db008 	add	fp, sp, #8
48013468:	e24dd014 	sub	sp, sp, #20
4801346c:	e50b0018 	str	r0, [fp, #-24]
48013470:	e3a03000 	mov	r3, #0
48013474:	e50b3014 	str	r3, [fp, #-20]
48013478:	e51b0018 	ldr	r0, [fp, #-24]
4801347c:	e3e01000 	mvn	r1, #0
48013480:	e3a02000 	mov	r2, #0
48013484:	ebffe912 	bl	4800d8d4 <fdt_next_node>
48013488:	e50b0010 	str	r0, [fp, #-16]
4801348c:	ea000012 	b	480134dc <fdt_alloc_phandle+0x7c>
48013490:	e51b4014 	ldr	r4, [fp, #-20]
48013494:	e51b0018 	ldr	r0, [fp, #-24]
48013498:	e51b1010 	ldr	r1, [fp, #-16]
4801349c:	ebffee26 	bl	4800ed3c <fdt_get_phandle>
480134a0:	e1a03000 	mov	r3, r0
480134a4:	e1540003 	cmp	r4, r3
480134a8:	2a000004 	bcs	480134c0 <fdt_alloc_phandle+0x60>
480134ac:	e51b0018 	ldr	r0, [fp, #-24]
480134b0:	e51b1010 	ldr	r1, [fp, #-16]
480134b4:	ebffee20 	bl	4800ed3c <fdt_get_phandle>
480134b8:	e1a03000 	mov	r3, r0
480134bc:	ea000000 	b	480134c4 <fdt_alloc_phandle+0x64>
480134c0:	e51b3014 	ldr	r3, [fp, #-20]
480134c4:	e50b3014 	str	r3, [fp, #-20]
480134c8:	e51b0018 	ldr	r0, [fp, #-24]
480134cc:	e51b1010 	ldr	r1, [fp, #-16]
480134d0:	e3a02000 	mov	r2, #0
480134d4:	ebffe8fe 	bl	4800d8d4 <fdt_next_node>
480134d8:	e50b0010 	str	r0, [fp, #-16]
480134dc:	e51b3010 	ldr	r3, [fp, #-16]
480134e0:	e3530000 	cmp	r3, #0
480134e4:	aaffffe9 	bge	48013490 <fdt_alloc_phandle+0x30>
480134e8:	e51b3014 	ldr	r3, [fp, #-20]
480134ec:	e2833001 	add	r3, r3, #1
480134f0:	e1a00003 	mov	r0, r3
480134f4:	e24bd008 	sub	sp, fp, #8
480134f8:	e8bd8810 	pop	{r4, fp, pc}

480134fc <fdt_set_phandle>:
480134fc:	e92d4800 	push	{fp, lr}
48013500:	e28db004 	add	fp, sp, #4
48013504:	e24dd018 	sub	sp, sp, #24
48013508:	e50b0010 	str	r0, [fp, #-16]
4801350c:	e50b1014 	str	r1, [fp, #-20]
48013510:	e50b2018 	str	r2, [fp, #-24]
48013514:	e51b0010 	ldr	r0, [fp, #-16]
48013518:	e51b1014 	ldr	r1, [fp, #-20]
4801351c:	e3062b90 	movw	r2, #27536	; 0x6b90
48013520:	e3442801 	movt	r2, #18433	; 0x4801
48013524:	e51b3018 	ldr	r3, [fp, #-24]
48013528:	ebfff924 	bl	480119c0 <fdt_setprop_cell>
4801352c:	e50b0008 	str	r0, [fp, #-8]
48013530:	e51b3008 	ldr	r3, [fp, #-8]
48013534:	e3530000 	cmp	r3, #0
48013538:	aa000001 	bge	48013544 <fdt_set_phandle+0x48>
4801353c:	e51b3008 	ldr	r3, [fp, #-8]
48013540:	ea000007 	b	48013564 <fdt_set_phandle+0x68>
48013544:	e51b0010 	ldr	r0, [fp, #-16]
48013548:	e51b1014 	ldr	r1, [fp, #-20]
4801354c:	e3062b98 	movw	r2, #27544	; 0x6b98
48013550:	e3442801 	movt	r2, #18433	; 0x4801
48013554:	e51b3018 	ldr	r3, [fp, #-24]
48013558:	ebfff918 	bl	480119c0 <fdt_setprop_cell>
4801355c:	e50b0008 	str	r0, [fp, #-8]
48013560:	e51b3008 	ldr	r3, [fp, #-8]
48013564:	e1a00003 	mov	r0, r3
48013568:	e24bd004 	sub	sp, fp, #4
4801356c:	e8bd8800 	pop	{fp, pc}

48013570 <fdt_create_phandle>:
48013570:	e92d4800 	push	{fp, lr}
48013574:	e28db004 	add	fp, sp, #4
48013578:	e24dd010 	sub	sp, sp, #16
4801357c:	e50b0010 	str	r0, [fp, #-16]
48013580:	e50b1014 	str	r1, [fp, #-20]
48013584:	e51b0010 	ldr	r0, [fp, #-16]
48013588:	e51b1014 	ldr	r1, [fp, #-20]
4801358c:	ebffedea 	bl	4800ed3c <fdt_get_phandle>
48013590:	e1a03000 	mov	r3, r0
48013594:	e50b3008 	str	r3, [fp, #-8]
48013598:	e51b3008 	ldr	r3, [fp, #-8]
4801359c:	e3530000 	cmp	r3, #0
480135a0:	1a000015 	bne	480135fc <fdt_create_phandle+0x8c>
480135a4:	e51b0010 	ldr	r0, [fp, #-16]
480135a8:	ebffffac 	bl	48013460 <fdt_alloc_phandle>
480135ac:	e50b0008 	str	r0, [fp, #-8]
480135b0:	e51b3008 	ldr	r3, [fp, #-8]
480135b4:	e51b0010 	ldr	r0, [fp, #-16]
480135b8:	e51b1014 	ldr	r1, [fp, #-20]
480135bc:	e1a02003 	mov	r2, r3
480135c0:	ebffffcd 	bl	480134fc <fdt_set_phandle>
480135c4:	e50b000c 	str	r0, [fp, #-12]
480135c8:	e51b300c 	ldr	r3, [fp, #-12]
480135cc:	e3530000 	cmp	r3, #0
480135d0:	aa000009 	bge	480135fc <fdt_create_phandle+0x8c>
480135d4:	e51b000c 	ldr	r0, [fp, #-12]
480135d8:	ebfff8bb 	bl	480118cc <fdt_strerror>
480135dc:	e1a03000 	mov	r3, r0
480135e0:	e3060ba8 	movw	r0, #27560	; 0x6ba8
480135e4:	e3440801 	movt	r0, #18433	; 0x4801
480135e8:	e51b1008 	ldr	r1, [fp, #-8]
480135ec:	e1a02003 	mov	r2, r3
480135f0:	ebffdc77 	bl	4800a7d4 <arm_printf>
480135f4:	e3a03000 	mov	r3, #0
480135f8:	ea000000 	b	48013600 <fdt_create_phandle+0x90>
480135fc:	e51b3008 	ldr	r3, [fp, #-8]
48013600:	e1a00003 	mov	r0, r3
48013604:	e24bd004 	sub	sp, fp, #4
48013608:	e8bd8800 	pop	{fp, pc}

4801360c <fdt_set_node_status>:
4801360c:	e92d4800 	push	{fp, lr}
48013610:	e28db004 	add	fp, sp, #4
48013614:	e24dd030 	sub	sp, sp, #48	; 0x30
48013618:	e50b0020 	str	r0, [fp, #-32]
4801361c:	e50b1024 	str	r1, [fp, #-36]	; 0x24
48013620:	e50b302c 	str	r3, [fp, #-44]	; 0x2c
48013624:	e1a03002 	mov	r3, r2
48013628:	e54b3025 	strb	r3, [fp, #-37]	; 0x25
4801362c:	e3a03000 	mov	r3, #0
48013630:	e50b3008 	str	r3, [fp, #-8]
48013634:	e51b3024 	ldr	r3, [fp, #-36]	; 0x24
48013638:	e3530000 	cmp	r3, #0
4801363c:	aa000001 	bge	48013648 <fdt_set_node_status+0x3c>
48013640:	e51b3024 	ldr	r3, [fp, #-36]	; 0x24
48013644:	ea000052 	b	48013794 <fdt_set_node_status+0x188>
48013648:	e55b3025 	ldrb	r3, [fp, #-37]	; 0x25
4801364c:	e3530003 	cmp	r3, #3
48013650:	979ff103 	ldrls	pc, [pc, r3, lsl #2]
48013654:	ea000045 	b	48013770 <fdt_set_node_status+0x164>
48013658:	48013668 	.word	0x48013668
4801365c:	480136a4 	.word	0x480136a4
48013660:	480136e0 	.word	0x480136e0
48013664:	4801371c 	.word	0x4801371c
48013668:	e3060bc4 	movw	r0, #27588	; 0x6bc4
4801366c:	e3440801 	movt	r0, #18433	; 0x4801
48013670:	ebffdd9f 	bl	4800acf4 <arm_strlen>
48013674:	e1a03000 	mov	r3, r0
48013678:	e2833001 	add	r3, r3, #1
4801367c:	e58d3000 	str	r3, [sp]
48013680:	e51b0020 	ldr	r0, [fp, #-32]
48013684:	e51b1024 	ldr	r1, [fp, #-36]	; 0x24
48013688:	e3062bcc 	movw	r2, #27596	; 0x6bcc
4801368c:	e3442801 	movt	r2, #18433	; 0x4801
48013690:	e3063bc4 	movw	r3, #27588	; 0x6bc4
48013694:	e3443801 	movt	r3, #18433	; 0x4801
48013698:	ebfff5e8 	bl	48010e40 <fdt_setprop>
4801369c:	e50b0008 	str	r0, [fp, #-8]
480136a0:	ea00003a 	b	48013790 <fdt_set_node_status+0x184>
480136a4:	e3060bd4 	movw	r0, #27604	; 0x6bd4
480136a8:	e3440801 	movt	r0, #18433	; 0x4801
480136ac:	ebffdd90 	bl	4800acf4 <arm_strlen>
480136b0:	e1a03000 	mov	r3, r0
480136b4:	e2833001 	add	r3, r3, #1
480136b8:	e58d3000 	str	r3, [sp]
480136bc:	e51b0020 	ldr	r0, [fp, #-32]
480136c0:	e51b1024 	ldr	r1, [fp, #-36]	; 0x24
480136c4:	e3062bcc 	movw	r2, #27596	; 0x6bcc
480136c8:	e3442801 	movt	r2, #18433	; 0x4801
480136cc:	e3063bd4 	movw	r3, #27604	; 0x6bd4
480136d0:	e3443801 	movt	r3, #18433	; 0x4801
480136d4:	ebfff5d9 	bl	48010e40 <fdt_setprop>
480136d8:	e50b0008 	str	r0, [fp, #-8]
480136dc:	ea00002b 	b	48013790 <fdt_set_node_status+0x184>
480136e0:	e3060be0 	movw	r0, #27616	; 0x6be0
480136e4:	e3440801 	movt	r0, #18433	; 0x4801
480136e8:	ebffdd81 	bl	4800acf4 <arm_strlen>
480136ec:	e1a03000 	mov	r3, r0
480136f0:	e2833001 	add	r3, r3, #1
480136f4:	e58d3000 	str	r3, [sp]
480136f8:	e51b0020 	ldr	r0, [fp, #-32]
480136fc:	e51b1024 	ldr	r1, [fp, #-36]	; 0x24
48013700:	e3062bcc 	movw	r2, #27596	; 0x6bcc
48013704:	e3442801 	movt	r2, #18433	; 0x4801
48013708:	e3063be0 	movw	r3, #27616	; 0x6be0
4801370c:	e3443801 	movt	r3, #18433	; 0x4801
48013710:	ebfff5ca 	bl	48010e40 <fdt_setprop>
48013714:	e50b0008 	str	r0, [fp, #-8]
48013718:	ea00001c 	b	48013790 <fdt_set_node_status+0x184>
4801371c:	e24b3018 	sub	r3, fp, #24
48013720:	e1a00003 	mov	r0, r3
48013724:	e3061be8 	movw	r1, #27624	; 0x6be8
48013728:	e3441801 	movt	r1, #18433	; 0x4801
4801372c:	e51b202c 	ldr	r2, [fp, #-44]	; 0x2c
48013730:	ebffdbfd 	bl	4800a72c <arm_sprintf>
48013734:	e24b3018 	sub	r3, fp, #24
48013738:	e1a00003 	mov	r0, r3
4801373c:	ebffdd6c 	bl	4800acf4 <arm_strlen>
48013740:	e1a03000 	mov	r3, r0
48013744:	e2833001 	add	r3, r3, #1
48013748:	e1a02003 	mov	r2, r3
4801374c:	e24b3018 	sub	r3, fp, #24
48013750:	e58d2000 	str	r2, [sp]
48013754:	e51b0020 	ldr	r0, [fp, #-32]
48013758:	e51b1024 	ldr	r1, [fp, #-36]	; 0x24
4801375c:	e3062bcc 	movw	r2, #27596	; 0x6bcc
48013760:	e3442801 	movt	r2, #18433	; 0x4801
48013764:	ebfff5b5 	bl	48010e40 <fdt_setprop>
48013768:	e50b0008 	str	r0, [fp, #-8]
4801376c:	ea000007 	b	48013790 <fdt_set_node_status+0x184>
48013770:	e55b3025 	ldrb	r3, [fp, #-37]	; 0x25
48013774:	e3060bf0 	movw	r0, #27632	; 0x6bf0
48013778:	e3440801 	movt	r0, #18433	; 0x4801
4801377c:	e1a01003 	mov	r1, r3
48013780:	ebffdc13 	bl	4800a7d4 <arm_printf>
48013784:	e3e03000 	mvn	r3, #0
48013788:	e50b3008 	str	r3, [fp, #-8]
4801378c:	e1a00000 	nop			; (mov r0, r0)
48013790:	e51b3008 	ldr	r3, [fp, #-8]
48013794:	e1a00003 	mov	r0, r3
48013798:	e24bd004 	sub	sp, fp, #4
4801379c:	e8bd8800 	pop	{fp, pc}

480137a0 <fdt_set_status_by_alias>:
480137a0:	e92d4800 	push	{fp, lr}
480137a4:	e28db004 	add	fp, sp, #4
480137a8:	e24dd018 	sub	sp, sp, #24
480137ac:	e50b0010 	str	r0, [fp, #-16]
480137b0:	e50b1014 	str	r1, [fp, #-20]
480137b4:	e50b301c 	str	r3, [fp, #-28]
480137b8:	e1a03002 	mov	r3, r2
480137bc:	e54b3015 	strb	r3, [fp, #-21]
480137c0:	e51b0010 	ldr	r0, [fp, #-16]
480137c4:	e51b1014 	ldr	r1, [fp, #-20]
480137c8:	ebffebb3 	bl	4800e69c <fdt_path_offset>
480137cc:	e50b0008 	str	r0, [fp, #-8]
480137d0:	e55b3015 	ldrb	r3, [fp, #-21]
480137d4:	e51b0010 	ldr	r0, [fp, #-16]
480137d8:	e51b1008 	ldr	r1, [fp, #-8]
480137dc:	e1a02003 	mov	r2, r3
480137e0:	e51b301c 	ldr	r3, [fp, #-28]
480137e4:	ebffff88 	bl	4801360c <fdt_set_node_status>
480137e8:	e1a03000 	mov	r3, r0
480137ec:	e1a00003 	mov	r0, r3
480137f0:	e24bd004 	sub	sp, fp, #4
480137f4:	e8bd8800 	pop	{fp, pc}

480137f8 <fdt_verify_alias_address>:
480137f8:	e92d4800 	push	{fp, lr}
480137fc:	e28db004 	add	fp, sp, #4
48013800:	e24dd038 	sub	sp, sp, #56	; 0x38
48013804:	e50b0028 	str	r0, [fp, #-40]	; 0x28
48013808:	e50b102c 	str	r1, [fp, #-44]	; 0x2c
4801380c:	e50b2030 	str	r2, [fp, #-48]	; 0x30
48013810:	e51b0028 	ldr	r0, [fp, #-40]	; 0x28
48013814:	e51b102c 	ldr	r1, [fp, #-44]	; 0x2c
48013818:	e51b2030 	ldr	r2, [fp, #-48]	; 0x30
4801381c:	e3a03000 	mov	r3, #0
48013820:	ebffed31 	bl	4800ecec <fdt_getprop>
48013824:	e50b0008 	str	r0, [fp, #-8]
48013828:	e51b3008 	ldr	r3, [fp, #-8]
4801382c:	e3530000 	cmp	r3, #0
48013830:	1a000001 	bne	4801383c <fdt_verify_alias_address+0x44>
48013834:	e3a03001 	mov	r3, #1
48013838:	ea000031 	b	48013904 <fdt_verify_alias_address+0x10c>
4801383c:	e51b0028 	ldr	r0, [fp, #-40]	; 0x28
48013840:	e51b1008 	ldr	r1, [fp, #-8]
48013844:	ebffeb94 	bl	4800e69c <fdt_path_offset>
48013848:	e50b000c 	str	r0, [fp, #-12]
4801384c:	e51b300c 	ldr	r3, [fp, #-12]
48013850:	e3530000 	cmp	r3, #0
48013854:	aa000006 	bge	48013874 <fdt_verify_alias_address+0x7c>
48013858:	e3060c08 	movw	r0, #27656	; 0x6c08
4801385c:	e3440801 	movt	r0, #18433	; 0x4801
48013860:	e51b1030 	ldr	r1, [fp, #-48]	; 0x30
48013864:	e51b2008 	ldr	r2, [fp, #-8]
48013868:	ebffdbd9 	bl	4800a7d4 <arm_printf>
4801386c:	e3a03000 	mov	r3, #0
48013870:	ea000023 	b	48013904 <fdt_verify_alias_address+0x10c>
48013874:	e24b3020 	sub	r3, fp, #32
48013878:	e51b0028 	ldr	r0, [fp, #-40]	; 0x28
4801387c:	e51b100c 	ldr	r1, [fp, #-12]
48013880:	e3062b00 	movw	r2, #27392	; 0x6b00
48013884:	e3442801 	movt	r2, #18433	; 0x4801
48013888:	ebffed17 	bl	4800ecec <fdt_getprop>
4801388c:	e50b0010 	str	r0, [fp, #-16]
48013890:	e51b3010 	ldr	r3, [fp, #-16]
48013894:	e3530000 	cmp	r3, #0
48013898:	1a000005 	bne	480138b4 <fdt_verify_alias_address+0xbc>
4801389c:	e3060c44 	movw	r0, #27716	; 0x6c44
480138a0:	e3440801 	movt	r0, #18433	; 0x4801
480138a4:	e51b1008 	ldr	r1, [fp, #-8]
480138a8:	ebffdbc9 	bl	4800a7d4 <arm_printf>
480138ac:	e3a03000 	mov	r3, #0
480138b0:	ea000013 	b	48013904 <fdt_verify_alias_address+0x10c>
480138b4:	e51b0028 	ldr	r0, [fp, #-40]	; 0x28
480138b8:	e51b100c 	ldr	r1, [fp, #-12]
480138bc:	e51b2010 	ldr	r2, [fp, #-16]
480138c0:	ebfffea4 	bl	48013358 <fdt_translate_address>
480138c4:	e14b01fc 	strd	r0, [fp, #-28]	; 0xffffffe4
480138c8:	e1cb00d4 	ldrd	r0, [fp, #4]
480138cc:	e14b21dc 	ldrd	r2, [fp, #-28]	; 0xffffffe4
480138d0:	e1510003 	cmp	r1, r3
480138d4:	01500002 	cmpeq	r0, r2
480138d8:	0a000008 	beq	48013900 <fdt_verify_alias_address+0x108>
480138dc:	e14b21dc 	ldrd	r2, [fp, #-28]	; 0xffffffe4
480138e0:	e1cd20f0 	strd	r2, [sp]
480138e4:	e3060c74 	movw	r0, #27764	; 0x6c74
480138e8:	e3440801 	movt	r0, #18433	; 0x4801
480138ec:	e51b1030 	ldr	r1, [fp, #-48]	; 0x30
480138f0:	e1cb20d4 	ldrd	r2, [fp, #4]
480138f4:	ebffdbb6 	bl	4800a7d4 <arm_printf>
480138f8:	e3a03000 	mov	r3, #0
480138fc:	ea000000 	b	48013904 <fdt_verify_alias_address+0x10c>
48013900:	e3a03001 	mov	r3, #1
48013904:	e1a00003 	mov	r0, r3
48013908:	e24bd004 	sub	sp, fp, #4
4801390c:	e8bd8800 	pop	{fp, pc}

48013910 <fdt_get_base_address>:
48013910:	e92d4800 	push	{fp, lr}
48013914:	e28db004 	add	fp, sp, #4
48013918:	e24dd018 	sub	sp, sp, #24
4801391c:	e50b0018 	str	r0, [fp, #-24]
48013920:	e50b101c 	str	r1, [fp, #-28]
48013924:	e24b3010 	sub	r3, fp, #16
48013928:	e51b0018 	ldr	r0, [fp, #-24]
4801392c:	e51b101c 	ldr	r1, [fp, #-28]
48013930:	e3062ae4 	movw	r2, #27364	; 0x6ae4
48013934:	e3442801 	movt	r2, #18433	; 0x4801
48013938:	ebffeceb 	bl	4800ecec <fdt_getprop>
4801393c:	e50b000c 	str	r0, [fp, #-12]
48013940:	e51b300c 	ldr	r3, [fp, #-12]
48013944:	e3530000 	cmp	r3, #0
48013948:	0a000006 	beq	48013968 <fdt_get_base_address+0x58>
4801394c:	e51b3010 	ldr	r3, [fp, #-16]
48013950:	e3530004 	cmp	r3, #4
48013954:	1a000003 	bne	48013968 <fdt_get_base_address+0x58>
48013958:	e51b300c 	ldr	r3, [fp, #-12]
4801395c:	e5933000 	ldr	r3, [r3]
48013960:	e50b3008 	str	r3, [fp, #-8]
48013964:	ea000001 	b	48013970 <fdt_get_base_address+0x60>
48013968:	e3a03002 	mov	r3, #2
4801396c:	e50b3008 	str	r3, [fp, #-8]
48013970:	e24b3010 	sub	r3, fp, #16
48013974:	e51b0018 	ldr	r0, [fp, #-24]
48013978:	e51b101c 	ldr	r1, [fp, #-28]
4801397c:	e3062b88 	movw	r2, #27528	; 0x6b88
48013980:	e3442801 	movt	r2, #18433	; 0x4801
48013984:	ebffecd8 	bl	4800ecec <fdt_getprop>
48013988:	e50b000c 	str	r0, [fp, #-12]
4801398c:	e51b300c 	ldr	r3, [fp, #-12]
48013990:	e3530000 	cmp	r3, #0
48013994:	0a00000a 	beq	480139c4 <fdt_get_base_address+0xb4>
48013998:	e51b3008 	ldr	r3, [fp, #-8]
4801399c:	e1a03103 	lsl	r3, r3, #2
480139a0:	e51b200c 	ldr	r2, [fp, #-12]
480139a4:	e0823003 	add	r3, r2, r3
480139a8:	e51b0018 	ldr	r0, [fp, #-24]
480139ac:	e51b101c 	ldr	r1, [fp, #-28]
480139b0:	e1a02003 	mov	r2, r3
480139b4:	ebfffe67 	bl	48013358 <fdt_translate_address>
480139b8:	e1a02000 	mov	r2, r0
480139bc:	e1a03001 	mov	r3, r1
480139c0:	ea000001 	b	480139cc <fdt_get_base_address+0xbc>
480139c4:	e3a02000 	mov	r2, #0
480139c8:	e3a03000 	mov	r3, #0
480139cc:	e1a00002 	mov	r0, r2
480139d0:	e1a01003 	mov	r1, r3
480139d4:	e24bd004 	sub	sp, fp, #4
480139d8:	e8bd8800 	pop	{fp, pc}

480139dc <fdt_set_magic>:
480139dc:	e52db004 	push	{fp}		; (str fp, [sp, #-4]!)
480139e0:	e28db000 	add	fp, sp, #0
480139e4:	e24dd014 	sub	sp, sp, #20
480139e8:	e50b0010 	str	r0, [fp, #-16]
480139ec:	e50b1014 	str	r1, [fp, #-20]
480139f0:	e51b3010 	ldr	r3, [fp, #-16]
480139f4:	e50b3008 	str	r3, [fp, #-8]
480139f8:	e51b3014 	ldr	r3, [fp, #-20]
480139fc:	e1a02c03 	lsl	r2, r3, #24
48013a00:	e51b3014 	ldr	r3, [fp, #-20]
48013a04:	e2033cff 	and	r3, r3, #65280	; 0xff00
48013a08:	e1a03403 	lsl	r3, r3, #8
48013a0c:	e1822003 	orr	r2, r2, r3
48013a10:	e51b3014 	ldr	r3, [fp, #-20]
48013a14:	e20338ff 	and	r3, r3, #16711680	; 0xff0000
48013a18:	e1a03423 	lsr	r3, r3, #8
48013a1c:	e1822003 	orr	r2, r2, r3
48013a20:	e51b3014 	ldr	r3, [fp, #-20]
48013a24:	e1a03c23 	lsr	r3, r3, #24
48013a28:	e1822003 	orr	r2, r2, r3
48013a2c:	e51b3008 	ldr	r3, [fp, #-8]
48013a30:	e5832000 	str	r2, [r3]
48013a34:	e24bd000 	sub	sp, fp, #0
48013a38:	e49db004 	pop	{fp}		; (ldr fp, [sp], #4)
48013a3c:	e12fff1e 	bx	lr

48013a40 <fdt_set_totalsize>:
48013a40:	e52db004 	push	{fp}		; (str fp, [sp, #-4]!)
48013a44:	e28db000 	add	fp, sp, #0
48013a48:	e24dd014 	sub	sp, sp, #20
48013a4c:	e50b0010 	str	r0, [fp, #-16]
48013a50:	e50b1014 	str	r1, [fp, #-20]
48013a54:	e51b3010 	ldr	r3, [fp, #-16]
48013a58:	e50b3008 	str	r3, [fp, #-8]
48013a5c:	e51b3014 	ldr	r3, [fp, #-20]
48013a60:	e1a02c03 	lsl	r2, r3, #24
48013a64:	e51b3014 	ldr	r3, [fp, #-20]
48013a68:	e2033cff 	and	r3, r3, #65280	; 0xff00
48013a6c:	e1a03403 	lsl	r3, r3, #8
48013a70:	e1822003 	orr	r2, r2, r3
48013a74:	e51b3014 	ldr	r3, [fp, #-20]
48013a78:	e20338ff 	and	r3, r3, #16711680	; 0xff0000
48013a7c:	e1a03423 	lsr	r3, r3, #8
48013a80:	e1822003 	orr	r2, r2, r3
48013a84:	e51b3014 	ldr	r3, [fp, #-20]
48013a88:	e1a03c23 	lsr	r3, r3, #24
48013a8c:	e1822003 	orr	r2, r2, r3
48013a90:	e51b3008 	ldr	r3, [fp, #-8]
48013a94:	e5832004 	str	r2, [r3, #4]
48013a98:	e24bd000 	sub	sp, fp, #0
48013a9c:	e49db004 	pop	{fp}		; (ldr fp, [sp], #4)
48013aa0:	e12fff1e 	bx	lr

48013aa4 <fdt_set_off_dt_struct>:
48013aa4:	e52db004 	push	{fp}		; (str fp, [sp, #-4]!)
48013aa8:	e28db000 	add	fp, sp, #0
48013aac:	e24dd014 	sub	sp, sp, #20
48013ab0:	e50b0010 	str	r0, [fp, #-16]
48013ab4:	e50b1014 	str	r1, [fp, #-20]
48013ab8:	e51b3010 	ldr	r3, [fp, #-16]
48013abc:	e50b3008 	str	r3, [fp, #-8]
48013ac0:	e51b3014 	ldr	r3, [fp, #-20]
48013ac4:	e1a02c03 	lsl	r2, r3, #24
48013ac8:	e51b3014 	ldr	r3, [fp, #-20]
48013acc:	e2033cff 	and	r3, r3, #65280	; 0xff00
48013ad0:	e1a03403 	lsl	r3, r3, #8
48013ad4:	e1822003 	orr	r2, r2, r3
48013ad8:	e51b3014 	ldr	r3, [fp, #-20]
48013adc:	e20338ff 	and	r3, r3, #16711680	; 0xff0000
48013ae0:	e1a03423 	lsr	r3, r3, #8
48013ae4:	e1822003 	orr	r2, r2, r3
48013ae8:	e51b3014 	ldr	r3, [fp, #-20]
48013aec:	e1a03c23 	lsr	r3, r3, #24
48013af0:	e1822003 	orr	r2, r2, r3
48013af4:	e51b3008 	ldr	r3, [fp, #-8]
48013af8:	e5832008 	str	r2, [r3, #8]
48013afc:	e24bd000 	sub	sp, fp, #0
48013b00:	e49db004 	pop	{fp}		; (ldr fp, [sp], #4)
48013b04:	e12fff1e 	bx	lr

48013b08 <fdt_set_off_dt_strings>:
48013b08:	e52db004 	push	{fp}		; (str fp, [sp, #-4]!)
48013b0c:	e28db000 	add	fp, sp, #0
48013b10:	e24dd014 	sub	sp, sp, #20
48013b14:	e50b0010 	str	r0, [fp, #-16]
48013b18:	e50b1014 	str	r1, [fp, #-20]
48013b1c:	e51b3010 	ldr	r3, [fp, #-16]
48013b20:	e50b3008 	str	r3, [fp, #-8]
48013b24:	e51b3014 	ldr	r3, [fp, #-20]
48013b28:	e1a02c03 	lsl	r2, r3, #24
48013b2c:	e51b3014 	ldr	r3, [fp, #-20]
48013b30:	e2033cff 	and	r3, r3, #65280	; 0xff00
48013b34:	e1a03403 	lsl	r3, r3, #8
48013b38:	e1822003 	orr	r2, r2, r3
48013b3c:	e51b3014 	ldr	r3, [fp, #-20]
48013b40:	e20338ff 	and	r3, r3, #16711680	; 0xff0000
48013b44:	e1a03423 	lsr	r3, r3, #8
48013b48:	e1822003 	orr	r2, r2, r3
48013b4c:	e51b3014 	ldr	r3, [fp, #-20]
48013b50:	e1a03c23 	lsr	r3, r3, #24
48013b54:	e1822003 	orr	r2, r2, r3
48013b58:	e51b3008 	ldr	r3, [fp, #-8]
48013b5c:	e583200c 	str	r2, [r3, #12]
48013b60:	e24bd000 	sub	sp, fp, #0
48013b64:	e49db004 	pop	{fp}		; (ldr fp, [sp], #4)
48013b68:	e12fff1e 	bx	lr

48013b6c <fdt_set_off_mem_rsvmap>:
48013b6c:	e52db004 	push	{fp}		; (str fp, [sp, #-4]!)
48013b70:	e28db000 	add	fp, sp, #0
48013b74:	e24dd014 	sub	sp, sp, #20
48013b78:	e50b0010 	str	r0, [fp, #-16]
48013b7c:	e50b1014 	str	r1, [fp, #-20]
48013b80:	e51b3010 	ldr	r3, [fp, #-16]
48013b84:	e50b3008 	str	r3, [fp, #-8]
48013b88:	e51b3014 	ldr	r3, [fp, #-20]
48013b8c:	e1a02c03 	lsl	r2, r3, #24
48013b90:	e51b3014 	ldr	r3, [fp, #-20]
48013b94:	e2033cff 	and	r3, r3, #65280	; 0xff00
48013b98:	e1a03403 	lsl	r3, r3, #8
48013b9c:	e1822003 	orr	r2, r2, r3
48013ba0:	e51b3014 	ldr	r3, [fp, #-20]
48013ba4:	e20338ff 	and	r3, r3, #16711680	; 0xff0000
48013ba8:	e1a03423 	lsr	r3, r3, #8
48013bac:	e1822003 	orr	r2, r2, r3
48013bb0:	e51b3014 	ldr	r3, [fp, #-20]
48013bb4:	e1a03c23 	lsr	r3, r3, #24
48013bb8:	e1822003 	orr	r2, r2, r3
48013bbc:	e51b3008 	ldr	r3, [fp, #-8]
48013bc0:	e5832010 	str	r2, [r3, #16]
48013bc4:	e24bd000 	sub	sp, fp, #0
48013bc8:	e49db004 	pop	{fp}		; (ldr fp, [sp], #4)
48013bcc:	e12fff1e 	bx	lr

48013bd0 <fdt_set_version>:
48013bd0:	e52db004 	push	{fp}		; (str fp, [sp, #-4]!)
48013bd4:	e28db000 	add	fp, sp, #0
48013bd8:	e24dd014 	sub	sp, sp, #20
48013bdc:	e50b0010 	str	r0, [fp, #-16]
48013be0:	e50b1014 	str	r1, [fp, #-20]
48013be4:	e51b3010 	ldr	r3, [fp, #-16]
48013be8:	e50b3008 	str	r3, [fp, #-8]
48013bec:	e51b3014 	ldr	r3, [fp, #-20]
48013bf0:	e1a02c03 	lsl	r2, r3, #24
48013bf4:	e51b3014 	ldr	r3, [fp, #-20]
48013bf8:	e2033cff 	and	r3, r3, #65280	; 0xff00
48013bfc:	e1a03403 	lsl	r3, r3, #8
48013c00:	e1822003 	orr	r2, r2, r3
48013c04:	e51b3014 	ldr	r3, [fp, #-20]
48013c08:	e20338ff 	and	r3, r3, #16711680	; 0xff0000
48013c0c:	e1a03423 	lsr	r3, r3, #8
48013c10:	e1822003 	orr	r2, r2, r3
48013c14:	e51b3014 	ldr	r3, [fp, #-20]
48013c18:	e1a03c23 	lsr	r3, r3, #24
48013c1c:	e1822003 	orr	r2, r2, r3
48013c20:	e51b3008 	ldr	r3, [fp, #-8]
48013c24:	e5832014 	str	r2, [r3, #20]
48013c28:	e24bd000 	sub	sp, fp, #0
48013c2c:	e49db004 	pop	{fp}		; (ldr fp, [sp], #4)
48013c30:	e12fff1e 	bx	lr

48013c34 <fdt_set_last_comp_version>:
48013c34:	e52db004 	push	{fp}		; (str fp, [sp, #-4]!)
48013c38:	e28db000 	add	fp, sp, #0
48013c3c:	e24dd014 	sub	sp, sp, #20
48013c40:	e50b0010 	str	r0, [fp, #-16]
48013c44:	e50b1014 	str	r1, [fp, #-20]
48013c48:	e51b3010 	ldr	r3, [fp, #-16]
48013c4c:	e50b3008 	str	r3, [fp, #-8]
48013c50:	e51b3014 	ldr	r3, [fp, #-20]
48013c54:	e1a02c03 	lsl	r2, r3, #24
48013c58:	e51b3014 	ldr	r3, [fp, #-20]
48013c5c:	e2033cff 	and	r3, r3, #65280	; 0xff00
48013c60:	e1a03403 	lsl	r3, r3, #8
48013c64:	e1822003 	orr	r2, r2, r3
48013c68:	e51b3014 	ldr	r3, [fp, #-20]
48013c6c:	e20338ff 	and	r3, r3, #16711680	; 0xff0000
48013c70:	e1a03423 	lsr	r3, r3, #8
48013c74:	e1822003 	orr	r2, r2, r3
48013c78:	e51b3014 	ldr	r3, [fp, #-20]
48013c7c:	e1a03c23 	lsr	r3, r3, #24
48013c80:	e1822003 	orr	r2, r2, r3
48013c84:	e51b3008 	ldr	r3, [fp, #-8]
48013c88:	e5832018 	str	r2, [r3, #24]
48013c8c:	e24bd000 	sub	sp, fp, #0
48013c90:	e49db004 	pop	{fp}		; (ldr fp, [sp], #4)
48013c94:	e12fff1e 	bx	lr

48013c98 <fdt_set_size_dt_strings>:
48013c98:	e52db004 	push	{fp}		; (str fp, [sp, #-4]!)
48013c9c:	e28db000 	add	fp, sp, #0
48013ca0:	e24dd014 	sub	sp, sp, #20
48013ca4:	e50b0010 	str	r0, [fp, #-16]
48013ca8:	e50b1014 	str	r1, [fp, #-20]
48013cac:	e51b3010 	ldr	r3, [fp, #-16]
48013cb0:	e50b3008 	str	r3, [fp, #-8]
48013cb4:	e51b3014 	ldr	r3, [fp, #-20]
48013cb8:	e1a02c03 	lsl	r2, r3, #24
48013cbc:	e51b3014 	ldr	r3, [fp, #-20]
48013cc0:	e2033cff 	and	r3, r3, #65280	; 0xff00
48013cc4:	e1a03403 	lsl	r3, r3, #8
48013cc8:	e1822003 	orr	r2, r2, r3
48013ccc:	e51b3014 	ldr	r3, [fp, #-20]
48013cd0:	e20338ff 	and	r3, r3, #16711680	; 0xff0000
48013cd4:	e1a03423 	lsr	r3, r3, #8
48013cd8:	e1822003 	orr	r2, r2, r3
48013cdc:	e51b3014 	ldr	r3, [fp, #-20]
48013ce0:	e1a03c23 	lsr	r3, r3, #24
48013ce4:	e1822003 	orr	r2, r2, r3
48013ce8:	e51b3008 	ldr	r3, [fp, #-8]
48013cec:	e5832020 	str	r2, [r3, #32]
48013cf0:	e24bd000 	sub	sp, fp, #0
48013cf4:	e49db004 	pop	{fp}		; (ldr fp, [sp], #4)
48013cf8:	e12fff1e 	bx	lr

48013cfc <fdt_set_size_dt_struct>:
48013cfc:	e52db004 	push	{fp}		; (str fp, [sp, #-4]!)
48013d00:	e28db000 	add	fp, sp, #0
48013d04:	e24dd014 	sub	sp, sp, #20
48013d08:	e50b0010 	str	r0, [fp, #-16]
48013d0c:	e50b1014 	str	r1, [fp, #-20]
48013d10:	e51b3010 	ldr	r3, [fp, #-16]
48013d14:	e50b3008 	str	r3, [fp, #-8]
48013d18:	e51b3014 	ldr	r3, [fp, #-20]
48013d1c:	e1a02c03 	lsl	r2, r3, #24
48013d20:	e51b3014 	ldr	r3, [fp, #-20]
48013d24:	e2033cff 	and	r3, r3, #65280	; 0xff00
48013d28:	e1a03403 	lsl	r3, r3, #8
48013d2c:	e1822003 	orr	r2, r2, r3
48013d30:	e51b3014 	ldr	r3, [fp, #-20]
48013d34:	e20338ff 	and	r3, r3, #16711680	; 0xff0000
48013d38:	e1a03423 	lsr	r3, r3, #8
48013d3c:	e1822003 	orr	r2, r2, r3
48013d40:	e51b3014 	ldr	r3, [fp, #-20]
48013d44:	e1a03c23 	lsr	r3, r3, #24
48013d48:	e1822003 	orr	r2, r2, r3
48013d4c:	e51b3008 	ldr	r3, [fp, #-8]
48013d50:	e5832024 	str	r2, [r3, #36]	; 0x24
48013d54:	e24bd000 	sub	sp, fp, #0
48013d58:	e49db004 	pop	{fp}		; (ldr fp, [sp], #4)
48013d5c:	e12fff1e 	bx	lr

48013d60 <_fdt_offset_ptr>:
48013d60:	e52db004 	push	{fp}		; (str fp, [sp, #-4]!)
48013d64:	e28db000 	add	fp, sp, #0
48013d68:	e24dd00c 	sub	sp, sp, #12
48013d6c:	e50b0008 	str	r0, [fp, #-8]
48013d70:	e50b100c 	str	r1, [fp, #-12]
48013d74:	e51b3008 	ldr	r3, [fp, #-8]
48013d78:	e5933008 	ldr	r3, [r3, #8]
48013d7c:	e1a02c03 	lsl	r2, r3, #24
48013d80:	e51b3008 	ldr	r3, [fp, #-8]
48013d84:	e5933008 	ldr	r3, [r3, #8]
48013d88:	e2033cff 	and	r3, r3, #65280	; 0xff00
48013d8c:	e1a03403 	lsl	r3, r3, #8
48013d90:	e1822003 	orr	r2, r2, r3
48013d94:	e51b3008 	ldr	r3, [fp, #-8]
48013d98:	e5933008 	ldr	r3, [r3, #8]
48013d9c:	e20338ff 	and	r3, r3, #16711680	; 0xff0000
48013da0:	e1a03423 	lsr	r3, r3, #8
48013da4:	e1822003 	orr	r2, r2, r3
48013da8:	e51b3008 	ldr	r3, [fp, #-8]
48013dac:	e5933008 	ldr	r3, [r3, #8]
48013db0:	e1a03c23 	lsr	r3, r3, #24
48013db4:	e1822003 	orr	r2, r2, r3
48013db8:	e51b300c 	ldr	r3, [fp, #-12]
48013dbc:	e0823003 	add	r3, r2, r3
48013dc0:	e51b2008 	ldr	r2, [fp, #-8]
48013dc4:	e0823003 	add	r3, r2, r3
48013dc8:	e1a00003 	mov	r0, r3
48013dcc:	e24bd000 	sub	sp, fp, #0
48013dd0:	e49db004 	pop	{fp}		; (ldr fp, [sp], #4)
48013dd4:	e12fff1e 	bx	lr

48013dd8 <_fdt_offset_ptr_w>:
48013dd8:	e92d4800 	push	{fp, lr}
48013ddc:	e28db004 	add	fp, sp, #4
48013de0:	e24dd008 	sub	sp, sp, #8
48013de4:	e50b0008 	str	r0, [fp, #-8]
48013de8:	e50b100c 	str	r1, [fp, #-12]
48013dec:	e51b0008 	ldr	r0, [fp, #-8]
48013df0:	e51b100c 	ldr	r1, [fp, #-12]
48013df4:	ebffffd9 	bl	48013d60 <_fdt_offset_ptr>
48013df8:	e1a03000 	mov	r3, r0
48013dfc:	e1a00003 	mov	r0, r3
48013e00:	e24bd004 	sub	sp, fp, #4
48013e04:	e8bd8800 	pop	{fp, pc}

48013e08 <_fdt_sw_check_header>:
48013e08:	e52db004 	push	{fp}		; (str fp, [sp, #-4]!)
48013e0c:	e28db000 	add	fp, sp, #0
48013e10:	e24dd00c 	sub	sp, sp, #12
48013e14:	e50b0008 	str	r0, [fp, #-8]
48013e18:	e51b3008 	ldr	r3, [fp, #-8]
48013e1c:	e5933000 	ldr	r3, [r3]
48013e20:	e1a02c03 	lsl	r2, r3, #24
48013e24:	e51b3008 	ldr	r3, [fp, #-8]
48013e28:	e5933000 	ldr	r3, [r3]
48013e2c:	e2033cff 	and	r3, r3, #65280	; 0xff00
48013e30:	e1a03403 	lsl	r3, r3, #8
48013e34:	e1822003 	orr	r2, r2, r3
48013e38:	e51b3008 	ldr	r3, [fp, #-8]
48013e3c:	e5933000 	ldr	r3, [r3]
48013e40:	e20338ff 	and	r3, r3, #16711680	; 0xff0000
48013e44:	e1a03423 	lsr	r3, r3, #8
48013e48:	e1822003 	orr	r2, r2, r3
48013e4c:	e51b3008 	ldr	r3, [fp, #-8]
48013e50:	e5933000 	ldr	r3, [r3]
48013e54:	e1a03c23 	lsr	r3, r3, #24
48013e58:	e1822003 	orr	r2, r2, r3
48013e5c:	e3003112 	movw	r3, #274	; 0x112
48013e60:	e3423ff2 	movt	r3, #12274	; 0x2ff2
48013e64:	e1520003 	cmp	r2, r3
48013e68:	0a000001 	beq	48013e74 <_fdt_sw_check_header+0x6c>
48013e6c:	e3e03008 	mvn	r3, #8
48013e70:	ea000000 	b	48013e78 <_fdt_sw_check_header+0x70>
48013e74:	e3a03000 	mov	r3, #0
48013e78:	e1a00003 	mov	r0, r3
48013e7c:	e24bd000 	sub	sp, fp, #0
48013e80:	e49db004 	pop	{fp}		; (ldr fp, [sp], #4)
48013e84:	e12fff1e 	bx	lr

48013e88 <_fdt_grab_space>:
48013e88:	e92d4800 	push	{fp, lr}
48013e8c:	e28db004 	add	fp, sp, #4
48013e90:	e24dd010 	sub	sp, sp, #16
48013e94:	e50b0010 	str	r0, [fp, #-16]
48013e98:	e50b1014 	str	r1, [fp, #-20]
48013e9c:	e51b3010 	ldr	r3, [fp, #-16]
48013ea0:	e5933024 	ldr	r3, [r3, #36]	; 0x24
48013ea4:	e1a02c03 	lsl	r2, r3, #24
48013ea8:	e51b3010 	ldr	r3, [fp, #-16]
48013eac:	e5933024 	ldr	r3, [r3, #36]	; 0x24
48013eb0:	e2033cff 	and	r3, r3, #65280	; 0xff00
48013eb4:	e1a03403 	lsl	r3, r3, #8
48013eb8:	e1822003 	orr	r2, r2, r3
48013ebc:	e51b3010 	ldr	r3, [fp, #-16]
48013ec0:	e5933024 	ldr	r3, [r3, #36]	; 0x24
48013ec4:	e20338ff 	and	r3, r3, #16711680	; 0xff0000
48013ec8:	e1a03423 	lsr	r3, r3, #8
48013ecc:	e1822003 	orr	r2, r2, r3
48013ed0:	e51b3010 	ldr	r3, [fp, #-16]
48013ed4:	e5933024 	ldr	r3, [r3, #36]	; 0x24
48013ed8:	e1a03c23 	lsr	r3, r3, #24
48013edc:	e1823003 	orr	r3, r2, r3
48013ee0:	e50b3008 	str	r3, [fp, #-8]
48013ee4:	e51b3010 	ldr	r3, [fp, #-16]
48013ee8:	e5933004 	ldr	r3, [r3, #4]
48013eec:	e1a02c03 	lsl	r2, r3, #24
48013ef0:	e51b3010 	ldr	r3, [fp, #-16]
48013ef4:	e5933004 	ldr	r3, [r3, #4]
48013ef8:	e2033cff 	and	r3, r3, #65280	; 0xff00
48013efc:	e1a03403 	lsl	r3, r3, #8
48013f00:	e1822003 	orr	r2, r2, r3
48013f04:	e51b3010 	ldr	r3, [fp, #-16]
48013f08:	e5933004 	ldr	r3, [r3, #4]
48013f0c:	e20338ff 	and	r3, r3, #16711680	; 0xff0000
48013f10:	e1a03423 	lsr	r3, r3, #8
48013f14:	e1822003 	orr	r2, r2, r3
48013f18:	e51b3010 	ldr	r3, [fp, #-16]
48013f1c:	e5933004 	ldr	r3, [r3, #4]
48013f20:	e1a03c23 	lsr	r3, r3, #24
48013f24:	e1822003 	orr	r2, r2, r3
48013f28:	e51b3010 	ldr	r3, [fp, #-16]
48013f2c:	e5933008 	ldr	r3, [r3, #8]
48013f30:	e1a01c03 	lsl	r1, r3, #24
48013f34:	e51b3010 	ldr	r3, [fp, #-16]
48013f38:	e5933008 	ldr	r3, [r3, #8]
48013f3c:	e2033cff 	and	r3, r3, #65280	; 0xff00
48013f40:	e1a03403 	lsl	r3, r3, #8
48013f44:	e1811003 	orr	r1, r1, r3
48013f48:	e51b3010 	ldr	r3, [fp, #-16]
48013f4c:	e5933008 	ldr	r3, [r3, #8]
48013f50:	e20338ff 	and	r3, r3, #16711680	; 0xff0000
48013f54:	e1a03423 	lsr	r3, r3, #8
48013f58:	e1811003 	orr	r1, r1, r3
48013f5c:	e51b3010 	ldr	r3, [fp, #-16]
48013f60:	e5933008 	ldr	r3, [r3, #8]
48013f64:	e1a03c23 	lsr	r3, r3, #24
48013f68:	e1813003 	orr	r3, r1, r3
48013f6c:	e0632002 	rsb	r2, r3, r2
48013f70:	e51b3010 	ldr	r3, [fp, #-16]
48013f74:	e5933020 	ldr	r3, [r3, #32]
48013f78:	e1a01c03 	lsl	r1, r3, #24
48013f7c:	e51b3010 	ldr	r3, [fp, #-16]
48013f80:	e5933020 	ldr	r3, [r3, #32]
48013f84:	e2033cff 	and	r3, r3, #65280	; 0xff00
48013f88:	e1a03403 	lsl	r3, r3, #8
48013f8c:	e1811003 	orr	r1, r1, r3
48013f90:	e51b3010 	ldr	r3, [fp, #-16]
48013f94:	e5933020 	ldr	r3, [r3, #32]
48013f98:	e20338ff 	and	r3, r3, #16711680	; 0xff0000
48013f9c:	e1a03423 	lsr	r3, r3, #8
48013fa0:	e1811003 	orr	r1, r1, r3
48013fa4:	e51b3010 	ldr	r3, [fp, #-16]
48013fa8:	e5933020 	ldr	r3, [r3, #32]
48013fac:	e1a03c23 	lsr	r3, r3, #24
48013fb0:	e1813003 	orr	r3, r1, r3
48013fb4:	e0633002 	rsb	r3, r3, r2
48013fb8:	e50b300c 	str	r3, [fp, #-12]
48013fbc:	e51b2008 	ldr	r2, [fp, #-8]
48013fc0:	e51b3014 	ldr	r3, [fp, #-20]
48013fc4:	e0822003 	add	r2, r2, r3
48013fc8:	e51b3008 	ldr	r3, [fp, #-8]
48013fcc:	e1520003 	cmp	r2, r3
48013fd0:	3a000005 	bcc	48013fec <_fdt_grab_space+0x164>
48013fd4:	e51b2008 	ldr	r2, [fp, #-8]
48013fd8:	e51b3014 	ldr	r3, [fp, #-20]
48013fdc:	e0822003 	add	r2, r2, r3
48013fe0:	e51b300c 	ldr	r3, [fp, #-12]
48013fe4:	e1520003 	cmp	r2, r3
48013fe8:	9a000001 	bls	48013ff4 <_fdt_grab_space+0x16c>
48013fec:	e3a03000 	mov	r3, #0
48013ff0:	ea000009 	b	4801401c <_fdt_grab_space+0x194>
48013ff4:	e51b2008 	ldr	r2, [fp, #-8]
48013ff8:	e51b3014 	ldr	r3, [fp, #-20]
48013ffc:	e0823003 	add	r3, r2, r3
48014000:	e51b0010 	ldr	r0, [fp, #-16]
48014004:	e1a01003 	mov	r1, r3
48014008:	ebffff3b 	bl	48013cfc <fdt_set_size_dt_struct>
4801400c:	e51b0010 	ldr	r0, [fp, #-16]
48014010:	e51b1008 	ldr	r1, [fp, #-8]
48014014:	ebffff6f 	bl	48013dd8 <_fdt_offset_ptr_w>
48014018:	e1a03000 	mov	r3, r0
4801401c:	e1a00003 	mov	r0, r3
48014020:	e24bd004 	sub	sp, fp, #4
48014024:	e8bd8800 	pop	{fp, pc}

48014028 <fdt_create>:
48014028:	e92d4800 	push	{fp, lr}
4801402c:	e28db004 	add	fp, sp, #4
48014030:	e24dd010 	sub	sp, sp, #16
48014034:	e50b0010 	str	r0, [fp, #-16]
48014038:	e50b1014 	str	r1, [fp, #-20]
4801403c:	e51b3010 	ldr	r3, [fp, #-16]
48014040:	e50b3008 	str	r3, [fp, #-8]
48014044:	e51b3014 	ldr	r3, [fp, #-20]
48014048:	e3530027 	cmp	r3, #39	; 0x27
4801404c:	8a000001 	bhi	48014058 <fdt_create+0x30>
48014050:	e3e03002 	mvn	r3, #2
48014054:	ea00002e 	b	48014114 <fdt_create+0xec>
48014058:	e51b3014 	ldr	r3, [fp, #-20]
4801405c:	e51b0010 	ldr	r0, [fp, #-16]
48014060:	e3a01000 	mov	r1, #0
48014064:	e1a02003 	mov	r2, r3
48014068:	ebffda8e 	bl	4800aaa8 <arm_memset>
4801406c:	e51b0008 	ldr	r0, [fp, #-8]
48014070:	e3001112 	movw	r1, #274	; 0x112
48014074:	e3421ff2 	movt	r1, #12274	; 0x2ff2
48014078:	ebfffe57 	bl	480139dc <fdt_set_magic>
4801407c:	e51b0008 	ldr	r0, [fp, #-8]
48014080:	e3a01011 	mov	r1, #17
48014084:	ebfffed1 	bl	48013bd0 <fdt_set_version>
48014088:	e51b0008 	ldr	r0, [fp, #-8]
4801408c:	e3a01010 	mov	r1, #16
48014090:	ebfffee7 	bl	48013c34 <fdt_set_last_comp_version>
48014094:	e51b3014 	ldr	r3, [fp, #-20]
48014098:	e51b0008 	ldr	r0, [fp, #-8]
4801409c:	e1a01003 	mov	r1, r3
480140a0:	ebfffe66 	bl	48013a40 <fdt_set_totalsize>
480140a4:	e51b0008 	ldr	r0, [fp, #-8]
480140a8:	e3a01030 	mov	r1, #48	; 0x30
480140ac:	ebfffeae 	bl	48013b6c <fdt_set_off_mem_rsvmap>
480140b0:	e51b3008 	ldr	r3, [fp, #-8]
480140b4:	e5933010 	ldr	r3, [r3, #16]
480140b8:	e1a02c03 	lsl	r2, r3, #24
480140bc:	e51b3008 	ldr	r3, [fp, #-8]
480140c0:	e5933010 	ldr	r3, [r3, #16]
480140c4:	e2033cff 	and	r3, r3, #65280	; 0xff00
480140c8:	e1a03403 	lsl	r3, r3, #8
480140cc:	e1822003 	orr	r2, r2, r3
480140d0:	e51b3008 	ldr	r3, [fp, #-8]
480140d4:	e5933010 	ldr	r3, [r3, #16]
480140d8:	e20338ff 	and	r3, r3, #16711680	; 0xff0000
480140dc:	e1a03423 	lsr	r3, r3, #8
480140e0:	e1822003 	orr	r2, r2, r3
480140e4:	e51b3008 	ldr	r3, [fp, #-8]
480140e8:	e5933010 	ldr	r3, [r3, #16]
480140ec:	e1a03c23 	lsr	r3, r3, #24
480140f0:	e1823003 	orr	r3, r2, r3
480140f4:	e51b0008 	ldr	r0, [fp, #-8]
480140f8:	e1a01003 	mov	r1, r3
480140fc:	ebfffe68 	bl	48013aa4 <fdt_set_off_dt_struct>
48014100:	e51b3014 	ldr	r3, [fp, #-20]
48014104:	e51b0008 	ldr	r0, [fp, #-8]
48014108:	e1a01003 	mov	r1, r3
4801410c:	ebfffe7d 	bl	48013b08 <fdt_set_off_dt_strings>
48014110:	e3a03000 	mov	r3, #0
48014114:	e1a00003 	mov	r0, r3
48014118:	e24bd004 	sub	sp, fp, #4
4801411c:	e8bd8800 	pop	{fp, pc}

48014120 <fdt_add_reservemap_entry>:
48014120:	e92d4bf0 	push	{r4, r5, r6, r7, r8, r9, fp, lr}
48014124:	e28db01c 	add	fp, sp, #28
48014128:	e24dd088 	sub	sp, sp, #136	; 0x88
4801412c:	e50b0030 	str	r0, [fp, #-48]	; 0x30
48014130:	e14b23fc 	strd	r2, [fp, #-60]	; 0xffffffc4
48014134:	e51b0030 	ldr	r0, [fp, #-48]	; 0x30
48014138:	ebffff32 	bl	48013e08 <_fdt_sw_check_header>
4801413c:	e50b0020 	str	r0, [fp, #-32]
48014140:	e51b3020 	ldr	r3, [fp, #-32]
48014144:	e3530000 	cmp	r3, #0
48014148:	0a000001 	beq	48014154 <fdt_add_reservemap_entry+0x34>
4801414c:	e51b3020 	ldr	r3, [fp, #-32]
48014150:	ea000102 	b	48014560 <fdt_add_reservemap_entry+0x440>
48014154:	e51b3030 	ldr	r3, [fp, #-48]	; 0x30
48014158:	e5933024 	ldr	r3, [r3, #36]	; 0x24
4801415c:	e1a02c03 	lsl	r2, r3, #24
48014160:	e51b3030 	ldr	r3, [fp, #-48]	; 0x30
48014164:	e5933024 	ldr	r3, [r3, #36]	; 0x24
48014168:	e2033cff 	and	r3, r3, #65280	; 0xff00
4801416c:	e1a03403 	lsl	r3, r3, #8
48014170:	e1822003 	orr	r2, r2, r3
48014174:	e51b3030 	ldr	r3, [fp, #-48]	; 0x30
48014178:	e5933024 	ldr	r3, [r3, #36]	; 0x24
4801417c:	e20338ff 	and	r3, r3, #16711680	; 0xff0000
48014180:	e1a03423 	lsr	r3, r3, #8
48014184:	e1822003 	orr	r2, r2, r3
48014188:	e51b3030 	ldr	r3, [fp, #-48]	; 0x30
4801418c:	e5933024 	ldr	r3, [r3, #36]	; 0x24
48014190:	e1a03c23 	lsr	r3, r3, #24
48014194:	e1823003 	orr	r3, r2, r3
48014198:	e3530000 	cmp	r3, #0
4801419c:	0a000001 	beq	480141a8 <fdt_add_reservemap_entry+0x88>
480141a0:	e3e03006 	mvn	r3, #6
480141a4:	ea0000ed 	b	48014560 <fdt_add_reservemap_entry+0x440>
480141a8:	e51b3030 	ldr	r3, [fp, #-48]	; 0x30
480141ac:	e5933008 	ldr	r3, [r3, #8]
480141b0:	e1a02c03 	lsl	r2, r3, #24
480141b4:	e51b3030 	ldr	r3, [fp, #-48]	; 0x30
480141b8:	e5933008 	ldr	r3, [r3, #8]
480141bc:	e2033cff 	and	r3, r3, #65280	; 0xff00
480141c0:	e1a03403 	lsl	r3, r3, #8
480141c4:	e1822003 	orr	r2, r2, r3
480141c8:	e51b3030 	ldr	r3, [fp, #-48]	; 0x30
480141cc:	e5933008 	ldr	r3, [r3, #8]
480141d0:	e20338ff 	and	r3, r3, #16711680	; 0xff0000
480141d4:	e1a03423 	lsr	r3, r3, #8
480141d8:	e1822003 	orr	r2, r2, r3
480141dc:	e51b3030 	ldr	r3, [fp, #-48]	; 0x30
480141e0:	e5933008 	ldr	r3, [r3, #8]
480141e4:	e1a03c23 	lsr	r3, r3, #24
480141e8:	e1823003 	orr	r3, r2, r3
480141ec:	e50b3024 	str	r3, [fp, #-36]	; 0x24
480141f0:	e51b3024 	ldr	r3, [fp, #-36]	; 0x24
480141f4:	e2831010 	add	r1, r3, #16
480141f8:	e51b3030 	ldr	r3, [fp, #-48]	; 0x30
480141fc:	e5933004 	ldr	r3, [r3, #4]
48014200:	e1a02c03 	lsl	r2, r3, #24
48014204:	e51b3030 	ldr	r3, [fp, #-48]	; 0x30
48014208:	e5933004 	ldr	r3, [r3, #4]
4801420c:	e2033cff 	and	r3, r3, #65280	; 0xff00
48014210:	e1a03403 	lsl	r3, r3, #8
48014214:	e1822003 	orr	r2, r2, r3
48014218:	e51b3030 	ldr	r3, [fp, #-48]	; 0x30
4801421c:	e5933004 	ldr	r3, [r3, #4]
48014220:	e20338ff 	and	r3, r3, #16711680	; 0xff0000
48014224:	e1a03423 	lsr	r3, r3, #8
48014228:	e1822003 	orr	r2, r2, r3
4801422c:	e51b3030 	ldr	r3, [fp, #-48]	; 0x30
48014230:	e5933004 	ldr	r3, [r3, #4]
48014234:	e1a03c23 	lsr	r3, r3, #24
48014238:	e1823003 	orr	r3, r2, r3
4801423c:	e1510003 	cmp	r1, r3
48014240:	9a000001 	bls	4801424c <fdt_add_reservemap_entry+0x12c>
48014244:	e3e03002 	mvn	r3, #2
48014248:	ea0000c4 	b	48014560 <fdt_add_reservemap_entry+0x440>
4801424c:	e51b2024 	ldr	r2, [fp, #-36]	; 0x24
48014250:	e51b3030 	ldr	r3, [fp, #-48]	; 0x30
48014254:	e0833002 	add	r3, r3, r2
48014258:	e50b3028 	str	r3, [fp, #-40]	; 0x28
4801425c:	e14b23dc 	ldrd	r2, [fp, #-60]	; 0xffffffc4
48014260:	e1a00c02 	lsl	r0, r2, #24
48014264:	e50b0040 	str	r0, [fp, #-64]	; 0x40
48014268:	e3a01000 	mov	r1, #0
4801426c:	e50b1044 	str	r1, [fp, #-68]	; 0x44
48014270:	e14b03dc 	ldrd	r0, [fp, #-60]	; 0xffffffc4
48014274:	e3a02cff 	mov	r2, #65280	; 0xff00
48014278:	e3a03000 	mov	r3, #0
4801427c:	e0022000 	and	r2, r2, r0
48014280:	e0033001 	and	r3, r3, r1
48014284:	e1a05402 	lsl	r5, r2, #8
48014288:	e3a04000 	mov	r4, #0
4801428c:	e14b24d4 	ldrd	r2, [fp, #-68]	; 0xffffffbc
48014290:	e1844002 	orr	r4, r4, r2
48014294:	e1855003 	orr	r5, r5, r3
48014298:	e14b03dc 	ldrd	r0, [fp, #-60]	; 0xffffffc4
4801429c:	e3a028ff 	mov	r2, #16711680	; 0xff0000
480142a0:	e3a03000 	mov	r3, #0
480142a4:	e0022000 	and	r2, r2, r0
480142a8:	e0033001 	and	r3, r3, r1
480142ac:	e1a07c03 	lsl	r7, r3, #24
480142b0:	e1877422 	orr	r7, r7, r2, lsr #8
480142b4:	e1a06c02 	lsl	r6, r2, #24
480142b8:	e1844006 	orr	r4, r4, r6
480142bc:	e1855007 	orr	r5, r5, r7
480142c0:	e14b03dc 	ldrd	r0, [fp, #-60]	; 0xffffffc4
480142c4:	e3a024ff 	mov	r2, #-16777216	; 0xff000000
480142c8:	e3a03000 	mov	r3, #0
480142cc:	e0022000 	and	r2, r2, r0
480142d0:	e0033001 	and	r3, r3, r1
480142d4:	e1a09403 	lsl	r9, r3, #8
480142d8:	e1899c22 	orr	r9, r9, r2, lsr #24
480142dc:	e1a08402 	lsl	r8, r2, #8
480142e0:	e1844008 	orr	r4, r4, r8
480142e4:	e1855009 	orr	r5, r5, r9
480142e8:	e14b03dc 	ldrd	r0, [fp, #-60]	; 0xffffffc4
480142ec:	e3a02000 	mov	r2, #0
480142f0:	e3a030ff 	mov	r3, #255	; 0xff
480142f4:	e0022000 	and	r2, r2, r0
480142f8:	e0033001 	and	r3, r3, r1
480142fc:	e1a0c422 	lsr	ip, r2, #8
48014300:	e50bc04c 	str	ip, [fp, #-76]	; 0x4c
48014304:	e51b004c 	ldr	r0, [fp, #-76]	; 0x4c
48014308:	e1800c03 	orr	r0, r0, r3, lsl #24
4801430c:	e50b004c 	str	r0, [fp, #-76]	; 0x4c
48014310:	e1a01423 	lsr	r1, r3, #8
48014314:	e50b1048 	str	r1, [fp, #-72]	; 0x48
48014318:	e14b24dc 	ldrd	r2, [fp, #-76]	; 0xffffffb4
4801431c:	e1844002 	orr	r4, r4, r2
48014320:	e1855003 	orr	r5, r5, r3
48014324:	e14b03dc 	ldrd	r0, [fp, #-60]	; 0xffffffc4
48014328:	e3a02000 	mov	r2, #0
4801432c:	e3a03cff 	mov	r3, #65280	; 0xff00
48014330:	e0022000 	and	r2, r2, r0
48014334:	e0033001 	and	r3, r3, r1
48014338:	e1a0cc22 	lsr	ip, r2, #24
4801433c:	e50bc054 	str	ip, [fp, #-84]	; 0x54
48014340:	e51b0054 	ldr	r0, [fp, #-84]	; 0x54
48014344:	e1800403 	orr	r0, r0, r3, lsl #8
48014348:	e50b0054 	str	r0, [fp, #-84]	; 0x54
4801434c:	e1a01c23 	lsr	r1, r3, #24
48014350:	e50b1050 	str	r1, [fp, #-80]	; 0x50
48014354:	e14b25d4 	ldrd	r2, [fp, #-84]	; 0xffffffac
48014358:	e1844002 	orr	r4, r4, r2
4801435c:	e1855003 	orr	r5, r5, r3
48014360:	e14b03dc 	ldrd	r0, [fp, #-60]	; 0xffffffc4
48014364:	e3a02000 	mov	r2, #0
48014368:	e3a038ff 	mov	r3, #16711680	; 0xff0000
4801436c:	e0022000 	and	r2, r2, r0
48014370:	e0033001 	and	r3, r3, r1
48014374:	e1a0c423 	lsr	ip, r3, #8
48014378:	e50bc05c 	str	ip, [fp, #-92]	; 0x5c
4801437c:	e3a00000 	mov	r0, #0
48014380:	e50b0058 	str	r0, [fp, #-88]	; 0x58
48014384:	e14b05dc 	ldrd	r0, [fp, #-92]	; 0xffffffa4
48014388:	e1800004 	orr	r0, r0, r4
4801438c:	e1811005 	orr	r1, r1, r5
48014390:	e14b23dc 	ldrd	r2, [fp, #-60]	; 0xffffffc4
48014394:	e1a0cc23 	lsr	ip, r3, #24
48014398:	e50bc064 	str	ip, [fp, #-100]	; 0x64
4801439c:	e3a02000 	mov	r2, #0
480143a0:	e50b2060 	str	r2, [fp, #-96]	; 0x60
480143a4:	e14b26d4 	ldrd	r2, [fp, #-100]	; 0xffffff9c
480143a8:	e1800002 	orr	r0, r0, r2
480143ac:	e1811003 	orr	r1, r1, r3
480143b0:	e51b3028 	ldr	r3, [fp, #-40]	; 0x28
480143b4:	e1c300f0 	strd	r0, [r3]
480143b8:	e1cb20d4 	ldrd	r2, [fp, #4]
480143bc:	e1a0cc02 	lsl	ip, r2, #24
480143c0:	e50bc068 	str	ip, [fp, #-104]	; 0x68
480143c4:	e3a00000 	mov	r0, #0
480143c8:	e50b006c 	str	r0, [fp, #-108]	; 0x6c
480143cc:	e1cb00d4 	ldrd	r0, [fp, #4]
480143d0:	e3a02cff 	mov	r2, #65280	; 0xff00
480143d4:	e3a03000 	mov	r3, #0
480143d8:	e0022000 	and	r2, r2, r0
480143dc:	e0033001 	and	r3, r3, r1
480143e0:	e1a01402 	lsl	r1, r2, #8
480143e4:	e50b1070 	str	r1, [fp, #-112]	; 0x70
480143e8:	e3a02000 	mov	r2, #0
480143ec:	e50b2074 	str	r2, [fp, #-116]	; 0x74
480143f0:	e14b46dc 	ldrd	r4, [fp, #-108]	; 0xffffff94
480143f4:	e14b07d4 	ldrd	r0, [fp, #-116]	; 0xffffff8c
480143f8:	e1844000 	orr	r4, r4, r0
480143fc:	e1855001 	orr	r5, r5, r1
48014400:	e1cb00d4 	ldrd	r0, [fp, #4]
48014404:	e3a028ff 	mov	r2, #16711680	; 0xff0000
48014408:	e3a03000 	mov	r3, #0
4801440c:	e0022000 	and	r2, r2, r0
48014410:	e0033001 	and	r3, r3, r1
48014414:	e1a01c03 	lsl	r1, r3, #24
48014418:	e50b1078 	str	r1, [fp, #-120]	; 0x78
4801441c:	e51bc078 	ldr	ip, [fp, #-120]	; 0x78
48014420:	e18cc422 	orr	ip, ip, r2, lsr #8
48014424:	e50bc078 	str	ip, [fp, #-120]	; 0x78
48014428:	e1a00c02 	lsl	r0, r2, #24
4801442c:	e50b007c 	str	r0, [fp, #-124]	; 0x7c
48014430:	e14b27dc 	ldrd	r2, [fp, #-124]	; 0xffffff84
48014434:	e1844002 	orr	r4, r4, r2
48014438:	e1855003 	orr	r5, r5, r3
4801443c:	e1cb00d4 	ldrd	r0, [fp, #4]
48014440:	e3a024ff 	mov	r2, #-16777216	; 0xff000000
48014444:	e3a03000 	mov	r3, #0
48014448:	e0022000 	and	r2, r2, r0
4801444c:	e0033001 	and	r3, r3, r1
48014450:	e1a0c403 	lsl	ip, r3, #8
48014454:	e50bc080 	str	ip, [fp, #-128]	; 0x80
48014458:	e51b0080 	ldr	r0, [fp, #-128]	; 0x80
4801445c:	e1800c22 	orr	r0, r0, r2, lsr #24
48014460:	e50b0080 	str	r0, [fp, #-128]	; 0x80
48014464:	e1a01402 	lsl	r1, r2, #8
48014468:	e50b1084 	str	r1, [fp, #-132]	; 0x84
4801446c:	e14b08d4 	ldrd	r0, [fp, #-132]	; 0xffffff7c
48014470:	e1800004 	orr	r0, r0, r4
48014474:	e1811005 	orr	r1, r1, r5
48014478:	e1cb40d4 	ldrd	r4, [fp, #4]
4801447c:	e3a02000 	mov	r2, #0
48014480:	e3a030ff 	mov	r3, #255	; 0xff
48014484:	e0022004 	and	r2, r2, r4
48014488:	e0033005 	and	r3, r3, r5
4801448c:	e1a0c422 	lsr	ip, r2, #8
48014490:	e50bc08c 	str	ip, [fp, #-140]	; 0x8c
48014494:	e51bc08c 	ldr	ip, [fp, #-140]	; 0x8c
48014498:	e18ccc03 	orr	ip, ip, r3, lsl #24
4801449c:	e50bc08c 	str	ip, [fp, #-140]	; 0x8c
480144a0:	e1a0c423 	lsr	ip, r3, #8
480144a4:	e50bc088 	str	ip, [fp, #-136]	; 0x88
480144a8:	e14b28dc 	ldrd	r2, [fp, #-140]	; 0xffffff74
480144ac:	e1800002 	orr	r0, r0, r2
480144b0:	e1811003 	orr	r1, r1, r3
480144b4:	e1cb40d4 	ldrd	r4, [fp, #4]
480144b8:	e3a02000 	mov	r2, #0
480144bc:	e3a03cff 	mov	r3, #65280	; 0xff00
480144c0:	e0022004 	and	r2, r2, r4
480144c4:	e0033005 	and	r3, r3, r5
480144c8:	e1a0cc22 	lsr	ip, r2, #24
480144cc:	e50bc094 	str	ip, [fp, #-148]	; 0x94
480144d0:	e51bc094 	ldr	ip, [fp, #-148]	; 0x94
480144d4:	e18cc403 	orr	ip, ip, r3, lsl #8
480144d8:	e50bc094 	str	ip, [fp, #-148]	; 0x94
480144dc:	e1a0cc23 	lsr	ip, r3, #24
480144e0:	e50bc090 	str	ip, [fp, #-144]	; 0x90
480144e4:	e14b29d4 	ldrd	r2, [fp, #-148]	; 0xffffff6c
480144e8:	e1822000 	orr	r2, r2, r0
480144ec:	e1833001 	orr	r3, r3, r1
480144f0:	e1cb40d4 	ldrd	r4, [fp, #4]
480144f4:	e3a00000 	mov	r0, #0
480144f8:	e3a018ff 	mov	r1, #16711680	; 0xff0000
480144fc:	e0000004 	and	r0, r0, r4
48014500:	e0011005 	and	r1, r1, r5
48014504:	e1a0c421 	lsr	ip, r1, #8
48014508:	e50bc09c 	str	ip, [fp, #-156]	; 0x9c
4801450c:	e3a00000 	mov	r0, #0
48014510:	e50b0098 	str	r0, [fp, #-152]	; 0x98
48014514:	e14b09dc 	ldrd	r0, [fp, #-156]	; 0xffffff64
48014518:	e1822000 	orr	r2, r2, r0
4801451c:	e1833001 	orr	r3, r3, r1
48014520:	e1cb00d4 	ldrd	r0, [fp, #4]
48014524:	e1a0cc21 	lsr	ip, r1, #24
48014528:	e50bc0a4 	str	ip, [fp, #-164]	; 0xa4
4801452c:	e3a00000 	mov	r0, #0
48014530:	e50b00a0 	str	r0, [fp, #-160]	; 0xa0
48014534:	e14b0ad4 	ldrd	r0, [fp, #-164]	; 0xffffff5c
48014538:	e1822000 	orr	r2, r2, r0
4801453c:	e1833001 	orr	r3, r3, r1
48014540:	e51b1028 	ldr	r1, [fp, #-40]	; 0x28
48014544:	e1c120f8 	strd	r2, [r1, #8]
48014548:	e51b3024 	ldr	r3, [fp, #-36]	; 0x24
4801454c:	e2833010 	add	r3, r3, #16
48014550:	e51b0030 	ldr	r0, [fp, #-48]	; 0x30
48014554:	e1a01003 	mov	r1, r3
48014558:	ebfffd51 	bl	48013aa4 <fdt_set_off_dt_struct>
4801455c:	e3a03000 	mov	r3, #0
48014560:	e1a00003 	mov	r0, r3
48014564:	e24bd01c 	sub	sp, fp, #28
48014568:	e8bd8bf0 	pop	{r4, r5, r6, r7, r8, r9, fp, pc}

4801456c <fdt_finish_reservemap>:
4801456c:	e92d4800 	push	{fp, lr}
48014570:	e28db004 	add	fp, sp, #4
48014574:	e24dd010 	sub	sp, sp, #16
48014578:	e50b0008 	str	r0, [fp, #-8]
4801457c:	e3a02000 	mov	r2, #0
48014580:	e3a03000 	mov	r3, #0
48014584:	e1cd20f0 	strd	r2, [sp]
48014588:	e51b0008 	ldr	r0, [fp, #-8]
4801458c:	e3a02000 	mov	r2, #0
48014590:	e3a03000 	mov	r3, #0
48014594:	ebfffee1 	bl	48014120 <fdt_add_reservemap_entry>
48014598:	e1a03000 	mov	r3, r0
4801459c:	e1a00003 	mov	r0, r3
480145a0:	e24bd004 	sub	sp, fp, #4
480145a4:	e8bd8800 	pop	{fp, pc}

480145a8 <fdt_begin_node>:
480145a8:	e92d4800 	push	{fp, lr}
480145ac:	e28db004 	add	fp, sp, #4
480145b0:	e24dd018 	sub	sp, sp, #24
480145b4:	e50b0018 	str	r0, [fp, #-24]
480145b8:	e50b101c 	str	r1, [fp, #-28]
480145bc:	e51b001c 	ldr	r0, [fp, #-28]
480145c0:	ebffd9cb 	bl	4800acf4 <arm_strlen>
480145c4:	e1a03000 	mov	r3, r0
480145c8:	e2833001 	add	r3, r3, #1
480145cc:	e50b3008 	str	r3, [fp, #-8]
480145d0:	e51b0018 	ldr	r0, [fp, #-24]
480145d4:	ebfffe0b 	bl	48013e08 <_fdt_sw_check_header>
480145d8:	e50b000c 	str	r0, [fp, #-12]
480145dc:	e51b300c 	ldr	r3, [fp, #-12]
480145e0:	e3530000 	cmp	r3, #0
480145e4:	0a000001 	beq	480145f0 <fdt_begin_node+0x48>
480145e8:	e51b300c 	ldr	r3, [fp, #-12]
480145ec:	ea000017 	b	48014650 <fdt_begin_node+0xa8>
480145f0:	e51b3008 	ldr	r3, [fp, #-8]
480145f4:	e2833003 	add	r3, r3, #3
480145f8:	e3c33003 	bic	r3, r3, #3
480145fc:	e2833004 	add	r3, r3, #4
48014600:	e51b0018 	ldr	r0, [fp, #-24]
48014604:	e1a01003 	mov	r1, r3
48014608:	ebfffe1e 	bl	48013e88 <_fdt_grab_space>
4801460c:	e50b0010 	str	r0, [fp, #-16]
48014610:	e51b3010 	ldr	r3, [fp, #-16]
48014614:	e3530000 	cmp	r3, #0
48014618:	1a000001 	bne	48014624 <fdt_begin_node+0x7c>
4801461c:	e3e03002 	mvn	r3, #2
48014620:	ea00000a 	b	48014650 <fdt_begin_node+0xa8>
48014624:	e51b3010 	ldr	r3, [fp, #-16]
48014628:	e3a02401 	mov	r2, #16777216	; 0x1000000
4801462c:	e5832000 	str	r2, [r3]
48014630:	e51b3010 	ldr	r3, [fp, #-16]
48014634:	e2832004 	add	r2, r3, #4
48014638:	e51b3008 	ldr	r3, [fp, #-8]
4801463c:	e1a00002 	mov	r0, r2
48014640:	e51b101c 	ldr	r1, [fp, #-28]
48014644:	e1a02003 	mov	r2, r3
48014648:	ebffd873 	bl	4800a81c <arm_memcpy>
4801464c:	e3a03000 	mov	r3, #0
48014650:	e1a00003 	mov	r0, r3
48014654:	e24bd004 	sub	sp, fp, #4
48014658:	e8bd8800 	pop	{fp, pc}

4801465c <fdt_end_node>:
4801465c:	e92d4800 	push	{fp, lr}
48014660:	e28db004 	add	fp, sp, #4
48014664:	e24dd010 	sub	sp, sp, #16
48014668:	e50b0010 	str	r0, [fp, #-16]
4801466c:	e51b0010 	ldr	r0, [fp, #-16]
48014670:	ebfffde4 	bl	48013e08 <_fdt_sw_check_header>
48014674:	e50b0008 	str	r0, [fp, #-8]
48014678:	e51b3008 	ldr	r3, [fp, #-8]
4801467c:	e3530000 	cmp	r3, #0
48014680:	0a000001 	beq	4801468c <fdt_end_node+0x30>
48014684:	e51b3008 	ldr	r3, [fp, #-8]
48014688:	ea00000c 	b	480146c0 <fdt_end_node+0x64>
4801468c:	e51b0010 	ldr	r0, [fp, #-16]
48014690:	e3a01004 	mov	r1, #4
48014694:	ebfffdfb 	bl	48013e88 <_fdt_grab_space>
48014698:	e50b000c 	str	r0, [fp, #-12]
4801469c:	e51b300c 	ldr	r3, [fp, #-12]
480146a0:	e3530000 	cmp	r3, #0
480146a4:	1a000001 	bne	480146b0 <fdt_end_node+0x54>
480146a8:	e3e03002 	mvn	r3, #2
480146ac:	ea000003 	b	480146c0 <fdt_end_node+0x64>
480146b0:	e51b300c 	ldr	r3, [fp, #-12]
480146b4:	e3a02402 	mov	r2, #33554432	; 0x2000000
480146b8:	e5832000 	str	r2, [r3]
480146bc:	e3a03000 	mov	r3, #0
480146c0:	e1a00003 	mov	r0, r3
480146c4:	e24bd004 	sub	sp, fp, #4
480146c8:	e8bd8800 	pop	{fp, pc}

480146cc <_fdt_find_add_string>:
480146cc:	e92d4800 	push	{fp, lr}
480146d0:	e28db004 	add	fp, sp, #4
480146d4:	e24dd020 	sub	sp, sp, #32
480146d8:	e50b0020 	str	r0, [fp, #-32]
480146dc:	e50b1024 	str	r1, [fp, #-36]	; 0x24
480146e0:	e51b3020 	ldr	r3, [fp, #-32]
480146e4:	e5933004 	ldr	r3, [r3, #4]
480146e8:	e1a02c03 	lsl	r2, r3, #24
480146ec:	e51b3020 	ldr	r3, [fp, #-32]
480146f0:	e5933004 	ldr	r3, [r3, #4]
480146f4:	e2033cff 	and	r3, r3, #65280	; 0xff00
480146f8:	e1a03403 	lsl	r3, r3, #8
480146fc:	e1822003 	orr	r2, r2, r3
48014700:	e51b3020 	ldr	r3, [fp, #-32]
48014704:	e5933004 	ldr	r3, [r3, #4]
48014708:	e20338ff 	and	r3, r3, #16711680	; 0xff0000
4801470c:	e1a03423 	lsr	r3, r3, #8
48014710:	e1822003 	orr	r2, r2, r3
48014714:	e51b3020 	ldr	r3, [fp, #-32]
48014718:	e5933004 	ldr	r3, [r3, #4]
4801471c:	e1a03c23 	lsr	r3, r3, #24
48014720:	e1823003 	orr	r3, r2, r3
48014724:	e51b2020 	ldr	r2, [fp, #-32]
48014728:	e0823003 	add	r3, r2, r3
4801472c:	e50b3008 	str	r3, [fp, #-8]
48014730:	e51b3020 	ldr	r3, [fp, #-32]
48014734:	e5933020 	ldr	r3, [r3, #32]
48014738:	e1a02c03 	lsl	r2, r3, #24
4801473c:	e51b3020 	ldr	r3, [fp, #-32]
48014740:	e5933020 	ldr	r3, [r3, #32]
48014744:	e2033cff 	and	r3, r3, #65280	; 0xff00
48014748:	e1a03403 	lsl	r3, r3, #8
4801474c:	e1822003 	orr	r2, r2, r3
48014750:	e51b3020 	ldr	r3, [fp, #-32]
48014754:	e5933020 	ldr	r3, [r3, #32]
48014758:	e20338ff 	and	r3, r3, #16711680	; 0xff0000
4801475c:	e1a03423 	lsr	r3, r3, #8
48014760:	e1822003 	orr	r2, r2, r3
48014764:	e51b3020 	ldr	r3, [fp, #-32]
48014768:	e5933020 	ldr	r3, [r3, #32]
4801476c:	e1a03c23 	lsr	r3, r3, #24
48014770:	e1823003 	orr	r3, r2, r3
48014774:	e50b300c 	str	r3, [fp, #-12]
48014778:	e51b0024 	ldr	r0, [fp, #-36]	; 0x24
4801477c:	ebffd95c 	bl	4800acf4 <arm_strlen>
48014780:	e1a03000 	mov	r3, r0
48014784:	e2833001 	add	r3, r3, #1
48014788:	e50b3010 	str	r3, [fp, #-16]
4801478c:	e51b300c 	ldr	r3, [fp, #-12]
48014790:	e2633000 	rsb	r3, r3, #0
48014794:	e51b2008 	ldr	r2, [fp, #-8]
48014798:	e0823003 	add	r3, r2, r3
4801479c:	e1a00003 	mov	r0, r3
480147a0:	e51b100c 	ldr	r1, [fp, #-12]
480147a4:	e51b2024 	ldr	r2, [fp, #-36]	; 0x24
480147a8:	ebffe4a1 	bl	4800da34 <_fdt_find_string>
480147ac:	e50b0014 	str	r0, [fp, #-20]
480147b0:	e51b3014 	ldr	r3, [fp, #-20]
480147b4:	e3530000 	cmp	r3, #0
480147b8:	0a000003 	beq	480147cc <_fdt_find_add_string+0x100>
480147bc:	e51b2014 	ldr	r2, [fp, #-20]
480147c0:	e51b3008 	ldr	r3, [fp, #-8]
480147c4:	e0633002 	rsb	r3, r3, r2
480147c8:	ea00004f 	b	4801490c <_fdt_find_add_string+0x240>
480147cc:	e51b300c 	ldr	r3, [fp, #-12]
480147d0:	e2632000 	rsb	r2, r3, #0
480147d4:	e51b3010 	ldr	r3, [fp, #-16]
480147d8:	e0633002 	rsb	r3, r3, r2
480147dc:	e50b3018 	str	r3, [fp, #-24]
480147e0:	e51b3020 	ldr	r3, [fp, #-32]
480147e4:	e5933008 	ldr	r3, [r3, #8]
480147e8:	e1a02c03 	lsl	r2, r3, #24
480147ec:	e51b3020 	ldr	r3, [fp, #-32]
480147f0:	e5933008 	ldr	r3, [r3, #8]
480147f4:	e2033cff 	and	r3, r3, #65280	; 0xff00
480147f8:	e1a03403 	lsl	r3, r3, #8
480147fc:	e1822003 	orr	r2, r2, r3
48014800:	e51b3020 	ldr	r3, [fp, #-32]
48014804:	e5933008 	ldr	r3, [r3, #8]
48014808:	e20338ff 	and	r3, r3, #16711680	; 0xff0000
4801480c:	e1a03423 	lsr	r3, r3, #8
48014810:	e1822003 	orr	r2, r2, r3
48014814:	e51b3020 	ldr	r3, [fp, #-32]
48014818:	e5933008 	ldr	r3, [r3, #8]
4801481c:	e1a03c23 	lsr	r3, r3, #24
48014820:	e1822003 	orr	r2, r2, r3
48014824:	e51b3020 	ldr	r3, [fp, #-32]
48014828:	e5933024 	ldr	r3, [r3, #36]	; 0x24
4801482c:	e1a01c03 	lsl	r1, r3, #24
48014830:	e51b3020 	ldr	r3, [fp, #-32]
48014834:	e5933024 	ldr	r3, [r3, #36]	; 0x24
48014838:	e2033cff 	and	r3, r3, #65280	; 0xff00
4801483c:	e1a03403 	lsl	r3, r3, #8
48014840:	e1811003 	orr	r1, r1, r3
48014844:	e51b3020 	ldr	r3, [fp, #-32]
48014848:	e5933024 	ldr	r3, [r3, #36]	; 0x24
4801484c:	e20338ff 	and	r3, r3, #16711680	; 0xff0000
48014850:	e1a03423 	lsr	r3, r3, #8
48014854:	e1811003 	orr	r1, r1, r3
48014858:	e51b3020 	ldr	r3, [fp, #-32]
4801485c:	e5933024 	ldr	r3, [r3, #36]	; 0x24
48014860:	e1a03c23 	lsr	r3, r3, #24
48014864:	e1813003 	orr	r3, r1, r3
48014868:	e0823003 	add	r3, r2, r3
4801486c:	e50b301c 	str	r3, [fp, #-28]
48014870:	e51b3020 	ldr	r3, [fp, #-32]
48014874:	e5933004 	ldr	r3, [r3, #4]
48014878:	e1a02c03 	lsl	r2, r3, #24
4801487c:	e51b3020 	ldr	r3, [fp, #-32]
48014880:	e5933004 	ldr	r3, [r3, #4]
48014884:	e2033cff 	and	r3, r3, #65280	; 0xff00
48014888:	e1a03403 	lsl	r3, r3, #8
4801488c:	e1822003 	orr	r2, r2, r3
48014890:	e51b3020 	ldr	r3, [fp, #-32]
48014894:	e5933004 	ldr	r3, [r3, #4]
48014898:	e20338ff 	and	r3, r3, #16711680	; 0xff0000
4801489c:	e1a03423 	lsr	r3, r3, #8
480148a0:	e1822003 	orr	r2, r2, r3
480148a4:	e51b3020 	ldr	r3, [fp, #-32]
480148a8:	e5933004 	ldr	r3, [r3, #4]
480148ac:	e1a03c23 	lsr	r3, r3, #24
480148b0:	e1822003 	orr	r2, r2, r3
480148b4:	e51b3018 	ldr	r3, [fp, #-24]
480148b8:	e0822003 	add	r2, r2, r3
480148bc:	e51b301c 	ldr	r3, [fp, #-28]
480148c0:	e1520003 	cmp	r2, r3
480148c4:	2a000001 	bcs	480148d0 <_fdt_find_add_string+0x204>
480148c8:	e3a03000 	mov	r3, #0
480148cc:	ea00000e 	b	4801490c <_fdt_find_add_string+0x240>
480148d0:	e51b3018 	ldr	r3, [fp, #-24]
480148d4:	e51b2008 	ldr	r2, [fp, #-8]
480148d8:	e0822003 	add	r2, r2, r3
480148dc:	e51b3010 	ldr	r3, [fp, #-16]
480148e0:	e1a00002 	mov	r0, r2
480148e4:	e51b1024 	ldr	r1, [fp, #-36]	; 0x24
480148e8:	e1a02003 	mov	r2, r3
480148ec:	ebffd7ca 	bl	4800a81c <arm_memcpy>
480148f0:	e51b200c 	ldr	r2, [fp, #-12]
480148f4:	e51b3010 	ldr	r3, [fp, #-16]
480148f8:	e0823003 	add	r3, r2, r3
480148fc:	e51b0020 	ldr	r0, [fp, #-32]
48014900:	e1a01003 	mov	r1, r3
48014904:	ebfffce3 	bl	48013c98 <fdt_set_size_dt_strings>
48014908:	e51b3018 	ldr	r3, [fp, #-24]
4801490c:	e1a00003 	mov	r0, r3
48014910:	e24bd004 	sub	sp, fp, #4
48014914:	e8bd8800 	pop	{fp, pc}

48014918 <fdt_property>:
48014918:	e92d4800 	push	{fp, lr}
4801491c:	e28db004 	add	fp, sp, #4
48014920:	e24dd020 	sub	sp, sp, #32
48014924:	e50b0018 	str	r0, [fp, #-24]
48014928:	e50b101c 	str	r1, [fp, #-28]
4801492c:	e50b2020 	str	r2, [fp, #-32]
48014930:	e50b3024 	str	r3, [fp, #-36]	; 0x24
48014934:	e51b0018 	ldr	r0, [fp, #-24]
48014938:	ebfffd32 	bl	48013e08 <_fdt_sw_check_header>
4801493c:	e50b0008 	str	r0, [fp, #-8]
48014940:	e51b3008 	ldr	r3, [fp, #-8]
48014944:	e3530000 	cmp	r3, #0
48014948:	0a000001 	beq	48014954 <fdt_property+0x3c>
4801494c:	e51b3008 	ldr	r3, [fp, #-8]
48014950:	ea00003e 	b	48014a50 <fdt_property+0x138>
48014954:	e51b0018 	ldr	r0, [fp, #-24]
48014958:	e51b101c 	ldr	r1, [fp, #-28]
4801495c:	ebffff5a 	bl	480146cc <_fdt_find_add_string>
48014960:	e50b000c 	str	r0, [fp, #-12]
48014964:	e51b300c 	ldr	r3, [fp, #-12]
48014968:	e3530000 	cmp	r3, #0
4801496c:	1a000001 	bne	48014978 <fdt_property+0x60>
48014970:	e3e03002 	mvn	r3, #2
48014974:	ea000035 	b	48014a50 <fdt_property+0x138>
48014978:	e51b3024 	ldr	r3, [fp, #-36]	; 0x24
4801497c:	e2833003 	add	r3, r3, #3
48014980:	e3c33003 	bic	r3, r3, #3
48014984:	e283300c 	add	r3, r3, #12
48014988:	e51b0018 	ldr	r0, [fp, #-24]
4801498c:	e1a01003 	mov	r1, r3
48014990:	ebfffd3c 	bl	48013e88 <_fdt_grab_space>
48014994:	e50b0010 	str	r0, [fp, #-16]
48014998:	e51b3010 	ldr	r3, [fp, #-16]
4801499c:	e3530000 	cmp	r3, #0
480149a0:	1a000001 	bne	480149ac <fdt_property+0x94>
480149a4:	e3e03002 	mvn	r3, #2
480149a8:	ea000028 	b	48014a50 <fdt_property+0x138>
480149ac:	e51b3010 	ldr	r3, [fp, #-16]
480149b0:	e3a02403 	mov	r2, #50331648	; 0x3000000
480149b4:	e5832000 	str	r2, [r3]
480149b8:	e51b300c 	ldr	r3, [fp, #-12]
480149bc:	e1a02c03 	lsl	r2, r3, #24
480149c0:	e51b300c 	ldr	r3, [fp, #-12]
480149c4:	e2033cff 	and	r3, r3, #65280	; 0xff00
480149c8:	e1a03403 	lsl	r3, r3, #8
480149cc:	e1822003 	orr	r2, r2, r3
480149d0:	e51b300c 	ldr	r3, [fp, #-12]
480149d4:	e20338ff 	and	r3, r3, #16711680	; 0xff0000
480149d8:	e1a03423 	lsr	r3, r3, #8
480149dc:	e1822003 	orr	r2, r2, r3
480149e0:	e51b300c 	ldr	r3, [fp, #-12]
480149e4:	e1a03c23 	lsr	r3, r3, #24
480149e8:	e1822003 	orr	r2, r2, r3
480149ec:	e51b3010 	ldr	r3, [fp, #-16]
480149f0:	e5832008 	str	r2, [r3, #8]
480149f4:	e51b3024 	ldr	r3, [fp, #-36]	; 0x24
480149f8:	e1a02c03 	lsl	r2, r3, #24
480149fc:	e51b3024 	ldr	r3, [fp, #-36]	; 0x24
48014a00:	e2033cff 	and	r3, r3, #65280	; 0xff00
48014a04:	e1a03403 	lsl	r3, r3, #8
48014a08:	e1822003 	orr	r2, r2, r3
48014a0c:	e51b3024 	ldr	r3, [fp, #-36]	; 0x24
48014a10:	e20338ff 	and	r3, r3, #16711680	; 0xff0000
48014a14:	e1a03423 	lsr	r3, r3, #8
48014a18:	e1822003 	orr	r2, r2, r3
48014a1c:	e51b3024 	ldr	r3, [fp, #-36]	; 0x24
48014a20:	e1a03c23 	lsr	r3, r3, #24
48014a24:	e1822003 	orr	r2, r2, r3
48014a28:	e51b3010 	ldr	r3, [fp, #-16]
48014a2c:	e5832004 	str	r2, [r3, #4]
48014a30:	e51b3010 	ldr	r3, [fp, #-16]
48014a34:	e283200c 	add	r2, r3, #12
48014a38:	e51b3024 	ldr	r3, [fp, #-36]	; 0x24
48014a3c:	e1a00002 	mov	r0, r2
48014a40:	e51b1020 	ldr	r1, [fp, #-32]
48014a44:	e1a02003 	mov	r2, r3
48014a48:	ebffd773 	bl	4800a81c <arm_memcpy>
48014a4c:	e3a03000 	mov	r3, #0
48014a50:	e1a00003 	mov	r0, r3
48014a54:	e24bd004 	sub	sp, fp, #4
48014a58:	e8bd8800 	pop	{fp, pc}

48014a5c <fdt_finish>:
48014a5c:	e92d4800 	push	{fp, lr}
48014a60:	e28db004 	add	fp, sp, #4
48014a64:	e24dd030 	sub	sp, sp, #48	; 0x30
48014a68:	e50b0030 	str	r0, [fp, #-48]	; 0x30
48014a6c:	e51b3030 	ldr	r3, [fp, #-48]	; 0x30
48014a70:	e50b300c 	str	r3, [fp, #-12]
48014a74:	e51b0030 	ldr	r0, [fp, #-48]	; 0x30
48014a78:	ebfffce2 	bl	48013e08 <_fdt_sw_check_header>
48014a7c:	e50b0010 	str	r0, [fp, #-16]
48014a80:	e51b3010 	ldr	r3, [fp, #-16]
48014a84:	e3530000 	cmp	r3, #0
48014a88:	0a000001 	beq	48014a94 <fdt_finish+0x38>
48014a8c:	e51b3010 	ldr	r3, [fp, #-16]
48014a90:	ea0000dc 	b	48014e08 <fdt_finish+0x3ac>
48014a94:	e51b0030 	ldr	r0, [fp, #-48]	; 0x30
48014a98:	e3a01004 	mov	r1, #4
48014a9c:	ebfffcf9 	bl	48013e88 <_fdt_grab_space>
48014aa0:	e50b0014 	str	r0, [fp, #-20]
48014aa4:	e51b3014 	ldr	r3, [fp, #-20]
48014aa8:	e3530000 	cmp	r3, #0
48014aac:	1a000001 	bne	48014ab8 <fdt_finish+0x5c>
48014ab0:	e3e03002 	mvn	r3, #2
48014ab4:	ea0000d3 	b	48014e08 <fdt_finish+0x3ac>
48014ab8:	e51b3014 	ldr	r3, [fp, #-20]
48014abc:	e3a02409 	mov	r2, #150994944	; 0x9000000
48014ac0:	e5832000 	str	r2, [r3]
48014ac4:	e51b3030 	ldr	r3, [fp, #-48]	; 0x30
48014ac8:	e5933004 	ldr	r3, [r3, #4]
48014acc:	e1a02c03 	lsl	r2, r3, #24
48014ad0:	e51b3030 	ldr	r3, [fp, #-48]	; 0x30
48014ad4:	e5933004 	ldr	r3, [r3, #4]
48014ad8:	e2033cff 	and	r3, r3, #65280	; 0xff00
48014adc:	e1a03403 	lsl	r3, r3, #8
48014ae0:	e1822003 	orr	r2, r2, r3
48014ae4:	e51b3030 	ldr	r3, [fp, #-48]	; 0x30
48014ae8:	e5933004 	ldr	r3, [r3, #4]
48014aec:	e20338ff 	and	r3, r3, #16711680	; 0xff0000
48014af0:	e1a03423 	lsr	r3, r3, #8
48014af4:	e1822003 	orr	r2, r2, r3
48014af8:	e51b3030 	ldr	r3, [fp, #-48]	; 0x30
48014afc:	e5933004 	ldr	r3, [r3, #4]
48014b00:	e1a03c23 	lsr	r3, r3, #24
48014b04:	e1822003 	orr	r2, r2, r3
48014b08:	e51b3030 	ldr	r3, [fp, #-48]	; 0x30
48014b0c:	e5933020 	ldr	r3, [r3, #32]
48014b10:	e1a01c03 	lsl	r1, r3, #24
48014b14:	e51b3030 	ldr	r3, [fp, #-48]	; 0x30
48014b18:	e5933020 	ldr	r3, [r3, #32]
48014b1c:	e2033cff 	and	r3, r3, #65280	; 0xff00
48014b20:	e1a03403 	lsl	r3, r3, #8
48014b24:	e1811003 	orr	r1, r1, r3
48014b28:	e51b3030 	ldr	r3, [fp, #-48]	; 0x30
48014b2c:	e5933020 	ldr	r3, [r3, #32]
48014b30:	e20338ff 	and	r3, r3, #16711680	; 0xff0000
48014b34:	e1a03423 	lsr	r3, r3, #8
48014b38:	e1811003 	orr	r1, r1, r3
48014b3c:	e51b3030 	ldr	r3, [fp, #-48]	; 0x30
48014b40:	e5933020 	ldr	r3, [r3, #32]
48014b44:	e1a03c23 	lsr	r3, r3, #24
48014b48:	e1813003 	orr	r3, r1, r3
48014b4c:	e0633002 	rsb	r3, r3, r2
48014b50:	e50b3018 	str	r3, [fp, #-24]
48014b54:	e51b3030 	ldr	r3, [fp, #-48]	; 0x30
48014b58:	e5933008 	ldr	r3, [r3, #8]
48014b5c:	e1a02c03 	lsl	r2, r3, #24
48014b60:	e51b3030 	ldr	r3, [fp, #-48]	; 0x30
48014b64:	e5933008 	ldr	r3, [r3, #8]
48014b68:	e2033cff 	and	r3, r3, #65280	; 0xff00
48014b6c:	e1a03403 	lsl	r3, r3, #8
48014b70:	e1822003 	orr	r2, r2, r3
48014b74:	e51b3030 	ldr	r3, [fp, #-48]	; 0x30
48014b78:	e5933008 	ldr	r3, [r3, #8]
48014b7c:	e20338ff 	and	r3, r3, #16711680	; 0xff0000
48014b80:	e1a03423 	lsr	r3, r3, #8
48014b84:	e1822003 	orr	r2, r2, r3
48014b88:	e51b3030 	ldr	r3, [fp, #-48]	; 0x30
48014b8c:	e5933008 	ldr	r3, [r3, #8]
48014b90:	e1a03c23 	lsr	r3, r3, #24
48014b94:	e1822003 	orr	r2, r2, r3
48014b98:	e51b3030 	ldr	r3, [fp, #-48]	; 0x30
48014b9c:	e5933024 	ldr	r3, [r3, #36]	; 0x24
48014ba0:	e1a01c03 	lsl	r1, r3, #24
48014ba4:	e51b3030 	ldr	r3, [fp, #-48]	; 0x30
48014ba8:	e5933024 	ldr	r3, [r3, #36]	; 0x24
48014bac:	e2033cff 	and	r3, r3, #65280	; 0xff00
48014bb0:	e1a03403 	lsl	r3, r3, #8
48014bb4:	e1811003 	orr	r1, r1, r3
48014bb8:	e51b3030 	ldr	r3, [fp, #-48]	; 0x30
48014bbc:	e5933024 	ldr	r3, [r3, #36]	; 0x24
48014bc0:	e20338ff 	and	r3, r3, #16711680	; 0xff0000
48014bc4:	e1a03423 	lsr	r3, r3, #8
48014bc8:	e1811003 	orr	r1, r1, r3
48014bcc:	e51b3030 	ldr	r3, [fp, #-48]	; 0x30
48014bd0:	e5933024 	ldr	r3, [r3, #36]	; 0x24
48014bd4:	e1a03c23 	lsr	r3, r3, #24
48014bd8:	e1813003 	orr	r3, r1, r3
48014bdc:	e0823003 	add	r3, r2, r3
48014be0:	e50b301c 	str	r3, [fp, #-28]
48014be4:	e51b301c 	ldr	r3, [fp, #-28]
48014be8:	e51b200c 	ldr	r2, [fp, #-12]
48014bec:	e0821003 	add	r1, r2, r3
48014bf0:	e51b3018 	ldr	r3, [fp, #-24]
48014bf4:	e51b200c 	ldr	r2, [fp, #-12]
48014bf8:	e0822003 	add	r2, r2, r3
48014bfc:	e51b3030 	ldr	r3, [fp, #-48]	; 0x30
48014c00:	e5933020 	ldr	r3, [r3, #32]
48014c04:	e1a00c03 	lsl	r0, r3, #24
48014c08:	e51b3030 	ldr	r3, [fp, #-48]	; 0x30
48014c0c:	e5933020 	ldr	r3, [r3, #32]
48014c10:	e2033cff 	and	r3, r3, #65280	; 0xff00
48014c14:	e1a03403 	lsl	r3, r3, #8
48014c18:	e1800003 	orr	r0, r0, r3
48014c1c:	e51b3030 	ldr	r3, [fp, #-48]	; 0x30
48014c20:	e5933020 	ldr	r3, [r3, #32]
48014c24:	e20338ff 	and	r3, r3, #16711680	; 0xff0000
48014c28:	e1a03423 	lsr	r3, r3, #8
48014c2c:	e1800003 	orr	r0, r0, r3
48014c30:	e51b3030 	ldr	r3, [fp, #-48]	; 0x30
48014c34:	e5933020 	ldr	r3, [r3, #32]
48014c38:	e1a03c23 	lsr	r3, r3, #24
48014c3c:	e1803003 	orr	r3, r0, r3
48014c40:	e1a00001 	mov	r0, r1
48014c44:	e1a01002 	mov	r1, r2
48014c48:	e1a02003 	mov	r2, r3
48014c4c:	ebffd727 	bl	4800a8f0 <arm_memmove>
48014c50:	e51b301c 	ldr	r3, [fp, #-28]
48014c54:	e51b0030 	ldr	r0, [fp, #-48]	; 0x30
48014c58:	e1a01003 	mov	r1, r3
48014c5c:	ebfffba9 	bl	48013b08 <fdt_set_off_dt_strings>
48014c60:	e3a03000 	mov	r3, #0
48014c64:	e50b3008 	str	r3, [fp, #-8]
48014c68:	ea00003d 	b	48014d64 <fdt_finish+0x308>
48014c6c:	e51b3020 	ldr	r3, [fp, #-32]
48014c70:	e3530003 	cmp	r3, #3
48014c74:	1a000038 	bne	48014d5c <fdt_finish+0x300>
48014c78:	e51b0030 	ldr	r0, [fp, #-48]	; 0x30
48014c7c:	e51b1008 	ldr	r1, [fp, #-8]
48014c80:	ebfffc54 	bl	48013dd8 <_fdt_offset_ptr_w>
48014c84:	e50b0024 	str	r0, [fp, #-36]	; 0x24
48014c88:	e51b3024 	ldr	r3, [fp, #-36]	; 0x24
48014c8c:	e5933008 	ldr	r3, [r3, #8]
48014c90:	e1a02c03 	lsl	r2, r3, #24
48014c94:	e51b3024 	ldr	r3, [fp, #-36]	; 0x24
48014c98:	e5933008 	ldr	r3, [r3, #8]
48014c9c:	e2033cff 	and	r3, r3, #65280	; 0xff00
48014ca0:	e1a03403 	lsl	r3, r3, #8
48014ca4:	e1822003 	orr	r2, r2, r3
48014ca8:	e51b3024 	ldr	r3, [fp, #-36]	; 0x24
48014cac:	e5933008 	ldr	r3, [r3, #8]
48014cb0:	e20338ff 	and	r3, r3, #16711680	; 0xff0000
48014cb4:	e1a03423 	lsr	r3, r3, #8
48014cb8:	e1822003 	orr	r2, r2, r3
48014cbc:	e51b3024 	ldr	r3, [fp, #-36]	; 0x24
48014cc0:	e5933008 	ldr	r3, [r3, #8]
48014cc4:	e1a03c23 	lsr	r3, r3, #24
48014cc8:	e1823003 	orr	r3, r2, r3
48014ccc:	e50b3028 	str	r3, [fp, #-40]	; 0x28
48014cd0:	e51b3030 	ldr	r3, [fp, #-48]	; 0x30
48014cd4:	e5933020 	ldr	r3, [r3, #32]
48014cd8:	e1a02c03 	lsl	r2, r3, #24
48014cdc:	e51b3030 	ldr	r3, [fp, #-48]	; 0x30
48014ce0:	e5933020 	ldr	r3, [r3, #32]
48014ce4:	e2033cff 	and	r3, r3, #65280	; 0xff00
48014ce8:	e1a03403 	lsl	r3, r3, #8
48014cec:	e1822003 	orr	r2, r2, r3
48014cf0:	e51b3030 	ldr	r3, [fp, #-48]	; 0x30
48014cf4:	e5933020 	ldr	r3, [r3, #32]
48014cf8:	e20338ff 	and	r3, r3, #16711680	; 0xff0000
48014cfc:	e1a03423 	lsr	r3, r3, #8
48014d00:	e1822003 	orr	r2, r2, r3
48014d04:	e51b3030 	ldr	r3, [fp, #-48]	; 0x30
48014d08:	e5933020 	ldr	r3, [r3, #32]
48014d0c:	e1a03c23 	lsr	r3, r3, #24
48014d10:	e1822003 	orr	r2, r2, r3
48014d14:	e51b3028 	ldr	r3, [fp, #-40]	; 0x28
48014d18:	e0823003 	add	r3, r2, r3
48014d1c:	e50b3028 	str	r3, [fp, #-40]	; 0x28
48014d20:	e51b3028 	ldr	r3, [fp, #-40]	; 0x28
48014d24:	e1a02c03 	lsl	r2, r3, #24
48014d28:	e51b3028 	ldr	r3, [fp, #-40]	; 0x28
48014d2c:	e2033cff 	and	r3, r3, #65280	; 0xff00
48014d30:	e1a03403 	lsl	r3, r3, #8
48014d34:	e1822003 	orr	r2, r2, r3
48014d38:	e51b3028 	ldr	r3, [fp, #-40]	; 0x28
48014d3c:	e20338ff 	and	r3, r3, #16711680	; 0xff0000
48014d40:	e1a03423 	lsr	r3, r3, #8
48014d44:	e1822003 	orr	r2, r2, r3
48014d48:	e51b3028 	ldr	r3, [fp, #-40]	; 0x28
48014d4c:	e1a03c23 	lsr	r3, r3, #24
48014d50:	e1822003 	orr	r2, r2, r3
48014d54:	e51b3024 	ldr	r3, [fp, #-36]	; 0x24
48014d58:	e5832008 	str	r2, [r3, #8]
48014d5c:	e51b302c 	ldr	r3, [fp, #-44]	; 0x2c
48014d60:	e50b3008 	str	r3, [fp, #-8]
48014d64:	e24b302c 	sub	r3, fp, #44	; 0x2c
48014d68:	e51b0030 	ldr	r0, [fp, #-48]	; 0x30
48014d6c:	e51b1008 	ldr	r1, [fp, #-8]
48014d70:	e1a02003 	mov	r2, r3
48014d74:	ebffe218 	bl	4800d5dc <fdt_next_tag>
48014d78:	e50b0020 	str	r0, [fp, #-32]
48014d7c:	e51b3020 	ldr	r3, [fp, #-32]
48014d80:	e3530009 	cmp	r3, #9
48014d84:	1affffb8 	bne	48014c6c <fdt_finish+0x210>
48014d88:	e51b302c 	ldr	r3, [fp, #-44]	; 0x2c
48014d8c:	e3530000 	cmp	r3, #0
48014d90:	aa000001 	bge	48014d9c <fdt_finish+0x340>
48014d94:	e51b302c 	ldr	r3, [fp, #-44]	; 0x2c
48014d98:	ea00001a 	b	48014e08 <fdt_finish+0x3ac>
48014d9c:	e51b3030 	ldr	r3, [fp, #-48]	; 0x30
48014da0:	e5933020 	ldr	r3, [r3, #32]
48014da4:	e1a02c03 	lsl	r2, r3, #24
48014da8:	e51b3030 	ldr	r3, [fp, #-48]	; 0x30
48014dac:	e5933020 	ldr	r3, [r3, #32]
48014db0:	e2033cff 	and	r3, r3, #65280	; 0xff00
48014db4:	e1a03403 	lsl	r3, r3, #8
48014db8:	e1822003 	orr	r2, r2, r3
48014dbc:	e51b3030 	ldr	r3, [fp, #-48]	; 0x30
48014dc0:	e5933020 	ldr	r3, [r3, #32]
48014dc4:	e20338ff 	and	r3, r3, #16711680	; 0xff0000
48014dc8:	e1a03423 	lsr	r3, r3, #8
48014dcc:	e1822003 	orr	r2, r2, r3
48014dd0:	e51b3030 	ldr	r3, [fp, #-48]	; 0x30
48014dd4:	e5933020 	ldr	r3, [r3, #32]
48014dd8:	e1a03c23 	lsr	r3, r3, #24
48014ddc:	e1822003 	orr	r2, r2, r3
48014de0:	e51b301c 	ldr	r3, [fp, #-28]
48014de4:	e0823003 	add	r3, r2, r3
48014de8:	e51b0030 	ldr	r0, [fp, #-48]	; 0x30
48014dec:	e1a01003 	mov	r1, r3
48014df0:	ebfffb12 	bl	48013a40 <fdt_set_totalsize>
48014df4:	e51b0030 	ldr	r0, [fp, #-48]	; 0x30
48014df8:	e30f1eed 	movw	r1, #65261	; 0xfeed
48014dfc:	e34d100d 	movt	r1, #53261	; 0xd00d
48014e00:	ebfffaf5 	bl	480139dc <fdt_set_magic>
48014e04:	e3a03000 	mov	r3, #0
48014e08:	e1a00003 	mov	r0, r3
48014e0c:	e24bd004 	sub	sp, fp, #4
48014e10:	e8bd8800 	pop	{fp, pc}

48014e14 <fdt_offset_ptr_w>:
48014e14:	e92d4800 	push	{fp, lr}
48014e18:	e28db004 	add	fp, sp, #4
48014e1c:	e24dd010 	sub	sp, sp, #16
48014e20:	e50b0008 	str	r0, [fp, #-8]
48014e24:	e50b100c 	str	r1, [fp, #-12]
48014e28:	e50b2010 	str	r2, [fp, #-16]
48014e2c:	e51b3010 	ldr	r3, [fp, #-16]
48014e30:	e51b0008 	ldr	r0, [fp, #-8]
48014e34:	e51b100c 	ldr	r1, [fp, #-12]
48014e38:	e1a02003 	mov	r2, r3
48014e3c:	ebffe19f 	bl	4800d4c0 <fdt_offset_ptr>
48014e40:	e1a03000 	mov	r3, r0
48014e44:	e1a00003 	mov	r0, r3
48014e48:	e24bd004 	sub	sp, fp, #4
48014e4c:	e8bd8800 	pop	{fp, pc}

48014e50 <fdt_get_property_w>:
48014e50:	e92d4800 	push	{fp, lr}
48014e54:	e28db004 	add	fp, sp, #4
48014e58:	e24dd010 	sub	sp, sp, #16
48014e5c:	e50b0008 	str	r0, [fp, #-8]
48014e60:	e50b100c 	str	r1, [fp, #-12]
48014e64:	e50b2010 	str	r2, [fp, #-16]
48014e68:	e50b3014 	str	r3, [fp, #-20]
48014e6c:	e51b0008 	ldr	r0, [fp, #-8]
48014e70:	e51b100c 	ldr	r1, [fp, #-12]
48014e74:	e51b2010 	ldr	r2, [fp, #-16]
48014e78:	e51b3014 	ldr	r3, [fp, #-20]
48014e7c:	ebffe73d 	bl	4800eb78 <fdt_get_property>
48014e80:	e1a03000 	mov	r3, r0
48014e84:	e1a00003 	mov	r0, r3
48014e88:	e24bd004 	sub	sp, fp, #4
48014e8c:	e8bd8800 	pop	{fp, pc}

48014e90 <fdt_getprop_w>:
48014e90:	e92d4800 	push	{fp, lr}
48014e94:	e28db004 	add	fp, sp, #4
48014e98:	e24dd010 	sub	sp, sp, #16
48014e9c:	e50b0008 	str	r0, [fp, #-8]
48014ea0:	e50b100c 	str	r1, [fp, #-12]
48014ea4:	e50b2010 	str	r2, [fp, #-16]
48014ea8:	e50b3014 	str	r3, [fp, #-20]
48014eac:	e51b0008 	ldr	r0, [fp, #-8]
48014eb0:	e51b100c 	ldr	r1, [fp, #-12]
48014eb4:	e51b2010 	ldr	r2, [fp, #-16]
48014eb8:	e51b3014 	ldr	r3, [fp, #-20]
48014ebc:	ebffe78a 	bl	4800ecec <fdt_getprop>
48014ec0:	e1a03000 	mov	r3, r0
48014ec4:	e1a00003 	mov	r0, r3
48014ec8:	e24bd004 	sub	sp, fp, #4
48014ecc:	e8bd8800 	pop	{fp, pc}

48014ed0 <fdt_setprop_inplace>:
48014ed0:	e92d4800 	push	{fp, lr}
48014ed4:	e28db004 	add	fp, sp, #4
48014ed8:	e24dd018 	sub	sp, sp, #24
48014edc:	e50b0010 	str	r0, [fp, #-16]
48014ee0:	e50b1014 	str	r1, [fp, #-20]
48014ee4:	e50b2018 	str	r2, [fp, #-24]
48014ee8:	e50b301c 	str	r3, [fp, #-28]
48014eec:	e24b300c 	sub	r3, fp, #12
48014ef0:	e51b0010 	ldr	r0, [fp, #-16]
48014ef4:	e51b1014 	ldr	r1, [fp, #-20]
48014ef8:	e51b2018 	ldr	r2, [fp, #-24]
48014efc:	ebffffe3 	bl	48014e90 <fdt_getprop_w>
48014f00:	e50b0008 	str	r0, [fp, #-8]
48014f04:	e51b3008 	ldr	r3, [fp, #-8]
48014f08:	e3530000 	cmp	r3, #0
48014f0c:	1a000001 	bne	48014f18 <fdt_setprop_inplace+0x48>
48014f10:	e51b300c 	ldr	r3, [fp, #-12]
48014f14:	ea00000b 	b	48014f48 <fdt_setprop_inplace+0x78>
48014f18:	e51b200c 	ldr	r2, [fp, #-12]
48014f1c:	e59b3004 	ldr	r3, [fp, #4]
48014f20:	e1520003 	cmp	r2, r3
48014f24:	0a000001 	beq	48014f30 <fdt_setprop_inplace+0x60>
48014f28:	e3e03002 	mvn	r3, #2
48014f2c:	ea000005 	b	48014f48 <fdt_setprop_inplace+0x78>
48014f30:	e59b3004 	ldr	r3, [fp, #4]
48014f34:	e51b0008 	ldr	r0, [fp, #-8]
48014f38:	e51b101c 	ldr	r1, [fp, #-28]
48014f3c:	e1a02003 	mov	r2, r3
48014f40:	ebffd635 	bl	4800a81c <arm_memcpy>
48014f44:	e3a03000 	mov	r3, #0
48014f48:	e1a00003 	mov	r0, r3
48014f4c:	e24bd004 	sub	sp, fp, #4
48014f50:	e8bd8800 	pop	{fp, pc}

48014f54 <_fdt_nop_region>:
48014f54:	e52db004 	push	{fp}		; (str fp, [sp, #-4]!)
48014f58:	e28db000 	add	fp, sp, #0
48014f5c:	e24dd014 	sub	sp, sp, #20
48014f60:	e50b0010 	str	r0, [fp, #-16]
48014f64:	e50b1014 	str	r1, [fp, #-20]
48014f68:	e51b3010 	ldr	r3, [fp, #-16]
48014f6c:	e50b3008 	str	r3, [fp, #-8]
48014f70:	ea000005 	b	48014f8c <_fdt_nop_region+0x38>
48014f74:	e51b3008 	ldr	r3, [fp, #-8]
48014f78:	e3a02301 	mov	r2, #67108864	; 0x4000000
48014f7c:	e5832000 	str	r2, [r3]
48014f80:	e51b3008 	ldr	r3, [fp, #-8]
48014f84:	e2833004 	add	r3, r3, #4
48014f88:	e50b3008 	str	r3, [fp, #-8]
48014f8c:	e51b3014 	ldr	r3, [fp, #-20]
48014f90:	e51b2010 	ldr	r2, [fp, #-16]
48014f94:	e0822003 	add	r2, r2, r3
48014f98:	e51b3008 	ldr	r3, [fp, #-8]
48014f9c:	e1520003 	cmp	r2, r3
48014fa0:	8afffff3 	bhi	48014f74 <_fdt_nop_region+0x20>
48014fa4:	e24bd000 	sub	sp, fp, #0
48014fa8:	e49db004 	pop	{fp}		; (ldr fp, [sp], #4)
48014fac:	e12fff1e 	bx	lr

48014fb0 <fdt_nop_property>:
48014fb0:	e92d4800 	push	{fp, lr}
48014fb4:	e28db004 	add	fp, sp, #4
48014fb8:	e24dd018 	sub	sp, sp, #24
48014fbc:	e50b0010 	str	r0, [fp, #-16]
48014fc0:	e50b1014 	str	r1, [fp, #-20]
48014fc4:	e50b2018 	str	r2, [fp, #-24]
48014fc8:	e24b300c 	sub	r3, fp, #12
48014fcc:	e51b0010 	ldr	r0, [fp, #-16]
48014fd0:	e51b1014 	ldr	r1, [fp, #-20]
48014fd4:	e51b2018 	ldr	r2, [fp, #-24]
48014fd8:	ebffff9c 	bl	48014e50 <fdt_get_property_w>
48014fdc:	e50b0008 	str	r0, [fp, #-8]
48014fe0:	e51b3008 	ldr	r3, [fp, #-8]
48014fe4:	e3530000 	cmp	r3, #0
48014fe8:	1a000001 	bne	48014ff4 <fdt_nop_property+0x44>
48014fec:	e51b300c 	ldr	r3, [fp, #-12]
48014ff0:	ea000005 	b	4801500c <fdt_nop_property+0x5c>
48014ff4:	e51b300c 	ldr	r3, [fp, #-12]
48014ff8:	e283300c 	add	r3, r3, #12
48014ffc:	e51b0008 	ldr	r0, [fp, #-8]
48015000:	e1a01003 	mov	r1, r3
48015004:	ebffffd2 	bl	48014f54 <_fdt_nop_region>
48015008:	e3a03000 	mov	r3, #0
4801500c:	e1a00003 	mov	r0, r3
48015010:	e24bd004 	sub	sp, fp, #4
48015014:	e8bd8800 	pop	{fp, pc}

48015018 <_fdt_node_end_offset>:
48015018:	e92d4800 	push	{fp, lr}
4801501c:	e28db004 	add	fp, sp, #4
48015020:	e24dd010 	sub	sp, sp, #16
48015024:	e50b0010 	str	r0, [fp, #-16]
48015028:	e50b1014 	str	r1, [fp, #-20]
4801502c:	e3a03000 	mov	r3, #0
48015030:	e50b3008 	str	r3, [fp, #-8]
48015034:	ea000005 	b	48015050 <_fdt_node_end_offset+0x38>
48015038:	e24b3008 	sub	r3, fp, #8
4801503c:	e51b0010 	ldr	r0, [fp, #-16]
48015040:	e51b1014 	ldr	r1, [fp, #-20]
48015044:	e1a02003 	mov	r2, r3
48015048:	ebffe221 	bl	4800d8d4 <fdt_next_node>
4801504c:	e50b0014 	str	r0, [fp, #-20]
48015050:	e51b3014 	ldr	r3, [fp, #-20]
48015054:	e3530000 	cmp	r3, #0
48015058:	ba000002 	blt	48015068 <_fdt_node_end_offset+0x50>
4801505c:	e51b3008 	ldr	r3, [fp, #-8]
48015060:	e3530000 	cmp	r3, #0
48015064:	aafffff3 	bge	48015038 <_fdt_node_end_offset+0x20>
48015068:	e51b3014 	ldr	r3, [fp, #-20]
4801506c:	e1a00003 	mov	r0, r3
48015070:	e24bd004 	sub	sp, fp, #4
48015074:	e8bd8800 	pop	{fp, pc}

48015078 <fdt_nop_node>:
48015078:	e92d4800 	push	{fp, lr}
4801507c:	e28db004 	add	fp, sp, #4
48015080:	e24dd010 	sub	sp, sp, #16
48015084:	e50b0010 	str	r0, [fp, #-16]
48015088:	e50b1014 	str	r1, [fp, #-20]
4801508c:	e51b0010 	ldr	r0, [fp, #-16]
48015090:	e51b1014 	ldr	r1, [fp, #-20]
48015094:	ebffffdf 	bl	48015018 <_fdt_node_end_offset>
48015098:	e50b0008 	str	r0, [fp, #-8]
4801509c:	e51b3008 	ldr	r3, [fp, #-8]
480150a0:	e3530000 	cmp	r3, #0
480150a4:	aa000001 	bge	480150b0 <fdt_nop_node+0x38>
480150a8:	e51b3008 	ldr	r3, [fp, #-8]
480150ac:	ea00000b 	b	480150e0 <fdt_nop_node+0x68>
480150b0:	e51b0010 	ldr	r0, [fp, #-16]
480150b4:	e51b1014 	ldr	r1, [fp, #-20]
480150b8:	e3a02000 	mov	r2, #0
480150bc:	ebffff54 	bl	48014e14 <fdt_offset_ptr_w>
480150c0:	e1a02000 	mov	r2, r0
480150c4:	e51b1008 	ldr	r1, [fp, #-8]
480150c8:	e51b3014 	ldr	r3, [fp, #-20]
480150cc:	e0633001 	rsb	r3, r3, r1
480150d0:	e1a00002 	mov	r0, r2
480150d4:	e1a01003 	mov	r1, r3
480150d8:	ebffff9d 	bl	48014f54 <_fdt_nop_region>
480150dc:	e3a03000 	mov	r3, #0
480150e0:	e1a00003 	mov	r0, r3
480150e4:	e24bd004 	sub	sp, fp, #4
480150e8:	e8bd8800 	pop	{fp, pc}
480150ec:	00000000 	andeq	r0, r0, r0
